SF:/Users/ocdbytes/Karnot/madara-orchestrator/crates/da-clients/da-client-interface/src/lib.rs
FN:17,_RNvXs4_Cs9tTyTyvkW6x_19da_client_interfaceNtB5_12MockDaClientNtNtCsl82brYPINY5_4core3fmt5Debug3fmt
FN:17,_RNvXs5_Cs9tTyTyvkW6x_19da_client_interfaceNtB5_12MockDaClientNtNtCsl82brYPINY5_4core7default7Default7default
FN:17,_RNvMNtNtCs9tTyTyvkW6x_19da_client_interface28___mock_MockDaClient_DaClient20___publish_state_diffNtB2_5Rfunc8call_mut
FN:17,_RNvXs_NtNtCs9tTyTyvkW6x_19da_client_interface28___mock_MockDaClient_DaClient20___publish_state_diffNtB4_5RfuncNtNtCsl82brYPINY5_4core7default7Default7default
FN:17,_RNvMs0_NtNtCs9tTyTyvkW6x_19da_client_interface28___mock_MockDaClient_DaClient20___publish_state_diffNtB5_7Matcher7matches
FN:17,_RNCNvMs0_NtNtCs9tTyTyvkW6x_19da_client_interface28___mock_MockDaClient_DaClient20___publish_state_diffNtB7_7Matcher7matches0Bb_
FN:17,_RNvXs1_NtNtCs9tTyTyvkW6x_19da_client_interface28___mock_MockDaClient_DaClient20___publish_state_diffNtB5_7MatcherNtNtCsl82brYPINY5_4core7default7Default7default
FN:17,_RNvXs2_NtNtCs9tTyTyvkW6x_19da_client_interface28___mock_MockDaClient_DaClient20___publish_state_diffNtB5_7MatcherNtNtCsl82brYPINY5_4core3fmt7Display3fmt
FN:17,_RNvXs3_NtNtCs9tTyTyvkW6x_19da_client_interface28___mock_MockDaClient_DaClient20___publish_state_diffNtB5_6CommonNtNtCsl82brYPINY5_4core7default7Default7default
FN:17,_RNvMs4_NtNtCs9tTyTyvkW6x_19da_client_interface28___mock_MockDaClient_DaClient20___publish_state_diffNtB5_6Common4call
FN:17,_RNvMs4_NtNtCs9tTyTyvkW6x_19da_client_interface28___mock_MockDaClient_DaClient20___publish_state_diffNtB5_6Common11in_sequence
FN:17,_RNvMs4_NtNtCs9tTyTyvkW6x_19da_client_interface28___mock_MockDaClient_DaClient20___publish_state_diffNtB5_6Common7is_done
FN:17,_RNvMs4_NtNtCs9tTyTyvkW6x_19da_client_interface28___mock_MockDaClient_DaClient20___publish_state_diffNtB5_6Common7matches
FN:17,_RNvMs4_NtNtCs9tTyTyvkW6x_19da_client_interface28___mock_MockDaClient_DaClient20___publish_state_diffNtB5_6Common5never
FN:17,_RNvMs4_NtNtCs9tTyTyvkW6x_19da_client_interface28___mock_MockDaClient_DaClient20___publish_state_diffNtB5_6Common16satisfy_sequence
FN:17,_RINvMs4_NtNtCs9tTyTyvkW6x_19da_client_interface28___mock_MockDaClient_DaClient20___publish_state_diffNtB6_6Common5timespEBa_
FN:17,_RINvMs4_NtNtCs9tTyTyvkW6x_19da_client_interface28___mock_MockDaClient_DaClient20___publish_state_diffNtB6_6Common4withppEBa_
FN:17,_RINvMs4_NtNtCs9tTyTyvkW6x_19da_client_interface28___mock_MockDaClient_DaClient20___publish_state_diffNtB6_6Common5withfpEBa_
FN:17,_RINvMs4_NtNtCs9tTyTyvkW6x_19da_client_interface28___mock_MockDaClient_DaClient20___publish_state_diffNtB6_6Common8withf_stpEBa_
FN:17,_RNvMs4_NtNtCs9tTyTyvkW6x_19da_client_interface28___mock_MockDaClient_DaClient20___publish_state_diffNtB5_6Common15verify_sequence
FN:17,_RNvXs5_NtNtCs9tTyTyvkW6x_19da_client_interface28___mock_MockDaClient_DaClient20___publish_state_diffNtB5_6CommonNtNtNtCsl82brYPINY5_4core3ops4drop4Drop4drop
FN:17,_RNvMs6_NtNtCs9tTyTyvkW6x_19da_client_interface28___mock_MockDaClient_DaClient20___publish_state_diffNtB5_11Expectation4call
FN:17,_RINvMs6_NtNtCs9tTyTyvkW6x_19da_client_interface28___mock_MockDaClient_DaClient20___publish_state_diffNtB6_11Expectation12return_constpEBa_
FN:17,_RNCINvMs6_NtNtCs9tTyTyvkW6x_19da_client_interface28___mock_MockDaClient_DaClient20___publish_state_diffNtB8_11Expectation12return_constpE0Bc_
FN:17,_RINvMs6_NtNtCs9tTyTyvkW6x_19da_client_interface28___mock_MockDaClient_DaClient20___publish_state_diffNtB6_11Expectation15return_const_stpEBa_
FN:17,_RNCINvMs6_NtNtCs9tTyTyvkW6x_19da_client_interface28___mock_MockDaClient_DaClient20___publish_state_diffNtB8_11Expectation15return_const_stpE0Bc_
FN:17,_RINvMs6_NtNtCs9tTyTyvkW6x_19da_client_interface28___mock_MockDaClient_DaClient20___publish_state_diffNtB6_11Expectation11return_oncepEBa_
FN:17,_RINvMs6_NtNtCs9tTyTyvkW6x_19da_client_interface28___mock_MockDaClient_DaClient20___publish_state_diffNtB6_11Expectation14return_once_stpEBa_
FN:17,_RINvMs6_NtNtCs9tTyTyvkW6x_19da_client_interface28___mock_MockDaClient_DaClient20___publish_state_diffNtB6_11Expectation9returningpEBa_
FN:17,_RINvMs6_NtNtCs9tTyTyvkW6x_19da_client_interface28___mock_MockDaClient_DaClient20___publish_state_diffNtB6_11Expectation12returning_stpEBa_
FN:17,_RNvMs6_NtNtCs9tTyTyvkW6x_19da_client_interface28___mock_MockDaClient_DaClient20___publish_state_diffNtB5_11Expectation11in_sequence
FN:17,_RNvMs6_NtNtCs9tTyTyvkW6x_19da_client_interface28___mock_MockDaClient_DaClient20___publish_state_diffNtB5_11Expectation7is_done
FN:17,_RNvMs6_NtNtCs9tTyTyvkW6x_19da_client_interface28___mock_MockDaClient_DaClient20___publish_state_diffNtB5_11Expectation7matches
FN:17,_RNvMs6_NtNtCs9tTyTyvkW6x_19da_client_interface28___mock_MockDaClient_DaClient20___publish_state_diffNtB5_11Expectation5never
FN:17,_RNvMs6_NtNtCs9tTyTyvkW6x_19da_client_interface28___mock_MockDaClient_DaClient20___publish_state_diffNtB5_11Expectation3new
FN:17,_RNvMs6_NtNtCs9tTyTyvkW6x_19da_client_interface28___mock_MockDaClient_DaClient20___publish_state_diffNtB5_11Expectation4once
FN:17,_RINvMs6_NtNtCs9tTyTyvkW6x_19da_client_interface28___mock_MockDaClient_DaClient20___publish_state_diffNtB6_11Expectation5timespEBa_
FN:17,_RINvMs6_NtNtCs9tTyTyvkW6x_19da_client_interface28___mock_MockDaClient_DaClient20___publish_state_diffNtB6_11Expectation4withppEBa_
FN:17,_RINvMs6_NtNtCs9tTyTyvkW6x_19da_client_interface28___mock_MockDaClient_DaClient20___publish_state_diffNtB6_11Expectation5withfpEBa_
FN:17,_RINvMs6_NtNtCs9tTyTyvkW6x_19da_client_interface28___mock_MockDaClient_DaClient20___publish_state_diffNtB6_11Expectation8withf_stpEBa_
FN:17,_RNvXs7_NtNtCs9tTyTyvkW6x_19da_client_interface28___mock_MockDaClient_DaClient20___publish_state_diffNtB5_11ExpectationNtNtCsl82brYPINY5_4core7default7Default7default
FN:17,_RNvMs8_NtNtCs9tTyTyvkW6x_19da_client_interface28___mock_MockDaClient_DaClient20___publish_state_diffNtB5_12Expectations10checkpoint
FN:17,_RNvMs8_NtNtCs9tTyTyvkW6x_19da_client_interface28___mock_MockDaClient_DaClient20___publish_state_diffNtB5_12Expectations6expect
FN:17,_RNvMs8_NtNtCs9tTyTyvkW6x_19da_client_interface28___mock_MockDaClient_DaClient20___publish_state_diffNtB5_12Expectations3new
FN:17,_RNvXs9_NtNtCs9tTyTyvkW6x_19da_client_interface28___mock_MockDaClient_DaClient20___publish_state_diffNtB5_12ExpectationsNtNtCsl82brYPINY5_4core7default7Default7default
FN:17,_RNvMsa_NtNtCs9tTyTyvkW6x_19da_client_interface28___mock_MockDaClient_DaClient20___publish_state_diffNtB5_12Expectations4call
FN:17,_RNCNvMsa_NtNtCs9tTyTyvkW6x_19da_client_interface28___mock_MockDaClient_DaClient20___publish_state_diffNtB7_12Expectations4call0Bb_
FN:17,_RNCNvMsa_NtNtCs9tTyTyvkW6x_19da_client_interface28___mock_MockDaClient_DaClient20___publish_state_diffNtB7_12Expectations4calls_0Bb_
FN:17,_RNvMNtNtCs9tTyTyvkW6x_19da_client_interface28___mock_MockDaClient_DaClient18___verify_inclusionNtB2_5Rfunc8call_mut
FN:17,_RNvXs_NtNtCs9tTyTyvkW6x_19da_client_interface28___mock_MockDaClient_DaClient18___verify_inclusionNtB4_5RfuncNtNtCsl82brYPINY5_4core7default7Default7default
FN:17,_RNvMs0_NtNtCs9tTyTyvkW6x_19da_client_interface28___mock_MockDaClient_DaClient18___verify_inclusionNtB5_7Matcher7matches
FN:17,_RNCNvMs0_NtNtCs9tTyTyvkW6x_19da_client_interface28___mock_MockDaClient_DaClient18___verify_inclusionNtB7_7Matcher7matches0Bb_
FN:17,_RNvXs1_NtNtCs9tTyTyvkW6x_19da_client_interface28___mock_MockDaClient_DaClient18___verify_inclusionNtB5_7MatcherNtNtCsl82brYPINY5_4core7default7Default7default
FN:17,_RNvXs2_NtNtCs9tTyTyvkW6x_19da_client_interface28___mock_MockDaClient_DaClient18___verify_inclusionNtB5_7MatcherNtNtCsl82brYPINY5_4core3fmt7Display3fmt
FN:17,_RNvXs3_NtNtCs9tTyTyvkW6x_19da_client_interface28___mock_MockDaClient_DaClient18___verify_inclusionNtB5_6CommonNtNtCsl82brYPINY5_4core7default7Default7default
FN:17,_RNvMs4_NtNtCs9tTyTyvkW6x_19da_client_interface28___mock_MockDaClient_DaClient18___verify_inclusionNtB5_6Common4call
FN:17,_RNvMs4_NtNtCs9tTyTyvkW6x_19da_client_interface28___mock_MockDaClient_DaClient18___verify_inclusionNtB5_6Common11in_sequence
FN:17,_RNvMs4_NtNtCs9tTyTyvkW6x_19da_client_interface28___mock_MockDaClient_DaClient18___verify_inclusionNtB5_6Common7is_done
FN:17,_RNvMs4_NtNtCs9tTyTyvkW6x_19da_client_interface28___mock_MockDaClient_DaClient18___verify_inclusionNtB5_6Common7matches
FN:17,_RNvMs4_NtNtCs9tTyTyvkW6x_19da_client_interface28___mock_MockDaClient_DaClient18___verify_inclusionNtB5_6Common5never
FN:17,_RNvMs4_NtNtCs9tTyTyvkW6x_19da_client_interface28___mock_MockDaClient_DaClient18___verify_inclusionNtB5_6Common16satisfy_sequence
FN:17,_RINvMs4_NtNtCs9tTyTyvkW6x_19da_client_interface28___mock_MockDaClient_DaClient18___verify_inclusionNtB6_6Common5timespEBa_
FN:17,_RINvMs4_NtNtCs9tTyTyvkW6x_19da_client_interface28___mock_MockDaClient_DaClient18___verify_inclusionNtB6_6Common4withpEBa_
FN:17,_RINvMs4_NtNtCs9tTyTyvkW6x_19da_client_interface28___mock_MockDaClient_DaClient18___verify_inclusionNtB6_6Common5withfpEBa_
FN:17,_RINvMs4_NtNtCs9tTyTyvkW6x_19da_client_interface28___mock_MockDaClient_DaClient18___verify_inclusionNtB6_6Common8withf_stpEBa_
FN:17,_RNvMs4_NtNtCs9tTyTyvkW6x_19da_client_interface28___mock_MockDaClient_DaClient18___verify_inclusionNtB5_6Common15verify_sequence
FN:17,_RNvXs5_NtNtCs9tTyTyvkW6x_19da_client_interface28___mock_MockDaClient_DaClient18___verify_inclusionNtB5_6CommonNtNtNtCsl82brYPINY5_4core3ops4drop4Drop4drop
FN:17,_RNvMs6_NtNtCs9tTyTyvkW6x_19da_client_interface28___mock_MockDaClient_DaClient18___verify_inclusionNtB5_11Expectation4call
FN:17,_RINvMs6_NtNtCs9tTyTyvkW6x_19da_client_interface28___mock_MockDaClient_DaClient18___verify_inclusionNtB6_11Expectation12return_constpEBa_
FN:17,_RNCINvMs6_NtNtCs9tTyTyvkW6x_19da_client_interface28___mock_MockDaClient_DaClient18___verify_inclusionNtB8_11Expectation12return_constpE0Bc_
FN:17,_RINvMs6_NtNtCs9tTyTyvkW6x_19da_client_interface28___mock_MockDaClient_DaClient18___verify_inclusionNtB6_11Expectation15return_const_stpEBa_
FN:17,_RNCINvMs6_NtNtCs9tTyTyvkW6x_19da_client_interface28___mock_MockDaClient_DaClient18___verify_inclusionNtB8_11Expectation15return_const_stpE0Bc_
FN:17,_RINvMs6_NtNtCs9tTyTyvkW6x_19da_client_interface28___mock_MockDaClient_DaClient18___verify_inclusionNtB6_11Expectation11return_oncepEBa_
FN:17,_RINvMs6_NtNtCs9tTyTyvkW6x_19da_client_interface28___mock_MockDaClient_DaClient18___verify_inclusionNtB6_11Expectation14return_once_stpEBa_
FN:17,_RINvMs6_NtNtCs9tTyTyvkW6x_19da_client_interface28___mock_MockDaClient_DaClient18___verify_inclusionNtB6_11Expectation9returningpEBa_
FN:17,_RINvMs6_NtNtCs9tTyTyvkW6x_19da_client_interface28___mock_MockDaClient_DaClient18___verify_inclusionNtB6_11Expectation12returning_stpEBa_
FN:17,_RNvMs6_NtNtCs9tTyTyvkW6x_19da_client_interface28___mock_MockDaClient_DaClient18___verify_inclusionNtB5_11Expectation11in_sequence
FN:17,_RNvMs6_NtNtCs9tTyTyvkW6x_19da_client_interface28___mock_MockDaClient_DaClient18___verify_inclusionNtB5_11Expectation7is_done
FN:17,_RNvMs6_NtNtCs9tTyTyvkW6x_19da_client_interface28___mock_MockDaClient_DaClient18___verify_inclusionNtB5_11Expectation7matches
FN:17,_RNvMs6_NtNtCs9tTyTyvkW6x_19da_client_interface28___mock_MockDaClient_DaClient18___verify_inclusionNtB5_11Expectation5never
FN:17,_RNvMs6_NtNtCs9tTyTyvkW6x_19da_client_interface28___mock_MockDaClient_DaClient18___verify_inclusionNtB5_11Expectation3new
FN:17,_RNvMs6_NtNtCs9tTyTyvkW6x_19da_client_interface28___mock_MockDaClient_DaClient18___verify_inclusionNtB5_11Expectation4once
FN:17,_RINvMs6_NtNtCs9tTyTyvkW6x_19da_client_interface28___mock_MockDaClient_DaClient18___verify_inclusionNtB6_11Expectation5timespEBa_
FN:17,_RINvMs6_NtNtCs9tTyTyvkW6x_19da_client_interface28___mock_MockDaClient_DaClient18___verify_inclusionNtB6_11Expectation4withpEBa_
FN:17,_RINvMs6_NtNtCs9tTyTyvkW6x_19da_client_interface28___mock_MockDaClient_DaClient18___verify_inclusionNtB6_11Expectation5withfpEBa_
FN:17,_RINvMs6_NtNtCs9tTyTyvkW6x_19da_client_interface28___mock_MockDaClient_DaClient18___verify_inclusionNtB6_11Expectation8withf_stpEBa_
FN:17,_RNvXs7_NtNtCs9tTyTyvkW6x_19da_client_interface28___mock_MockDaClient_DaClient18___verify_inclusionNtB5_11ExpectationNtNtCsl82brYPINY5_4core7default7Default7default
FN:17,_RNvMs8_NtNtCs9tTyTyvkW6x_19da_client_interface28___mock_MockDaClient_DaClient18___verify_inclusionNtB5_12Expectations10checkpoint
FN:17,_RNvMs8_NtNtCs9tTyTyvkW6x_19da_client_interface28___mock_MockDaClient_DaClient18___verify_inclusionNtB5_12Expectations6expect
FN:17,_RNvMs8_NtNtCs9tTyTyvkW6x_19da_client_interface28___mock_MockDaClient_DaClient18___verify_inclusionNtB5_12Expectations3new
FN:17,_RNvXs9_NtNtCs9tTyTyvkW6x_19da_client_interface28___mock_MockDaClient_DaClient18___verify_inclusionNtB5_12ExpectationsNtNtCsl82brYPINY5_4core7default7Default7default
FN:17,_RNvMsa_NtNtCs9tTyTyvkW6x_19da_client_interface28___mock_MockDaClient_DaClient18___verify_inclusionNtB5_12Expectations4call
FN:17,_RNCNvMsa_NtNtCs9tTyTyvkW6x_19da_client_interface28___mock_MockDaClient_DaClient18___verify_inclusionNtB7_12Expectations4call0Bb_
FN:17,_RNCNvMsa_NtNtCs9tTyTyvkW6x_19da_client_interface28___mock_MockDaClient_DaClient18___verify_inclusionNtB7_12Expectations4calls_0Bb_
FN:17,_RNvMNtNtCs9tTyTyvkW6x_19da_client_interface28___mock_MockDaClient_DaClient18___max_blob_per_txnNtB2_5Rfunc8call_mut
FN:17,_RNvXs_NtNtCs9tTyTyvkW6x_19da_client_interface28___mock_MockDaClient_DaClient18___max_blob_per_txnNtB4_5RfuncNtNtCsl82brYPINY5_4core7default7Default7default
FN:17,_RNvMs0_NtNtCs9tTyTyvkW6x_19da_client_interface28___mock_MockDaClient_DaClient18___max_blob_per_txnNtB5_7Matcher7matches
FN:17,_RNCNvMs0_NtNtCs9tTyTyvkW6x_19da_client_interface28___mock_MockDaClient_DaClient18___max_blob_per_txnNtB7_7Matcher7matches0Bb_
FN:17,_RNvXs1_NtNtCs9tTyTyvkW6x_19da_client_interface28___mock_MockDaClient_DaClient18___max_blob_per_txnNtB5_7MatcherNtNtCsl82brYPINY5_4core7default7Default7default
FN:17,_RNvXs2_NtNtCs9tTyTyvkW6x_19da_client_interface28___mock_MockDaClient_DaClient18___max_blob_per_txnNtB5_7MatcherNtNtCsl82brYPINY5_4core3fmt7Display3fmt
FN:17,_RNvXs3_NtNtCs9tTyTyvkW6x_19da_client_interface28___mock_MockDaClient_DaClient18___max_blob_per_txnNtB5_6CommonNtNtCsl82brYPINY5_4core7default7Default7default
FN:17,_RNvMs4_NtNtCs9tTyTyvkW6x_19da_client_interface28___mock_MockDaClient_DaClient18___max_blob_per_txnNtB5_6Common4call
FN:17,_RNvMs4_NtNtCs9tTyTyvkW6x_19da_client_interface28___mock_MockDaClient_DaClient18___max_blob_per_txnNtB5_6Common11in_sequence
FN:17,_RNvMs4_NtNtCs9tTyTyvkW6x_19da_client_interface28___mock_MockDaClient_DaClient18___max_blob_per_txnNtB5_6Common7is_done
FN:17,_RNvMs4_NtNtCs9tTyTyvkW6x_19da_client_interface28___mock_MockDaClient_DaClient18___max_blob_per_txnNtB5_6Common7matches
FN:17,_RNvMs4_NtNtCs9tTyTyvkW6x_19da_client_interface28___mock_MockDaClient_DaClient18___max_blob_per_txnNtB5_6Common5never
FN:17,_RNvMs4_NtNtCs9tTyTyvkW6x_19da_client_interface28___mock_MockDaClient_DaClient18___max_blob_per_txnNtB5_6Common16satisfy_sequence
FN:17,_RINvMs4_NtNtCs9tTyTyvkW6x_19da_client_interface28___mock_MockDaClient_DaClient18___max_blob_per_txnNtB6_6Common5timespEBa_
FN:17,_RNvMs4_NtNtCs9tTyTyvkW6x_19da_client_interface28___mock_MockDaClient_DaClient18___max_blob_per_txnNtB5_6Common4with
FN:17,_RINvMs4_NtNtCs9tTyTyvkW6x_19da_client_interface28___mock_MockDaClient_DaClient18___max_blob_per_txnNtB6_6Common5withfpEBa_
FN:17,_RINvMs4_NtNtCs9tTyTyvkW6x_19da_client_interface28___mock_MockDaClient_DaClient18___max_blob_per_txnNtB6_6Common8withf_stpEBa_
FN:17,_RNvMs4_NtNtCs9tTyTyvkW6x_19da_client_interface28___mock_MockDaClient_DaClient18___max_blob_per_txnNtB5_6Common15verify_sequence
FN:17,_RNvXs5_NtNtCs9tTyTyvkW6x_19da_client_interface28___mock_MockDaClient_DaClient18___max_blob_per_txnNtB5_6CommonNtNtNtCsl82brYPINY5_4core3ops4drop4Drop4drop
FN:17,_RNvMs6_NtNtCs9tTyTyvkW6x_19da_client_interface28___mock_MockDaClient_DaClient18___max_blob_per_txnNtB5_11Expectation4call
FN:17,_RINvMs6_NtNtCs9tTyTyvkW6x_19da_client_interface28___mock_MockDaClient_DaClient18___max_blob_per_txnNtB6_11Expectation12return_constpEBa_
FN:17,_RNCINvMs6_NtNtCs9tTyTyvkW6x_19da_client_interface28___mock_MockDaClient_DaClient18___max_blob_per_txnNtB8_11Expectation12return_constpE0Bc_
FN:17,_RINvMs6_NtNtCs9tTyTyvkW6x_19da_client_interface28___mock_MockDaClient_DaClient18___max_blob_per_txnNtB6_11Expectation15return_const_stpEBa_
FN:17,_RNCINvMs6_NtNtCs9tTyTyvkW6x_19da_client_interface28___mock_MockDaClient_DaClient18___max_blob_per_txnNtB8_11Expectation15return_const_stpE0Bc_
FN:17,_RINvMs6_NtNtCs9tTyTyvkW6x_19da_client_interface28___mock_MockDaClient_DaClient18___max_blob_per_txnNtB6_11Expectation11return_oncepEBa_
FN:17,_RINvMs6_NtNtCs9tTyTyvkW6x_19da_client_interface28___mock_MockDaClient_DaClient18___max_blob_per_txnNtB6_11Expectation14return_once_stpEBa_
FN:17,_RINvMs6_NtNtCs9tTyTyvkW6x_19da_client_interface28___mock_MockDaClient_DaClient18___max_blob_per_txnNtB6_11Expectation9returningpEBa_
FN:17,_RINvMs6_NtNtCs9tTyTyvkW6x_19da_client_interface28___mock_MockDaClient_DaClient18___max_blob_per_txnNtB6_11Expectation12returning_stpEBa_
FN:17,_RNvMs6_NtNtCs9tTyTyvkW6x_19da_client_interface28___mock_MockDaClient_DaClient18___max_blob_per_txnNtB5_11Expectation11in_sequence
FN:17,_RNvMs6_NtNtCs9tTyTyvkW6x_19da_client_interface28___mock_MockDaClient_DaClient18___max_blob_per_txnNtB5_11Expectation7is_done
FN:17,_RNvMs6_NtNtCs9tTyTyvkW6x_19da_client_interface28___mock_MockDaClient_DaClient18___max_blob_per_txnNtB5_11Expectation7matches
FN:17,_RNvMs6_NtNtCs9tTyTyvkW6x_19da_client_interface28___mock_MockDaClient_DaClient18___max_blob_per_txnNtB5_11Expectation5never
FN:17,_RNvMs6_NtNtCs9tTyTyvkW6x_19da_client_interface28___mock_MockDaClient_DaClient18___max_blob_per_txnNtB5_11Expectation3new
FN:17,_RNvMs6_NtNtCs9tTyTyvkW6x_19da_client_interface28___mock_MockDaClient_DaClient18___max_blob_per_txnNtB5_11Expectation4once
FN:17,_RINvMs6_NtNtCs9tTyTyvkW6x_19da_client_interface28___mock_MockDaClient_DaClient18___max_blob_per_txnNtB6_11Expectation5timespEBa_
FN:17,_RNvMs6_NtNtCs9tTyTyvkW6x_19da_client_interface28___mock_MockDaClient_DaClient18___max_blob_per_txnNtB5_11Expectation4with
FN:17,_RINvMs6_NtNtCs9tTyTyvkW6x_19da_client_interface28___mock_MockDaClient_DaClient18___max_blob_per_txnNtB6_11Expectation5withfpEBa_
FN:17,_RINvMs6_NtNtCs9tTyTyvkW6x_19da_client_interface28___mock_MockDaClient_DaClient18___max_blob_per_txnNtB6_11Expectation8withf_stpEBa_
FN:17,_RNvXs7_NtNtCs9tTyTyvkW6x_19da_client_interface28___mock_MockDaClient_DaClient18___max_blob_per_txnNtB5_11ExpectationNtNtCsl82brYPINY5_4core7default7Default7default
FN:17,_RNvMs8_NtNtCs9tTyTyvkW6x_19da_client_interface28___mock_MockDaClient_DaClient18___max_blob_per_txnNtB5_12Expectations10checkpoint
FN:17,_RNvMs8_NtNtCs9tTyTyvkW6x_19da_client_interface28___mock_MockDaClient_DaClient18___max_blob_per_txnNtB5_12Expectations6expect
FN:17,_RNvMs8_NtNtCs9tTyTyvkW6x_19da_client_interface28___mock_MockDaClient_DaClient18___max_blob_per_txnNtB5_12Expectations3new
FN:17,_RNvXs9_NtNtCs9tTyTyvkW6x_19da_client_interface28___mock_MockDaClient_DaClient18___max_blob_per_txnNtB5_12ExpectationsNtNtCsl82brYPINY5_4core7default7Default7default
FN:17,_RNvMsa_NtNtCs9tTyTyvkW6x_19da_client_interface28___mock_MockDaClient_DaClient18___max_blob_per_txnNtB5_12Expectations4call
FN:17,_RNCNvMsa_NtNtCs9tTyTyvkW6x_19da_client_interface28___mock_MockDaClient_DaClient18___max_blob_per_txnNtB7_12Expectations4call0Bb_
FN:17,_RNCNvMsa_NtNtCs9tTyTyvkW6x_19da_client_interface28___mock_MockDaClient_DaClient18___max_blob_per_txnNtB7_12Expectations4calls_0Bb_
FN:17,_RNvMNtNtCs9tTyTyvkW6x_19da_client_interface28___mock_MockDaClient_DaClient20___max_bytes_per_blobNtB2_5Rfunc8call_mut
FN:17,_RNvXs_NtNtCs9tTyTyvkW6x_19da_client_interface28___mock_MockDaClient_DaClient20___max_bytes_per_blobNtB4_5RfuncNtNtCsl82brYPINY5_4core7default7Default7default
FN:17,_RNvMs0_NtNtCs9tTyTyvkW6x_19da_client_interface28___mock_MockDaClient_DaClient20___max_bytes_per_blobNtB5_7Matcher7matches
FN:17,_RNCNvMs0_NtNtCs9tTyTyvkW6x_19da_client_interface28___mock_MockDaClient_DaClient20___max_bytes_per_blobNtB7_7Matcher7matches0Bb_
FN:17,_RNvXs1_NtNtCs9tTyTyvkW6x_19da_client_interface28___mock_MockDaClient_DaClient20___max_bytes_per_blobNtB5_7MatcherNtNtCsl82brYPINY5_4core7default7Default7default
FN:17,_RNvXs2_NtNtCs9tTyTyvkW6x_19da_client_interface28___mock_MockDaClient_DaClient20___max_bytes_per_blobNtB5_7MatcherNtNtCsl82brYPINY5_4core3fmt7Display3fmt
FN:17,_RNvXs3_NtNtCs9tTyTyvkW6x_19da_client_interface28___mock_MockDaClient_DaClient20___max_bytes_per_blobNtB5_6CommonNtNtCsl82brYPINY5_4core7default7Default7default
FN:17,_RNvMs4_NtNtCs9tTyTyvkW6x_19da_client_interface28___mock_MockDaClient_DaClient20___max_bytes_per_blobNtB5_6Common4call
FN:17,_RNvMs4_NtNtCs9tTyTyvkW6x_19da_client_interface28___mock_MockDaClient_DaClient20___max_bytes_per_blobNtB5_6Common11in_sequence
FN:17,_RNvMs4_NtNtCs9tTyTyvkW6x_19da_client_interface28___mock_MockDaClient_DaClient20___max_bytes_per_blobNtB5_6Common7is_done
FN:17,_RNvMs4_NtNtCs9tTyTyvkW6x_19da_client_interface28___mock_MockDaClient_DaClient20___max_bytes_per_blobNtB5_6Common7matches
FN:17,_RNvMs4_NtNtCs9tTyTyvkW6x_19da_client_interface28___mock_MockDaClient_DaClient20___max_bytes_per_blobNtB5_6Common5never
FN:17,_RNvMs4_NtNtCs9tTyTyvkW6x_19da_client_interface28___mock_MockDaClient_DaClient20___max_bytes_per_blobNtB5_6Common16satisfy_sequence
FN:17,_RINvMs4_NtNtCs9tTyTyvkW6x_19da_client_interface28___mock_MockDaClient_DaClient20___max_bytes_per_blobNtB6_6Common5timespEBa_
FN:17,_RNvMs4_NtNtCs9tTyTyvkW6x_19da_client_interface28___mock_MockDaClient_DaClient20___max_bytes_per_blobNtB5_6Common4with
FN:17,_RINvMs4_NtNtCs9tTyTyvkW6x_19da_client_interface28___mock_MockDaClient_DaClient20___max_bytes_per_blobNtB6_6Common5withfpEBa_
FN:17,_RINvMs4_NtNtCs9tTyTyvkW6x_19da_client_interface28___mock_MockDaClient_DaClient20___max_bytes_per_blobNtB6_6Common8withf_stpEBa_
FN:17,_RNvMs4_NtNtCs9tTyTyvkW6x_19da_client_interface28___mock_MockDaClient_DaClient20___max_bytes_per_blobNtB5_6Common15verify_sequence
FN:17,_RNvXs5_NtNtCs9tTyTyvkW6x_19da_client_interface28___mock_MockDaClient_DaClient20___max_bytes_per_blobNtB5_6CommonNtNtNtCsl82brYPINY5_4core3ops4drop4Drop4drop
FN:17,_RNvMs6_NtNtCs9tTyTyvkW6x_19da_client_interface28___mock_MockDaClient_DaClient20___max_bytes_per_blobNtB5_11Expectation4call
FN:17,_RINvMs6_NtNtCs9tTyTyvkW6x_19da_client_interface28___mock_MockDaClient_DaClient20___max_bytes_per_blobNtB6_11Expectation12return_constpEBa_
FN:17,_RNCINvMs6_NtNtCs9tTyTyvkW6x_19da_client_interface28___mock_MockDaClient_DaClient20___max_bytes_per_blobNtB8_11Expectation12return_constpE0Bc_
FN:17,_RINvMs6_NtNtCs9tTyTyvkW6x_19da_client_interface28___mock_MockDaClient_DaClient20___max_bytes_per_blobNtB6_11Expectation15return_const_stpEBa_
FN:17,_RNCINvMs6_NtNtCs9tTyTyvkW6x_19da_client_interface28___mock_MockDaClient_DaClient20___max_bytes_per_blobNtB8_11Expectation15return_const_stpE0Bc_
FN:17,_RINvMs6_NtNtCs9tTyTyvkW6x_19da_client_interface28___mock_MockDaClient_DaClient20___max_bytes_per_blobNtB6_11Expectation11return_oncepEBa_
FN:17,_RINvMs6_NtNtCs9tTyTyvkW6x_19da_client_interface28___mock_MockDaClient_DaClient20___max_bytes_per_blobNtB6_11Expectation14return_once_stpEBa_
FN:17,_RINvMs6_NtNtCs9tTyTyvkW6x_19da_client_interface28___mock_MockDaClient_DaClient20___max_bytes_per_blobNtB6_11Expectation9returningpEBa_
FN:17,_RINvMs6_NtNtCs9tTyTyvkW6x_19da_client_interface28___mock_MockDaClient_DaClient20___max_bytes_per_blobNtB6_11Expectation12returning_stpEBa_
FN:17,_RNvMs6_NtNtCs9tTyTyvkW6x_19da_client_interface28___mock_MockDaClient_DaClient20___max_bytes_per_blobNtB5_11Expectation11in_sequence
FN:17,_RNvMs6_NtNtCs9tTyTyvkW6x_19da_client_interface28___mock_MockDaClient_DaClient20___max_bytes_per_blobNtB5_11Expectation7is_done
FN:17,_RNvMs6_NtNtCs9tTyTyvkW6x_19da_client_interface28___mock_MockDaClient_DaClient20___max_bytes_per_blobNtB5_11Expectation7matches
FN:17,_RNvMs6_NtNtCs9tTyTyvkW6x_19da_client_interface28___mock_MockDaClient_DaClient20___max_bytes_per_blobNtB5_11Expectation5never
FN:17,_RNvMs6_NtNtCs9tTyTyvkW6x_19da_client_interface28___mock_MockDaClient_DaClient20___max_bytes_per_blobNtB5_11Expectation3new
FN:17,_RNvMs6_NtNtCs9tTyTyvkW6x_19da_client_interface28___mock_MockDaClient_DaClient20___max_bytes_per_blobNtB5_11Expectation4once
FN:17,_RINvMs6_NtNtCs9tTyTyvkW6x_19da_client_interface28___mock_MockDaClient_DaClient20___max_bytes_per_blobNtB6_11Expectation5timespEBa_
FN:17,_RNvMs6_NtNtCs9tTyTyvkW6x_19da_client_interface28___mock_MockDaClient_DaClient20___max_bytes_per_blobNtB5_11Expectation4with
FN:17,_RINvMs6_NtNtCs9tTyTyvkW6x_19da_client_interface28___mock_MockDaClient_DaClient20___max_bytes_per_blobNtB6_11Expectation5withfpEBa_
FN:17,_RINvMs6_NtNtCs9tTyTyvkW6x_19da_client_interface28___mock_MockDaClient_DaClient20___max_bytes_per_blobNtB6_11Expectation8withf_stpEBa_
FN:17,_RNvXs7_NtNtCs9tTyTyvkW6x_19da_client_interface28___mock_MockDaClient_DaClient20___max_bytes_per_blobNtB5_11ExpectationNtNtCsl82brYPINY5_4core7default7Default7default
FN:17,_RNvMs8_NtNtCs9tTyTyvkW6x_19da_client_interface28___mock_MockDaClient_DaClient20___max_bytes_per_blobNtB5_12Expectations10checkpoint
FN:17,_RNvMs8_NtNtCs9tTyTyvkW6x_19da_client_interface28___mock_MockDaClient_DaClient20___max_bytes_per_blobNtB5_12Expectations6expect
FN:17,_RNvMs8_NtNtCs9tTyTyvkW6x_19da_client_interface28___mock_MockDaClient_DaClient20___max_bytes_per_blobNtB5_12Expectations3new
FN:17,_RNvXs9_NtNtCs9tTyTyvkW6x_19da_client_interface28___mock_MockDaClient_DaClient20___max_bytes_per_blobNtB5_12ExpectationsNtNtCsl82brYPINY5_4core7default7Default7default
FN:17,_RNvMsa_NtNtCs9tTyTyvkW6x_19da_client_interface28___mock_MockDaClient_DaClient20___max_bytes_per_blobNtB5_12Expectations4call
FN:17,_RNCNvMsa_NtNtCs9tTyTyvkW6x_19da_client_interface28___mock_MockDaClient_DaClient20___max_bytes_per_blobNtB7_12Expectations4call0Bb_
FN:17,_RNCNvMsa_NtNtCs9tTyTyvkW6x_19da_client_interface28___mock_MockDaClient_DaClient20___max_bytes_per_blobNtB7_12Expectations4calls_0Bb_
FN:17,_RNvXs6_Cs9tTyTyvkW6x_19da_client_interfaceNtB5_21MockDaClient_DaClientNtNtCsl82brYPINY5_4core7default7Default7default
FN:17,_RNvMs7_Cs9tTyTyvkW6x_19da_client_interfaceNtB5_21MockDaClient_DaClient10checkpoint
FN:17,_RNvMs8_Cs9tTyTyvkW6x_19da_client_interfaceNtB5_12MockDaClient10checkpoint
FN:17,_RNvMs8_Cs9tTyTyvkW6x_19da_client_interfaceNtB5_12MockDaClient3new
FN:17,_RNvXsa_Cs9tTyTyvkW6x_19da_client_interfaceNtB5_12MockDaClientNtB5_8DaClient18publish_state_diff
FN:17,_RNCNvXsa_Cs9tTyTyvkW6x_19da_client_interfaceNtB7_12MockDaClientNtB7_8DaClient18publish_state_diff0B7_
FN:17,_RNvXsa_Cs9tTyTyvkW6x_19da_client_interfaceNtB5_12MockDaClientNtB5_8DaClient16verify_inclusion
FN:17,_RNCNvXsa_Cs9tTyTyvkW6x_19da_client_interfaceNtB7_12MockDaClientNtB7_8DaClient16verify_inclusion0B7_
FN:17,_RNvXsa_Cs9tTyTyvkW6x_19da_client_interfaceNtB5_12MockDaClientNtB5_8DaClient16max_blob_per_txn
FN:17,_RNCNvXsa_Cs9tTyTyvkW6x_19da_client_interfaceNtB7_12MockDaClientNtB7_8DaClient16max_blob_per_txn0B7_
FN:17,_RNvXsa_Cs9tTyTyvkW6x_19da_client_interfaceNtB5_12MockDaClientNtB5_8DaClient18max_bytes_per_blob
FN:17,_RNCNvXsa_Cs9tTyTyvkW6x_19da_client_interfaceNtB7_12MockDaClientNtB7_8DaClient18max_bytes_per_blob0B7_
FN:17,_RNvMs9_Cs9tTyTyvkW6x_19da_client_interfaceNtB5_12MockDaClient25expect_publish_state_diff
FN:17,_RNvMs9_Cs9tTyTyvkW6x_19da_client_interfaceNtB5_12MockDaClient23expect_verify_inclusion
FN:17,_RNvMs9_Cs9tTyTyvkW6x_19da_client_interfaceNtB5_12MockDaClient23expect_max_blob_per_txn
FN:17,_RNvMs9_Cs9tTyTyvkW6x_19da_client_interfaceNtB5_12MockDaClient25expect_max_bytes_per_blob
FN:17,_RINvMs6_NtNtCs9dA0Hzxrugg_19da_client_interface28___mock_MockDaClient_DaClient18___verify_inclusionNtB6_11Expectation5timesjECs9kcl9mimtFg_12orchestrator
FN:17,_RINvMs4_NtNtCs9dA0Hzxrugg_19da_client_interface28___mock_MockDaClient_DaClient18___verify_inclusionNtB6_6Common5timesjECs9kcl9mimtFg_12orchestrator
FN:17,_RINvMs6_NtNtCs9dA0Hzxrugg_19da_client_interface28___mock_MockDaClient_DaClient18___verify_inclusionNtB6_11Expectation9returningNCNCNvNCNvNtNtNtCs9kcl9mimtFg_12orchestrator5tests4jobs6da_jobs_15test_verify_job015test_verify_job00EB2h_
FN:17,_RINvMs6_NtNtCs9dA0Hzxrugg_19da_client_interface28___mock_MockDaClient_DaClient18___max_blob_per_txnNtB6_11Expectation5timesjECs9kcl9mimtFg_12orchestrator
FN:17,_RINvMs4_NtNtCs9dA0Hzxrugg_19da_client_interface28___mock_MockDaClient_DaClient18___max_blob_per_txnNtB6_6Common5timesjECs9kcl9mimtFg_12orchestrator
FN:17,_RINvMs6_NtNtCs9dA0Hzxrugg_19da_client_interface28___mock_MockDaClient_DaClient18___max_blob_per_txnNtB6_11Expectation9returningNCNCNvNCNvNtNtNtCs9kcl9mimtFg_12orchestrator5tests4jobs6da_jobs_16test_process_job016test_process_job0s0_0EB2h_
FN:17,_RINvMs6_NtNtCs9dA0Hzxrugg_19da_client_interface28___mock_MockDaClient_DaClient20___max_bytes_per_blobNtB6_11Expectation5timesjECs9kcl9mimtFg_12orchestrator
FN:17,_RINvMs4_NtNtCs9dA0Hzxrugg_19da_client_interface28___mock_MockDaClient_DaClient20___max_bytes_per_blobNtB6_6Common5timesjECs9kcl9mimtFg_12orchestrator
FN:17,_RINvMs6_NtNtCs9dA0Hzxrugg_19da_client_interface28___mock_MockDaClient_DaClient20___max_bytes_per_blobNtB6_11Expectation9returningNCNCNvNCNvNtNtNtCs9kcl9mimtFg_12orchestrator5tests4jobs6da_jobs_16test_process_job016test_process_job0s_0EB2j_
FN:17,_RINvMs6_NtNtCs9dA0Hzxrugg_19da_client_interface28___mock_MockDaClient_DaClient20___publish_state_diffNtB6_11Expectation5timesjECs9kcl9mimtFg_12orchestrator
FN:17,_RINvMs4_NtNtCs9dA0Hzxrugg_19da_client_interface28___mock_MockDaClient_DaClient20___publish_state_diffNtB6_6Common5timesjECs9kcl9mimtFg_12orchestrator
FN:17,_RINvMs6_NtNtCs9dA0Hzxrugg_19da_client_interface28___mock_MockDaClient_DaClient20___publish_state_diffNtB6_11Expectation9returningNCNCNvNCNvNtNtNtCs9kcl9mimtFg_12orchestrator5tests4jobs6da_jobs_16test_process_job016test_process_job00EB2j_
FN:17,_RNvMs8_Cs9dA0Hzxrugg_19da_client_interfaceNtB5_12MockDaClient3new
FN:17,_RNvXs5_Cs9dA0Hzxrugg_19da_client_interfaceNtB5_12MockDaClientNtNtCsl82brYPINY5_4core7default7Default7default
FN:17,_RNvXs6_Cs9dA0Hzxrugg_19da_client_interfaceNtB5_21MockDaClient_DaClientNtNtCsl82brYPINY5_4core7default7Default7default
FN:17,_RNvXs9_NtNtCs9dA0Hzxrugg_19da_client_interface28___mock_MockDaClient_DaClient20___publish_state_diffNtB5_12ExpectationsNtNtCsl82brYPINY5_4core7default7Default7default
FN:17,_RNvXs9_NtNtCs9dA0Hzxrugg_19da_client_interface28___mock_MockDaClient_DaClient18___verify_inclusionNtB5_12ExpectationsNtNtCsl82brYPINY5_4core7default7Default7default
FN:17,_RNvXs9_NtNtCs9dA0Hzxrugg_19da_client_interface28___mock_MockDaClient_DaClient18___max_blob_per_txnNtB5_12ExpectationsNtNtCsl82brYPINY5_4core7default7Default7default
FN:17,_RNvXs9_NtNtCs9dA0Hzxrugg_19da_client_interface28___mock_MockDaClient_DaClient20___max_bytes_per_blobNtB5_12ExpectationsNtNtCsl82brYPINY5_4core7default7Default7default
FN:17,_RNvXs4_Cs9dA0Hzxrugg_19da_client_interfaceNtB5_12MockDaClientNtNtCsl82brYPINY5_4core3fmt5Debug3fmt
FN:17,_RNvMs7_Cs9dA0Hzxrugg_19da_client_interfaceNtB5_21MockDaClient_DaClient10checkpoint
FN:17,_RNvMs8_Cs9dA0Hzxrugg_19da_client_interfaceNtB5_12MockDaClient10checkpoint
FN:17,_RNvMs9_Cs9dA0Hzxrugg_19da_client_interfaceNtB5_12MockDaClient25expect_publish_state_diff
FN:17,_RNvMs9_Cs9dA0Hzxrugg_19da_client_interfaceNtB5_12MockDaClient23expect_verify_inclusion
FN:17,_RNvMs9_Cs9dA0Hzxrugg_19da_client_interfaceNtB5_12MockDaClient23expect_max_blob_per_txn
FN:17,_RNvMs9_Cs9dA0Hzxrugg_19da_client_interfaceNtB5_12MockDaClient25expect_max_bytes_per_blob
FN:17,_RNvXsa_Cs9dA0Hzxrugg_19da_client_interfaceNtB5_12MockDaClientNtB5_8DaClient18publish_state_diff
FN:17,_RNCNvXsa_Cs9dA0Hzxrugg_19da_client_interfaceNtB7_12MockDaClientNtB7_8DaClient18publish_state_diff0B7_
FN:17,_RNvXsa_Cs9dA0Hzxrugg_19da_client_interfaceNtB5_12MockDaClientNtB5_8DaClient16verify_inclusion
FN:17,_RNCNvXsa_Cs9dA0Hzxrugg_19da_client_interfaceNtB7_12MockDaClientNtB7_8DaClient16verify_inclusion0B7_
FN:17,_RNvXsa_Cs9dA0Hzxrugg_19da_client_interfaceNtB5_12MockDaClientNtB5_8DaClient16max_blob_per_txn
FN:17,_RNCNvXsa_Cs9dA0Hzxrugg_19da_client_interfaceNtB7_12MockDaClientNtB7_8DaClient16max_blob_per_txn0B7_
FN:17,_RNvXsa_Cs9dA0Hzxrugg_19da_client_interfaceNtB5_12MockDaClientNtB5_8DaClient18max_bytes_per_blob
FN:17,_RNCNvXsa_Cs9dA0Hzxrugg_19da_client_interfaceNtB7_12MockDaClientNtB7_8DaClient18max_bytes_per_blob0B7_
FN:17,_RNvMNtNtCs9dA0Hzxrugg_19da_client_interface28___mock_MockDaClient_DaClient20___publish_state_diffNtB2_5Rfunc8call_mut
FN:17,_RNvMs0_NtNtCs9dA0Hzxrugg_19da_client_interface28___mock_MockDaClient_DaClient20___publish_state_diffNtB5_7Matcher7matches
FN:17,_RNCNvMs0_NtNtCs9dA0Hzxrugg_19da_client_interface28___mock_MockDaClient_DaClient20___publish_state_diffNtB7_7Matcher7matches0Bb_
FN:17,_RNvXs2_NtNtCs9dA0Hzxrugg_19da_client_interface28___mock_MockDaClient_DaClient20___publish_state_diffNtB5_7MatcherNtNtCsl82brYPINY5_4core3fmt7Display3fmt
FN:17,_RNvMs4_NtNtCs9dA0Hzxrugg_19da_client_interface28___mock_MockDaClient_DaClient20___publish_state_diffNtB5_6Common4call
FN:17,_RNvMs4_NtNtCs9dA0Hzxrugg_19da_client_interface28___mock_MockDaClient_DaClient20___publish_state_diffNtB5_6Common11in_sequence
FN:17,_RNvMs4_NtNtCs9dA0Hzxrugg_19da_client_interface28___mock_MockDaClient_DaClient20___publish_state_diffNtB5_6Common7is_done
FN:17,_RNvMs4_NtNtCs9dA0Hzxrugg_19da_client_interface28___mock_MockDaClient_DaClient20___publish_state_diffNtB5_6Common7matches
FN:17,_RNvMs4_NtNtCs9dA0Hzxrugg_19da_client_interface28___mock_MockDaClient_DaClient20___publish_state_diffNtB5_6Common16satisfy_sequence
FN:17,_RNvMs4_NtNtCs9dA0Hzxrugg_19da_client_interface28___mock_MockDaClient_DaClient20___publish_state_diffNtB5_6Common15verify_sequence
FN:17,_RNvXs5_NtNtCs9dA0Hzxrugg_19da_client_interface28___mock_MockDaClient_DaClient20___publish_state_diffNtB5_6CommonNtNtNtCsl82brYPINY5_4core3ops4drop4Drop4drop
FN:17,_RNvMs6_NtNtCs9dA0Hzxrugg_19da_client_interface28___mock_MockDaClient_DaClient20___publish_state_diffNtB5_11Expectation4call
FN:17,_RNvMs6_NtNtCs9dA0Hzxrugg_19da_client_interface28___mock_MockDaClient_DaClient20___publish_state_diffNtB5_11Expectation11in_sequence
FN:17,_RNvMs6_NtNtCs9dA0Hzxrugg_19da_client_interface28___mock_MockDaClient_DaClient20___publish_state_diffNtB5_11Expectation7is_done
FN:17,_RNvMs6_NtNtCs9dA0Hzxrugg_19da_client_interface28___mock_MockDaClient_DaClient20___publish_state_diffNtB5_11Expectation7matches
FN:17,_RNvMs6_NtNtCs9dA0Hzxrugg_19da_client_interface28___mock_MockDaClient_DaClient20___publish_state_diffNtB5_11Expectation3new
FN:17,_RNvMs6_NtNtCs9dA0Hzxrugg_19da_client_interface28___mock_MockDaClient_DaClient20___publish_state_diffNtB5_11Expectation4once
FN:17,_RINvMs6_NtNtCs9dA0Hzxrugg_19da_client_interface28___mock_MockDaClient_DaClient20___publish_state_diffNtB6_11Expectation5timesjEBa_
FN:17,_RINvMs4_NtNtCs9dA0Hzxrugg_19da_client_interface28___mock_MockDaClient_DaClient20___publish_state_diffNtB6_6Common5timesjEBa_
FN:17,_RNvXs7_NtNtCs9dA0Hzxrugg_19da_client_interface28___mock_MockDaClient_DaClient20___publish_state_diffNtB5_11ExpectationNtNtCsl82brYPINY5_4core7default7Default7default
FN:17,_RNvXs3_NtNtCs9dA0Hzxrugg_19da_client_interface28___mock_MockDaClient_DaClient20___publish_state_diffNtB5_6CommonNtNtCsl82brYPINY5_4core7default7Default7default
FN:17,_RNvXs1_NtNtCs9dA0Hzxrugg_19da_client_interface28___mock_MockDaClient_DaClient20___publish_state_diffNtB5_7MatcherNtNtCsl82brYPINY5_4core7default7Default7default
FN:17,_RNvXs_NtNtCs9dA0Hzxrugg_19da_client_interface28___mock_MockDaClient_DaClient20___publish_state_diffNtB4_5RfuncNtNtCsl82brYPINY5_4core7default7Default7default
FN:17,_RNvMs8_NtNtCs9dA0Hzxrugg_19da_client_interface28___mock_MockDaClient_DaClient20___publish_state_diffNtB5_12Expectations10checkpoint
FN:17,_RNvMs8_NtNtCs9dA0Hzxrugg_19da_client_interface28___mock_MockDaClient_DaClient20___publish_state_diffNtB5_12Expectations6expect
FN:17,_RNvMsa_NtNtCs9dA0Hzxrugg_19da_client_interface28___mock_MockDaClient_DaClient20___publish_state_diffNtB5_12Expectations4call
FN:17,_RNCNvMsa_NtNtCs9dA0Hzxrugg_19da_client_interface28___mock_MockDaClient_DaClient20___publish_state_diffNtB7_12Expectations4calls_0Bb_
FN:17,_RNCNvMsa_NtNtCs9dA0Hzxrugg_19da_client_interface28___mock_MockDaClient_DaClient20___publish_state_diffNtB7_12Expectations4call0Bb_
FN:17,_RNvMNtNtCs9dA0Hzxrugg_19da_client_interface28___mock_MockDaClient_DaClient18___max_blob_per_txnNtB2_5Rfunc8call_mut
FN:17,_RNvMs0_NtNtCs9dA0Hzxrugg_19da_client_interface28___mock_MockDaClient_DaClient18___max_blob_per_txnNtB5_7Matcher7matches
FN:17,_RNCNvMs0_NtNtCs9dA0Hzxrugg_19da_client_interface28___mock_MockDaClient_DaClient18___max_blob_per_txnNtB7_7Matcher7matches0Bb_
FN:17,_RNvXs2_NtNtCs9dA0Hzxrugg_19da_client_interface28___mock_MockDaClient_DaClient18___max_blob_per_txnNtB5_7MatcherNtNtCsl82brYPINY5_4core3fmt7Display3fmt
FN:17,_RNvMs4_NtNtCs9dA0Hzxrugg_19da_client_interface28___mock_MockDaClient_DaClient18___max_blob_per_txnNtB5_6Common4call
FN:17,_RNvMs4_NtNtCs9dA0Hzxrugg_19da_client_interface28___mock_MockDaClient_DaClient18___max_blob_per_txnNtB5_6Common11in_sequence
FN:17,_RNvMs4_NtNtCs9dA0Hzxrugg_19da_client_interface28___mock_MockDaClient_DaClient18___max_blob_per_txnNtB5_6Common7is_done
FN:17,_RNvMs4_NtNtCs9dA0Hzxrugg_19da_client_interface28___mock_MockDaClient_DaClient18___max_blob_per_txnNtB5_6Common7matches
FN:17,_RNvMs4_NtNtCs9dA0Hzxrugg_19da_client_interface28___mock_MockDaClient_DaClient18___max_blob_per_txnNtB5_6Common16satisfy_sequence
FN:17,_RNvMs4_NtNtCs9dA0Hzxrugg_19da_client_interface28___mock_MockDaClient_DaClient18___max_blob_per_txnNtB5_6Common4with
FN:17,_RNvMs4_NtNtCs9dA0Hzxrugg_19da_client_interface28___mock_MockDaClient_DaClient18___max_blob_per_txnNtB5_6Common15verify_sequence
FN:17,_RNvXs5_NtNtCs9dA0Hzxrugg_19da_client_interface28___mock_MockDaClient_DaClient18___max_blob_per_txnNtB5_6CommonNtNtNtCsl82brYPINY5_4core3ops4drop4Drop4drop
FN:17,_RNvMs6_NtNtCs9dA0Hzxrugg_19da_client_interface28___mock_MockDaClient_DaClient18___max_blob_per_txnNtB5_11Expectation4call
FN:17,_RNvMs6_NtNtCs9dA0Hzxrugg_19da_client_interface28___mock_MockDaClient_DaClient18___max_blob_per_txnNtB5_11Expectation11in_sequence
FN:17,_RNvMs6_NtNtCs9dA0Hzxrugg_19da_client_interface28___mock_MockDaClient_DaClient18___max_blob_per_txnNtB5_11Expectation7is_done
FN:17,_RNvMs6_NtNtCs9dA0Hzxrugg_19da_client_interface28___mock_MockDaClient_DaClient18___max_blob_per_txnNtB5_11Expectation7matches
FN:17,_RNvMs6_NtNtCs9dA0Hzxrugg_19da_client_interface28___mock_MockDaClient_DaClient18___max_blob_per_txnNtB5_11Expectation3new
FN:17,_RNvMs6_NtNtCs9dA0Hzxrugg_19da_client_interface28___mock_MockDaClient_DaClient18___max_blob_per_txnNtB5_11Expectation4once
FN:17,_RINvMs6_NtNtCs9dA0Hzxrugg_19da_client_interface28___mock_MockDaClient_DaClient18___max_blob_per_txnNtB6_11Expectation5timesjEBa_
FN:17,_RINvMs4_NtNtCs9dA0Hzxrugg_19da_client_interface28___mock_MockDaClient_DaClient18___max_blob_per_txnNtB6_6Common5timesjEBa_
FN:17,_RNvMs6_NtNtCs9dA0Hzxrugg_19da_client_interface28___mock_MockDaClient_DaClient18___max_blob_per_txnNtB5_11Expectation4with
FN:17,_RNvXs7_NtNtCs9dA0Hzxrugg_19da_client_interface28___mock_MockDaClient_DaClient18___max_blob_per_txnNtB5_11ExpectationNtNtCsl82brYPINY5_4core7default7Default7default
FN:17,_RNvXs3_NtNtCs9dA0Hzxrugg_19da_client_interface28___mock_MockDaClient_DaClient18___max_blob_per_txnNtB5_6CommonNtNtCsl82brYPINY5_4core7default7Default7default
FN:17,_RNvXs1_NtNtCs9dA0Hzxrugg_19da_client_interface28___mock_MockDaClient_DaClient18___max_blob_per_txnNtB5_7MatcherNtNtCsl82brYPINY5_4core7default7Default7default
FN:17,_RNvXs_NtNtCs9dA0Hzxrugg_19da_client_interface28___mock_MockDaClient_DaClient18___max_blob_per_txnNtB4_5RfuncNtNtCsl82brYPINY5_4core7default7Default7default
FN:17,_RNvMs8_NtNtCs9dA0Hzxrugg_19da_client_interface28___mock_MockDaClient_DaClient18___max_blob_per_txnNtB5_12Expectations10checkpoint
FN:17,_RNvMs8_NtNtCs9dA0Hzxrugg_19da_client_interface28___mock_MockDaClient_DaClient18___max_blob_per_txnNtB5_12Expectations6expect
FN:17,_RNvMsa_NtNtCs9dA0Hzxrugg_19da_client_interface28___mock_MockDaClient_DaClient18___max_blob_per_txnNtB5_12Expectations4call
FN:17,_RNCNvMsa_NtNtCs9dA0Hzxrugg_19da_client_interface28___mock_MockDaClient_DaClient18___max_blob_per_txnNtB7_12Expectations4calls_0Bb_
FN:17,_RNCNvMsa_NtNtCs9dA0Hzxrugg_19da_client_interface28___mock_MockDaClient_DaClient18___max_blob_per_txnNtB7_12Expectations4call0Bb_
FN:17,_RNvMNtNtCs9dA0Hzxrugg_19da_client_interface28___mock_MockDaClient_DaClient20___max_bytes_per_blobNtB2_5Rfunc8call_mut
FN:17,_RNvMs0_NtNtCs9dA0Hzxrugg_19da_client_interface28___mock_MockDaClient_DaClient20___max_bytes_per_blobNtB5_7Matcher7matches
FN:17,_RNCNvMs0_NtNtCs9dA0Hzxrugg_19da_client_interface28___mock_MockDaClient_DaClient20___max_bytes_per_blobNtB7_7Matcher7matches0Bb_
FN:17,_RNvXs2_NtNtCs9dA0Hzxrugg_19da_client_interface28___mock_MockDaClient_DaClient20___max_bytes_per_blobNtB5_7MatcherNtNtCsl82brYPINY5_4core3fmt7Display3fmt
FN:17,_RNvMs4_NtNtCs9dA0Hzxrugg_19da_client_interface28___mock_MockDaClient_DaClient20___max_bytes_per_blobNtB5_6Common4call
FN:17,_RNvMs4_NtNtCs9dA0Hzxrugg_19da_client_interface28___mock_MockDaClient_DaClient20___max_bytes_per_blobNtB5_6Common11in_sequence
FN:17,_RNvMs4_NtNtCs9dA0Hzxrugg_19da_client_interface28___mock_MockDaClient_DaClient20___max_bytes_per_blobNtB5_6Common7is_done
FN:17,_RNvMs4_NtNtCs9dA0Hzxrugg_19da_client_interface28___mock_MockDaClient_DaClient20___max_bytes_per_blobNtB5_6Common7matches
FN:17,_RNvMs4_NtNtCs9dA0Hzxrugg_19da_client_interface28___mock_MockDaClient_DaClient20___max_bytes_per_blobNtB5_6Common16satisfy_sequence
FN:17,_RNvMs4_NtNtCs9dA0Hzxrugg_19da_client_interface28___mock_MockDaClient_DaClient20___max_bytes_per_blobNtB5_6Common4with
FN:17,_RNvMs4_NtNtCs9dA0Hzxrugg_19da_client_interface28___mock_MockDaClient_DaClient20___max_bytes_per_blobNtB5_6Common15verify_sequence
FN:17,_RNvXs5_NtNtCs9dA0Hzxrugg_19da_client_interface28___mock_MockDaClient_DaClient20___max_bytes_per_blobNtB5_6CommonNtNtNtCsl82brYPINY5_4core3ops4drop4Drop4drop
FN:17,_RNvMs6_NtNtCs9dA0Hzxrugg_19da_client_interface28___mock_MockDaClient_DaClient20___max_bytes_per_blobNtB5_11Expectation4call
FN:17,_RNvMs6_NtNtCs9dA0Hzxrugg_19da_client_interface28___mock_MockDaClient_DaClient20___max_bytes_per_blobNtB5_11Expectation11in_sequence
FN:17,_RNvMs6_NtNtCs9dA0Hzxrugg_19da_client_interface28___mock_MockDaClient_DaClient20___max_bytes_per_blobNtB5_11Expectation7is_done
FN:17,_RNvMs6_NtNtCs9dA0Hzxrugg_19da_client_interface28___mock_MockDaClient_DaClient20___max_bytes_per_blobNtB5_11Expectation7matches
FN:17,_RNvMs6_NtNtCs9dA0Hzxrugg_19da_client_interface28___mock_MockDaClient_DaClient20___max_bytes_per_blobNtB5_11Expectation3new
FN:17,_RNvMs6_NtNtCs9dA0Hzxrugg_19da_client_interface28___mock_MockDaClient_DaClient20___max_bytes_per_blobNtB5_11Expectation4once
FN:17,_RINvMs6_NtNtCs9dA0Hzxrugg_19da_client_interface28___mock_MockDaClient_DaClient20___max_bytes_per_blobNtB6_11Expectation5timesjEBa_
FN:17,_RINvMs4_NtNtCs9dA0Hzxrugg_19da_client_interface28___mock_MockDaClient_DaClient20___max_bytes_per_blobNtB6_6Common5timesjEBa_
FN:17,_RNvMs6_NtNtCs9dA0Hzxrugg_19da_client_interface28___mock_MockDaClient_DaClient20___max_bytes_per_blobNtB5_11Expectation4with
FN:17,_RNvXs7_NtNtCs9dA0Hzxrugg_19da_client_interface28___mock_MockDaClient_DaClient20___max_bytes_per_blobNtB5_11ExpectationNtNtCsl82brYPINY5_4core7default7Default7default
FN:17,_RNvXs3_NtNtCs9dA0Hzxrugg_19da_client_interface28___mock_MockDaClient_DaClient20___max_bytes_per_blobNtB5_6CommonNtNtCsl82brYPINY5_4core7default7Default7default
FN:17,_RNvXs1_NtNtCs9dA0Hzxrugg_19da_client_interface28___mock_MockDaClient_DaClient20___max_bytes_per_blobNtB5_7MatcherNtNtCsl82brYPINY5_4core7default7Default7default
FN:17,_RNvXs_NtNtCs9dA0Hzxrugg_19da_client_interface28___mock_MockDaClient_DaClient20___max_bytes_per_blobNtB4_5RfuncNtNtCsl82brYPINY5_4core7default7Default7default
FN:17,_RNvMs8_NtNtCs9dA0Hzxrugg_19da_client_interface28___mock_MockDaClient_DaClient20___max_bytes_per_blobNtB5_12Expectations10checkpoint
FN:17,_RNvMs8_NtNtCs9dA0Hzxrugg_19da_client_interface28___mock_MockDaClient_DaClient20___max_bytes_per_blobNtB5_12Expectations6expect
FN:17,_RNvMsa_NtNtCs9dA0Hzxrugg_19da_client_interface28___mock_MockDaClient_DaClient20___max_bytes_per_blobNtB5_12Expectations4call
FN:17,_RNCNvMsa_NtNtCs9dA0Hzxrugg_19da_client_interface28___mock_MockDaClient_DaClient20___max_bytes_per_blobNtB7_12Expectations4calls_0Bb_
FN:17,_RNCNvMsa_NtNtCs9dA0Hzxrugg_19da_client_interface28___mock_MockDaClient_DaClient20___max_bytes_per_blobNtB7_12Expectations4call0Bb_
FN:17,_RNvMNtNtCs9dA0Hzxrugg_19da_client_interface28___mock_MockDaClient_DaClient18___verify_inclusionNtB2_5Rfunc8call_mut
FN:17,_RNvMs0_NtNtCs9dA0Hzxrugg_19da_client_interface28___mock_MockDaClient_DaClient18___verify_inclusionNtB5_7Matcher7matches
FN:17,_RNCNvMs0_NtNtCs9dA0Hzxrugg_19da_client_interface28___mock_MockDaClient_DaClient18___verify_inclusionNtB7_7Matcher7matches0Bb_
FN:17,_RNvXs2_NtNtCs9dA0Hzxrugg_19da_client_interface28___mock_MockDaClient_DaClient18___verify_inclusionNtB5_7MatcherNtNtCsl82brYPINY5_4core3fmt7Display3fmt
FN:17,_RNvMs4_NtNtCs9dA0Hzxrugg_19da_client_interface28___mock_MockDaClient_DaClient18___verify_inclusionNtB5_6Common4call
FN:17,_RNvMs4_NtNtCs9dA0Hzxrugg_19da_client_interface28___mock_MockDaClient_DaClient18___verify_inclusionNtB5_6Common11in_sequence
FN:17,_RNvMs4_NtNtCs9dA0Hzxrugg_19da_client_interface28___mock_MockDaClient_DaClient18___verify_inclusionNtB5_6Common7is_done
FN:17,_RNvMs4_NtNtCs9dA0Hzxrugg_19da_client_interface28___mock_MockDaClient_DaClient18___verify_inclusionNtB5_6Common7matches
FN:17,_RNvMs4_NtNtCs9dA0Hzxrugg_19da_client_interface28___mock_MockDaClient_DaClient18___verify_inclusionNtB5_6Common16satisfy_sequence
FN:17,_RNvMs4_NtNtCs9dA0Hzxrugg_19da_client_interface28___mock_MockDaClient_DaClient18___verify_inclusionNtB5_6Common15verify_sequence
FN:17,_RNvXs5_NtNtCs9dA0Hzxrugg_19da_client_interface28___mock_MockDaClient_DaClient18___verify_inclusionNtB5_6CommonNtNtNtCsl82brYPINY5_4core3ops4drop4Drop4drop
FN:17,_RNvMs6_NtNtCs9dA0Hzxrugg_19da_client_interface28___mock_MockDaClient_DaClient18___verify_inclusionNtB5_11Expectation4call
FN:17,_RNvMs6_NtNtCs9dA0Hzxrugg_19da_client_interface28___mock_MockDaClient_DaClient18___verify_inclusionNtB5_11Expectation11in_sequence
FN:17,_RNvMs6_NtNtCs9dA0Hzxrugg_19da_client_interface28___mock_MockDaClient_DaClient18___verify_inclusionNtB5_11Expectation7is_done
FN:17,_RNvMs6_NtNtCs9dA0Hzxrugg_19da_client_interface28___mock_MockDaClient_DaClient18___verify_inclusionNtB5_11Expectation7matches
FN:17,_RNvMs6_NtNtCs9dA0Hzxrugg_19da_client_interface28___mock_MockDaClient_DaClient18___verify_inclusionNtB5_11Expectation3new
FN:17,_RNvMs6_NtNtCs9dA0Hzxrugg_19da_client_interface28___mock_MockDaClient_DaClient18___verify_inclusionNtB5_11Expectation4once
FN:17,_RINvMs6_NtNtCs9dA0Hzxrugg_19da_client_interface28___mock_MockDaClient_DaClient18___verify_inclusionNtB6_11Expectation5timesjEBa_
FN:17,_RINvMs4_NtNtCs9dA0Hzxrugg_19da_client_interface28___mock_MockDaClient_DaClient18___verify_inclusionNtB6_6Common5timesjEBa_
FN:17,_RNvXs7_NtNtCs9dA0Hzxrugg_19da_client_interface28___mock_MockDaClient_DaClient18___verify_inclusionNtB5_11ExpectationNtNtCsl82brYPINY5_4core7default7Default7default
FN:17,_RNvXs3_NtNtCs9dA0Hzxrugg_19da_client_interface28___mock_MockDaClient_DaClient18___verify_inclusionNtB5_6CommonNtNtCsl82brYPINY5_4core7default7Default7default
FN:17,_RNvXs1_NtNtCs9dA0Hzxrugg_19da_client_interface28___mock_MockDaClient_DaClient18___verify_inclusionNtB5_7MatcherNtNtCsl82brYPINY5_4core7default7Default7default
FN:17,_RNvXs_NtNtCs9dA0Hzxrugg_19da_client_interface28___mock_MockDaClient_DaClient18___verify_inclusionNtB4_5RfuncNtNtCsl82brYPINY5_4core7default7Default7default
FN:17,_RNvMs8_NtNtCs9dA0Hzxrugg_19da_client_interface28___mock_MockDaClient_DaClient18___verify_inclusionNtB5_12Expectations10checkpoint
FN:17,_RNvMs8_NtNtCs9dA0Hzxrugg_19da_client_interface28___mock_MockDaClient_DaClient18___verify_inclusionNtB5_12Expectations6expect
FN:17,_RNvMsa_NtNtCs9dA0Hzxrugg_19da_client_interface28___mock_MockDaClient_DaClient18___verify_inclusionNtB5_12Expectations4call
FN:17,_RNCNvMsa_NtNtCs9dA0Hzxrugg_19da_client_interface28___mock_MockDaClient_DaClient18___verify_inclusionNtB7_12Expectations4calls_0Bb_
FN:17,_RNCNvMsa_NtNtCs9dA0Hzxrugg_19da_client_interface28___mock_MockDaClient_DaClient18___verify_inclusionNtB7_12Expectations4call0Bb_
FN:17,_RNvMs4_NtNtCs9dA0Hzxrugg_19da_client_interface28___mock_MockDaClient_DaClient20___publish_state_diffNtB5_6Common5never
FN:17,_RINvMs4_NtNtCs9dA0Hzxrugg_19da_client_interface28___mock_MockDaClient_DaClient20___publish_state_diffNtB6_6Common4withppEBa_
FN:17,_RINvMs4_NtNtCs9dA0Hzxrugg_19da_client_interface28___mock_MockDaClient_DaClient20___publish_state_diffNtB6_6Common5withfpEBa_
FN:17,_RINvMs4_NtNtCs9dA0Hzxrugg_19da_client_interface28___mock_MockDaClient_DaClient20___publish_state_diffNtB6_6Common8withf_stpEBa_
FN:17,_RINvMs6_NtNtCs9dA0Hzxrugg_19da_client_interface28___mock_MockDaClient_DaClient20___publish_state_diffNtB6_11Expectation12return_constpEBa_
FN:17,_RNCINvMs6_NtNtCs9dA0Hzxrugg_19da_client_interface28___mock_MockDaClient_DaClient20___publish_state_diffNtB8_11Expectation12return_constpE0Bc_
FN:17,_RINvMs6_NtNtCs9dA0Hzxrugg_19da_client_interface28___mock_MockDaClient_DaClient20___publish_state_diffNtB6_11Expectation15return_const_stpEBa_
FN:17,_RNCINvMs6_NtNtCs9dA0Hzxrugg_19da_client_interface28___mock_MockDaClient_DaClient20___publish_state_diffNtB8_11Expectation15return_const_stpE0Bc_
FN:17,_RINvMs6_NtNtCs9dA0Hzxrugg_19da_client_interface28___mock_MockDaClient_DaClient20___publish_state_diffNtB6_11Expectation11return_oncepEBa_
FN:17,_RINvMs6_NtNtCs9dA0Hzxrugg_19da_client_interface28___mock_MockDaClient_DaClient20___publish_state_diffNtB6_11Expectation14return_once_stpEBa_
FN:17,_RINvMs6_NtNtCs9dA0Hzxrugg_19da_client_interface28___mock_MockDaClient_DaClient20___publish_state_diffNtB6_11Expectation9returningpEBa_
FN:17,_RINvMs6_NtNtCs9dA0Hzxrugg_19da_client_interface28___mock_MockDaClient_DaClient20___publish_state_diffNtB6_11Expectation12returning_stpEBa_
FN:17,_RNvMs6_NtNtCs9dA0Hzxrugg_19da_client_interface28___mock_MockDaClient_DaClient20___publish_state_diffNtB5_11Expectation5never
FN:17,_RINvMs6_NtNtCs9dA0Hzxrugg_19da_client_interface28___mock_MockDaClient_DaClient20___publish_state_diffNtB6_11Expectation4withppEBa_
FN:17,_RINvMs6_NtNtCs9dA0Hzxrugg_19da_client_interface28___mock_MockDaClient_DaClient20___publish_state_diffNtB6_11Expectation5withfpEBa_
FN:17,_RINvMs6_NtNtCs9dA0Hzxrugg_19da_client_interface28___mock_MockDaClient_DaClient20___publish_state_diffNtB6_11Expectation8withf_stpEBa_
FN:17,_RNvMs8_NtNtCs9dA0Hzxrugg_19da_client_interface28___mock_MockDaClient_DaClient20___publish_state_diffNtB5_12Expectations3new
FN:17,_RNvMs4_NtNtCs9dA0Hzxrugg_19da_client_interface28___mock_MockDaClient_DaClient18___verify_inclusionNtB5_6Common5never
FN:17,_RINvMs4_NtNtCs9dA0Hzxrugg_19da_client_interface28___mock_MockDaClient_DaClient18___verify_inclusionNtB6_6Common4withpEBa_
FN:17,_RINvMs4_NtNtCs9dA0Hzxrugg_19da_client_interface28___mock_MockDaClient_DaClient18___verify_inclusionNtB6_6Common5withfpEBa_
FN:17,_RINvMs4_NtNtCs9dA0Hzxrugg_19da_client_interface28___mock_MockDaClient_DaClient18___verify_inclusionNtB6_6Common8withf_stpEBa_
FN:17,_RINvMs6_NtNtCs9dA0Hzxrugg_19da_client_interface28___mock_MockDaClient_DaClient18___verify_inclusionNtB6_11Expectation12return_constpEBa_
FN:17,_RNCINvMs6_NtNtCs9dA0Hzxrugg_19da_client_interface28___mock_MockDaClient_DaClient18___verify_inclusionNtB8_11Expectation12return_constpE0Bc_
FN:17,_RINvMs6_NtNtCs9dA0Hzxrugg_19da_client_interface28___mock_MockDaClient_DaClient18___verify_inclusionNtB6_11Expectation15return_const_stpEBa_
FN:17,_RNCINvMs6_NtNtCs9dA0Hzxrugg_19da_client_interface28___mock_MockDaClient_DaClient18___verify_inclusionNtB8_11Expectation15return_const_stpE0Bc_
FN:17,_RINvMs6_NtNtCs9dA0Hzxrugg_19da_client_interface28___mock_MockDaClient_DaClient18___verify_inclusionNtB6_11Expectation11return_oncepEBa_
FN:17,_RINvMs6_NtNtCs9dA0Hzxrugg_19da_client_interface28___mock_MockDaClient_DaClient18___verify_inclusionNtB6_11Expectation14return_once_stpEBa_
FN:17,_RINvMs6_NtNtCs9dA0Hzxrugg_19da_client_interface28___mock_MockDaClient_DaClient18___verify_inclusionNtB6_11Expectation9returningpEBa_
FN:17,_RINvMs6_NtNtCs9dA0Hzxrugg_19da_client_interface28___mock_MockDaClient_DaClient18___verify_inclusionNtB6_11Expectation12returning_stpEBa_
FN:17,_RNvMs6_NtNtCs9dA0Hzxrugg_19da_client_interface28___mock_MockDaClient_DaClient18___verify_inclusionNtB5_11Expectation5never
FN:17,_RINvMs6_NtNtCs9dA0Hzxrugg_19da_client_interface28___mock_MockDaClient_DaClient18___verify_inclusionNtB6_11Expectation4withpEBa_
FN:17,_RINvMs6_NtNtCs9dA0Hzxrugg_19da_client_interface28___mock_MockDaClient_DaClient18___verify_inclusionNtB6_11Expectation5withfpEBa_
FN:17,_RINvMs6_NtNtCs9dA0Hzxrugg_19da_client_interface28___mock_MockDaClient_DaClient18___verify_inclusionNtB6_11Expectation8withf_stpEBa_
FN:17,_RNvMs8_NtNtCs9dA0Hzxrugg_19da_client_interface28___mock_MockDaClient_DaClient18___verify_inclusionNtB5_12Expectations3new
FN:17,_RNvMs4_NtNtCs9dA0Hzxrugg_19da_client_interface28___mock_MockDaClient_DaClient18___max_blob_per_txnNtB5_6Common5never
FN:17,_RINvMs4_NtNtCs9dA0Hzxrugg_19da_client_interface28___mock_MockDaClient_DaClient18___max_blob_per_txnNtB6_6Common5withfpEBa_
FN:17,_RINvMs4_NtNtCs9dA0Hzxrugg_19da_client_interface28___mock_MockDaClient_DaClient18___max_blob_per_txnNtB6_6Common8withf_stpEBa_
FN:17,_RINvMs6_NtNtCs9dA0Hzxrugg_19da_client_interface28___mock_MockDaClient_DaClient18___max_blob_per_txnNtB6_11Expectation12return_constpEBa_
FN:17,_RNCINvMs6_NtNtCs9dA0Hzxrugg_19da_client_interface28___mock_MockDaClient_DaClient18___max_blob_per_txnNtB8_11Expectation12return_constpE0Bc_
FN:17,_RINvMs6_NtNtCs9dA0Hzxrugg_19da_client_interface28___mock_MockDaClient_DaClient18___max_blob_per_txnNtB6_11Expectation15return_const_stpEBa_
FN:17,_RNCINvMs6_NtNtCs9dA0Hzxrugg_19da_client_interface28___mock_MockDaClient_DaClient18___max_blob_per_txnNtB8_11Expectation15return_const_stpE0Bc_
FN:17,_RINvMs6_NtNtCs9dA0Hzxrugg_19da_client_interface28___mock_MockDaClient_DaClient18___max_blob_per_txnNtB6_11Expectation11return_oncepEBa_
FN:17,_RINvMs6_NtNtCs9dA0Hzxrugg_19da_client_interface28___mock_MockDaClient_DaClient18___max_blob_per_txnNtB6_11Expectation14return_once_stpEBa_
FN:17,_RINvMs6_NtNtCs9dA0Hzxrugg_19da_client_interface28___mock_MockDaClient_DaClient18___max_blob_per_txnNtB6_11Expectation9returningpEBa_
FN:17,_RINvMs6_NtNtCs9dA0Hzxrugg_19da_client_interface28___mock_MockDaClient_DaClient18___max_blob_per_txnNtB6_11Expectation12returning_stpEBa_
FN:17,_RNvMs6_NtNtCs9dA0Hzxrugg_19da_client_interface28___mock_MockDaClient_DaClient18___max_blob_per_txnNtB5_11Expectation5never
FN:17,_RINvMs6_NtNtCs9dA0Hzxrugg_19da_client_interface28___mock_MockDaClient_DaClient18___max_blob_per_txnNtB6_11Expectation5withfpEBa_
FN:17,_RINvMs6_NtNtCs9dA0Hzxrugg_19da_client_interface28___mock_MockDaClient_DaClient18___max_blob_per_txnNtB6_11Expectation8withf_stpEBa_
FN:17,_RNvMs8_NtNtCs9dA0Hzxrugg_19da_client_interface28___mock_MockDaClient_DaClient18___max_blob_per_txnNtB5_12Expectations3new
FN:17,_RNvMs4_NtNtCs9dA0Hzxrugg_19da_client_interface28___mock_MockDaClient_DaClient20___max_bytes_per_blobNtB5_6Common5never
FN:17,_RINvMs4_NtNtCs9dA0Hzxrugg_19da_client_interface28___mock_MockDaClient_DaClient20___max_bytes_per_blobNtB6_6Common5withfpEBa_
FN:17,_RINvMs4_NtNtCs9dA0Hzxrugg_19da_client_interface28___mock_MockDaClient_DaClient20___max_bytes_per_blobNtB6_6Common8withf_stpEBa_
FN:17,_RINvMs6_NtNtCs9dA0Hzxrugg_19da_client_interface28___mock_MockDaClient_DaClient20___max_bytes_per_blobNtB6_11Expectation12return_constpEBa_
FN:17,_RNCINvMs6_NtNtCs9dA0Hzxrugg_19da_client_interface28___mock_MockDaClient_DaClient20___max_bytes_per_blobNtB8_11Expectation12return_constpE0Bc_
FN:17,_RINvMs6_NtNtCs9dA0Hzxrugg_19da_client_interface28___mock_MockDaClient_DaClient20___max_bytes_per_blobNtB6_11Expectation15return_const_stpEBa_
FN:17,_RNCINvMs6_NtNtCs9dA0Hzxrugg_19da_client_interface28___mock_MockDaClient_DaClient20___max_bytes_per_blobNtB8_11Expectation15return_const_stpE0Bc_
FN:17,_RINvMs6_NtNtCs9dA0Hzxrugg_19da_client_interface28___mock_MockDaClient_DaClient20___max_bytes_per_blobNtB6_11Expectation11return_oncepEBa_
FN:17,_RINvMs6_NtNtCs9dA0Hzxrugg_19da_client_interface28___mock_MockDaClient_DaClient20___max_bytes_per_blobNtB6_11Expectation14return_once_stpEBa_
FN:17,_RINvMs6_NtNtCs9dA0Hzxrugg_19da_client_interface28___mock_MockDaClient_DaClient20___max_bytes_per_blobNtB6_11Expectation9returningpEBa_
FN:17,_RINvMs6_NtNtCs9dA0Hzxrugg_19da_client_interface28___mock_MockDaClient_DaClient20___max_bytes_per_blobNtB6_11Expectation12returning_stpEBa_
FN:17,_RNvMs6_NtNtCs9dA0Hzxrugg_19da_client_interface28___mock_MockDaClient_DaClient20___max_bytes_per_blobNtB5_11Expectation5never
FN:17,_RINvMs6_NtNtCs9dA0Hzxrugg_19da_client_interface28___mock_MockDaClient_DaClient20___max_bytes_per_blobNtB6_11Expectation5withfpEBa_
FN:17,_RINvMs6_NtNtCs9dA0Hzxrugg_19da_client_interface28___mock_MockDaClient_DaClient20___max_bytes_per_blobNtB6_11Expectation8withf_stpEBa_
FN:17,_RNvMs8_NtNtCs9dA0Hzxrugg_19da_client_interface28___mock_MockDaClient_DaClient20___max_bytes_per_blobNtB5_12Expectations3new
FNDA:0,_RNvXs4_Cs9tTyTyvkW6x_19da_client_interfaceNtB5_12MockDaClientNtNtCsl82brYPINY5_4core3fmt5Debug3fmt
FNDA:0,_RNvXs5_Cs9tTyTyvkW6x_19da_client_interfaceNtB5_12MockDaClientNtNtCsl82brYPINY5_4core7default7Default7default
FNDA:0,_RNvMNtNtCs9tTyTyvkW6x_19da_client_interface28___mock_MockDaClient_DaClient20___publish_state_diffNtB2_5Rfunc8call_mut
FNDA:0,_RNvXs_NtNtCs9tTyTyvkW6x_19da_client_interface28___mock_MockDaClient_DaClient20___publish_state_diffNtB4_5RfuncNtNtCsl82brYPINY5_4core7default7Default7default
FNDA:0,_RNvMs0_NtNtCs9tTyTyvkW6x_19da_client_interface28___mock_MockDaClient_DaClient20___publish_state_diffNtB5_7Matcher7matches
FNDA:0,_RNCNvMs0_NtNtCs9tTyTyvkW6x_19da_client_interface28___mock_MockDaClient_DaClient20___publish_state_diffNtB7_7Matcher7matches0Bb_
FNDA:0,_RNvXs1_NtNtCs9tTyTyvkW6x_19da_client_interface28___mock_MockDaClient_DaClient20___publish_state_diffNtB5_7MatcherNtNtCsl82brYPINY5_4core7default7Default7default
FNDA:0,_RNvXs2_NtNtCs9tTyTyvkW6x_19da_client_interface28___mock_MockDaClient_DaClient20___publish_state_diffNtB5_7MatcherNtNtCsl82brYPINY5_4core3fmt7Display3fmt
FNDA:0,_RNvXs3_NtNtCs9tTyTyvkW6x_19da_client_interface28___mock_MockDaClient_DaClient20___publish_state_diffNtB5_6CommonNtNtCsl82brYPINY5_4core7default7Default7default
FNDA:0,_RNvMs4_NtNtCs9tTyTyvkW6x_19da_client_interface28___mock_MockDaClient_DaClient20___publish_state_diffNtB5_6Common4call
FNDA:0,_RNvMs4_NtNtCs9tTyTyvkW6x_19da_client_interface28___mock_MockDaClient_DaClient20___publish_state_diffNtB5_6Common11in_sequence
FNDA:0,_RNvMs4_NtNtCs9tTyTyvkW6x_19da_client_interface28___mock_MockDaClient_DaClient20___publish_state_diffNtB5_6Common7is_done
FNDA:0,_RNvMs4_NtNtCs9tTyTyvkW6x_19da_client_interface28___mock_MockDaClient_DaClient20___publish_state_diffNtB5_6Common7matches
FNDA:0,_RNvMs4_NtNtCs9tTyTyvkW6x_19da_client_interface28___mock_MockDaClient_DaClient20___publish_state_diffNtB5_6Common5never
FNDA:0,_RNvMs4_NtNtCs9tTyTyvkW6x_19da_client_interface28___mock_MockDaClient_DaClient20___publish_state_diffNtB5_6Common16satisfy_sequence
FNDA:0,_RINvMs4_NtNtCs9tTyTyvkW6x_19da_client_interface28___mock_MockDaClient_DaClient20___publish_state_diffNtB6_6Common5timespEBa_
FNDA:0,_RINvMs4_NtNtCs9tTyTyvkW6x_19da_client_interface28___mock_MockDaClient_DaClient20___publish_state_diffNtB6_6Common4withppEBa_
FNDA:0,_RINvMs4_NtNtCs9tTyTyvkW6x_19da_client_interface28___mock_MockDaClient_DaClient20___publish_state_diffNtB6_6Common5withfpEBa_
FNDA:0,_RINvMs4_NtNtCs9tTyTyvkW6x_19da_client_interface28___mock_MockDaClient_DaClient20___publish_state_diffNtB6_6Common8withf_stpEBa_
FNDA:0,_RNvMs4_NtNtCs9tTyTyvkW6x_19da_client_interface28___mock_MockDaClient_DaClient20___publish_state_diffNtB5_6Common15verify_sequence
FNDA:0,_RNvXs5_NtNtCs9tTyTyvkW6x_19da_client_interface28___mock_MockDaClient_DaClient20___publish_state_diffNtB5_6CommonNtNtNtCsl82brYPINY5_4core3ops4drop4Drop4drop
FNDA:0,_RNvMs6_NtNtCs9tTyTyvkW6x_19da_client_interface28___mock_MockDaClient_DaClient20___publish_state_diffNtB5_11Expectation4call
FNDA:0,_RINvMs6_NtNtCs9tTyTyvkW6x_19da_client_interface28___mock_MockDaClient_DaClient20___publish_state_diffNtB6_11Expectation12return_constpEBa_
FNDA:0,_RNCINvMs6_NtNtCs9tTyTyvkW6x_19da_client_interface28___mock_MockDaClient_DaClient20___publish_state_diffNtB8_11Expectation12return_constpE0Bc_
FNDA:0,_RINvMs6_NtNtCs9tTyTyvkW6x_19da_client_interface28___mock_MockDaClient_DaClient20___publish_state_diffNtB6_11Expectation15return_const_stpEBa_
FNDA:0,_RNCINvMs6_NtNtCs9tTyTyvkW6x_19da_client_interface28___mock_MockDaClient_DaClient20___publish_state_diffNtB8_11Expectation15return_const_stpE0Bc_
FNDA:0,_RINvMs6_NtNtCs9tTyTyvkW6x_19da_client_interface28___mock_MockDaClient_DaClient20___publish_state_diffNtB6_11Expectation11return_oncepEBa_
FNDA:0,_RINvMs6_NtNtCs9tTyTyvkW6x_19da_client_interface28___mock_MockDaClient_DaClient20___publish_state_diffNtB6_11Expectation14return_once_stpEBa_
FNDA:0,_RINvMs6_NtNtCs9tTyTyvkW6x_19da_client_interface28___mock_MockDaClient_DaClient20___publish_state_diffNtB6_11Expectation9returningpEBa_
FNDA:0,_RINvMs6_NtNtCs9tTyTyvkW6x_19da_client_interface28___mock_MockDaClient_DaClient20___publish_state_diffNtB6_11Expectation12returning_stpEBa_
FNDA:0,_RNvMs6_NtNtCs9tTyTyvkW6x_19da_client_interface28___mock_MockDaClient_DaClient20___publish_state_diffNtB5_11Expectation11in_sequence
FNDA:0,_RNvMs6_NtNtCs9tTyTyvkW6x_19da_client_interface28___mock_MockDaClient_DaClient20___publish_state_diffNtB5_11Expectation7is_done
FNDA:0,_RNvMs6_NtNtCs9tTyTyvkW6x_19da_client_interface28___mock_MockDaClient_DaClient20___publish_state_diffNtB5_11Expectation7matches
FNDA:0,_RNvMs6_NtNtCs9tTyTyvkW6x_19da_client_interface28___mock_MockDaClient_DaClient20___publish_state_diffNtB5_11Expectation5never
FNDA:0,_RNvMs6_NtNtCs9tTyTyvkW6x_19da_client_interface28___mock_MockDaClient_DaClient20___publish_state_diffNtB5_11Expectation3new
FNDA:0,_RNvMs6_NtNtCs9tTyTyvkW6x_19da_client_interface28___mock_MockDaClient_DaClient20___publish_state_diffNtB5_11Expectation4once
FNDA:0,_RINvMs6_NtNtCs9tTyTyvkW6x_19da_client_interface28___mock_MockDaClient_DaClient20___publish_state_diffNtB6_11Expectation5timespEBa_
FNDA:0,_RINvMs6_NtNtCs9tTyTyvkW6x_19da_client_interface28___mock_MockDaClient_DaClient20___publish_state_diffNtB6_11Expectation4withppEBa_
FNDA:0,_RINvMs6_NtNtCs9tTyTyvkW6x_19da_client_interface28___mock_MockDaClient_DaClient20___publish_state_diffNtB6_11Expectation5withfpEBa_
FNDA:0,_RINvMs6_NtNtCs9tTyTyvkW6x_19da_client_interface28___mock_MockDaClient_DaClient20___publish_state_diffNtB6_11Expectation8withf_stpEBa_
FNDA:0,_RNvXs7_NtNtCs9tTyTyvkW6x_19da_client_interface28___mock_MockDaClient_DaClient20___publish_state_diffNtB5_11ExpectationNtNtCsl82brYPINY5_4core7default7Default7default
FNDA:0,_RNvMs8_NtNtCs9tTyTyvkW6x_19da_client_interface28___mock_MockDaClient_DaClient20___publish_state_diffNtB5_12Expectations10checkpoint
FNDA:0,_RNvMs8_NtNtCs9tTyTyvkW6x_19da_client_interface28___mock_MockDaClient_DaClient20___publish_state_diffNtB5_12Expectations6expect
FNDA:0,_RNvMs8_NtNtCs9tTyTyvkW6x_19da_client_interface28___mock_MockDaClient_DaClient20___publish_state_diffNtB5_12Expectations3new
FNDA:0,_RNvXs9_NtNtCs9tTyTyvkW6x_19da_client_interface28___mock_MockDaClient_DaClient20___publish_state_diffNtB5_12ExpectationsNtNtCsl82brYPINY5_4core7default7Default7default
FNDA:0,_RNvMsa_NtNtCs9tTyTyvkW6x_19da_client_interface28___mock_MockDaClient_DaClient20___publish_state_diffNtB5_12Expectations4call
FNDA:0,_RNCNvMsa_NtNtCs9tTyTyvkW6x_19da_client_interface28___mock_MockDaClient_DaClient20___publish_state_diffNtB7_12Expectations4call0Bb_
FNDA:0,_RNCNvMsa_NtNtCs9tTyTyvkW6x_19da_client_interface28___mock_MockDaClient_DaClient20___publish_state_diffNtB7_12Expectations4calls_0Bb_
FNDA:0,_RNvMNtNtCs9tTyTyvkW6x_19da_client_interface28___mock_MockDaClient_DaClient18___verify_inclusionNtB2_5Rfunc8call_mut
FNDA:0,_RNvXs_NtNtCs9tTyTyvkW6x_19da_client_interface28___mock_MockDaClient_DaClient18___verify_inclusionNtB4_5RfuncNtNtCsl82brYPINY5_4core7default7Default7default
FNDA:0,_RNvMs0_NtNtCs9tTyTyvkW6x_19da_client_interface28___mock_MockDaClient_DaClient18___verify_inclusionNtB5_7Matcher7matches
FNDA:0,_RNCNvMs0_NtNtCs9tTyTyvkW6x_19da_client_interface28___mock_MockDaClient_DaClient18___verify_inclusionNtB7_7Matcher7matches0Bb_
FNDA:0,_RNvXs1_NtNtCs9tTyTyvkW6x_19da_client_interface28___mock_MockDaClient_DaClient18___verify_inclusionNtB5_7MatcherNtNtCsl82brYPINY5_4core7default7Default7default
FNDA:0,_RNvXs2_NtNtCs9tTyTyvkW6x_19da_client_interface28___mock_MockDaClient_DaClient18___verify_inclusionNtB5_7MatcherNtNtCsl82brYPINY5_4core3fmt7Display3fmt
FNDA:0,_RNvXs3_NtNtCs9tTyTyvkW6x_19da_client_interface28___mock_MockDaClient_DaClient18___verify_inclusionNtB5_6CommonNtNtCsl82brYPINY5_4core7default7Default7default
FNDA:0,_RNvMs4_NtNtCs9tTyTyvkW6x_19da_client_interface28___mock_MockDaClient_DaClient18___verify_inclusionNtB5_6Common4call
FNDA:0,_RNvMs4_NtNtCs9tTyTyvkW6x_19da_client_interface28___mock_MockDaClient_DaClient18___verify_inclusionNtB5_6Common11in_sequence
FNDA:0,_RNvMs4_NtNtCs9tTyTyvkW6x_19da_client_interface28___mock_MockDaClient_DaClient18___verify_inclusionNtB5_6Common7is_done
FNDA:0,_RNvMs4_NtNtCs9tTyTyvkW6x_19da_client_interface28___mock_MockDaClient_DaClient18___verify_inclusionNtB5_6Common7matches
FNDA:0,_RNvMs4_NtNtCs9tTyTyvkW6x_19da_client_interface28___mock_MockDaClient_DaClient18___verify_inclusionNtB5_6Common5never
FNDA:0,_RNvMs4_NtNtCs9tTyTyvkW6x_19da_client_interface28___mock_MockDaClient_DaClient18___verify_inclusionNtB5_6Common16satisfy_sequence
FNDA:0,_RINvMs4_NtNtCs9tTyTyvkW6x_19da_client_interface28___mock_MockDaClient_DaClient18___verify_inclusionNtB6_6Common5timespEBa_
FNDA:0,_RINvMs4_NtNtCs9tTyTyvkW6x_19da_client_interface28___mock_MockDaClient_DaClient18___verify_inclusionNtB6_6Common4withpEBa_
FNDA:0,_RINvMs4_NtNtCs9tTyTyvkW6x_19da_client_interface28___mock_MockDaClient_DaClient18___verify_inclusionNtB6_6Common5withfpEBa_
FNDA:0,_RINvMs4_NtNtCs9tTyTyvkW6x_19da_client_interface28___mock_MockDaClient_DaClient18___verify_inclusionNtB6_6Common8withf_stpEBa_
FNDA:0,_RNvMs4_NtNtCs9tTyTyvkW6x_19da_client_interface28___mock_MockDaClient_DaClient18___verify_inclusionNtB5_6Common15verify_sequence
FNDA:0,_RNvXs5_NtNtCs9tTyTyvkW6x_19da_client_interface28___mock_MockDaClient_DaClient18___verify_inclusionNtB5_6CommonNtNtNtCsl82brYPINY5_4core3ops4drop4Drop4drop
FNDA:0,_RNvMs6_NtNtCs9tTyTyvkW6x_19da_client_interface28___mock_MockDaClient_DaClient18___verify_inclusionNtB5_11Expectation4call
FNDA:0,_RINvMs6_NtNtCs9tTyTyvkW6x_19da_client_interface28___mock_MockDaClient_DaClient18___verify_inclusionNtB6_11Expectation12return_constpEBa_
FNDA:0,_RNCINvMs6_NtNtCs9tTyTyvkW6x_19da_client_interface28___mock_MockDaClient_DaClient18___verify_inclusionNtB8_11Expectation12return_constpE0Bc_
FNDA:0,_RINvMs6_NtNtCs9tTyTyvkW6x_19da_client_interface28___mock_MockDaClient_DaClient18___verify_inclusionNtB6_11Expectation15return_const_stpEBa_
FNDA:0,_RNCINvMs6_NtNtCs9tTyTyvkW6x_19da_client_interface28___mock_MockDaClient_DaClient18___verify_inclusionNtB8_11Expectation15return_const_stpE0Bc_
FNDA:0,_RINvMs6_NtNtCs9tTyTyvkW6x_19da_client_interface28___mock_MockDaClient_DaClient18___verify_inclusionNtB6_11Expectation11return_oncepEBa_
FNDA:0,_RINvMs6_NtNtCs9tTyTyvkW6x_19da_client_interface28___mock_MockDaClient_DaClient18___verify_inclusionNtB6_11Expectation14return_once_stpEBa_
FNDA:0,_RINvMs6_NtNtCs9tTyTyvkW6x_19da_client_interface28___mock_MockDaClient_DaClient18___verify_inclusionNtB6_11Expectation9returningpEBa_
FNDA:0,_RINvMs6_NtNtCs9tTyTyvkW6x_19da_client_interface28___mock_MockDaClient_DaClient18___verify_inclusionNtB6_11Expectation12returning_stpEBa_
FNDA:0,_RNvMs6_NtNtCs9tTyTyvkW6x_19da_client_interface28___mock_MockDaClient_DaClient18___verify_inclusionNtB5_11Expectation11in_sequence
FNDA:0,_RNvMs6_NtNtCs9tTyTyvkW6x_19da_client_interface28___mock_MockDaClient_DaClient18___verify_inclusionNtB5_11Expectation7is_done
FNDA:0,_RNvMs6_NtNtCs9tTyTyvkW6x_19da_client_interface28___mock_MockDaClient_DaClient18___verify_inclusionNtB5_11Expectation7matches
FNDA:0,_RNvMs6_NtNtCs9tTyTyvkW6x_19da_client_interface28___mock_MockDaClient_DaClient18___verify_inclusionNtB5_11Expectation5never
FNDA:0,_RNvMs6_NtNtCs9tTyTyvkW6x_19da_client_interface28___mock_MockDaClient_DaClient18___verify_inclusionNtB5_11Expectation3new
FNDA:0,_RNvMs6_NtNtCs9tTyTyvkW6x_19da_client_interface28___mock_MockDaClient_DaClient18___verify_inclusionNtB5_11Expectation4once
FNDA:0,_RINvMs6_NtNtCs9tTyTyvkW6x_19da_client_interface28___mock_MockDaClient_DaClient18___verify_inclusionNtB6_11Expectation5timespEBa_
FNDA:0,_RINvMs6_NtNtCs9tTyTyvkW6x_19da_client_interface28___mock_MockDaClient_DaClient18___verify_inclusionNtB6_11Expectation4withpEBa_
FNDA:0,_RINvMs6_NtNtCs9tTyTyvkW6x_19da_client_interface28___mock_MockDaClient_DaClient18___verify_inclusionNtB6_11Expectation5withfpEBa_
FNDA:0,_RINvMs6_NtNtCs9tTyTyvkW6x_19da_client_interface28___mock_MockDaClient_DaClient18___verify_inclusionNtB6_11Expectation8withf_stpEBa_
FNDA:0,_RNvXs7_NtNtCs9tTyTyvkW6x_19da_client_interface28___mock_MockDaClient_DaClient18___verify_inclusionNtB5_11ExpectationNtNtCsl82brYPINY5_4core7default7Default7default
FNDA:0,_RNvMs8_NtNtCs9tTyTyvkW6x_19da_client_interface28___mock_MockDaClient_DaClient18___verify_inclusionNtB5_12Expectations10checkpoint
FNDA:0,_RNvMs8_NtNtCs9tTyTyvkW6x_19da_client_interface28___mock_MockDaClient_DaClient18___verify_inclusionNtB5_12Expectations6expect
FNDA:0,_RNvMs8_NtNtCs9tTyTyvkW6x_19da_client_interface28___mock_MockDaClient_DaClient18___verify_inclusionNtB5_12Expectations3new
FNDA:0,_RNvXs9_NtNtCs9tTyTyvkW6x_19da_client_interface28___mock_MockDaClient_DaClient18___verify_inclusionNtB5_12ExpectationsNtNtCsl82brYPINY5_4core7default7Default7default
FNDA:0,_RNvMsa_NtNtCs9tTyTyvkW6x_19da_client_interface28___mock_MockDaClient_DaClient18___verify_inclusionNtB5_12Expectations4call
FNDA:0,_RNCNvMsa_NtNtCs9tTyTyvkW6x_19da_client_interface28___mock_MockDaClient_DaClient18___verify_inclusionNtB7_12Expectations4call0Bb_
FNDA:0,_RNCNvMsa_NtNtCs9tTyTyvkW6x_19da_client_interface28___mock_MockDaClient_DaClient18___verify_inclusionNtB7_12Expectations4calls_0Bb_
FNDA:0,_RNvMNtNtCs9tTyTyvkW6x_19da_client_interface28___mock_MockDaClient_DaClient18___max_blob_per_txnNtB2_5Rfunc8call_mut
FNDA:0,_RNvXs_NtNtCs9tTyTyvkW6x_19da_client_interface28___mock_MockDaClient_DaClient18___max_blob_per_txnNtB4_5RfuncNtNtCsl82brYPINY5_4core7default7Default7default
FNDA:0,_RNvMs0_NtNtCs9tTyTyvkW6x_19da_client_interface28___mock_MockDaClient_DaClient18___max_blob_per_txnNtB5_7Matcher7matches
FNDA:0,_RNCNvMs0_NtNtCs9tTyTyvkW6x_19da_client_interface28___mock_MockDaClient_DaClient18___max_blob_per_txnNtB7_7Matcher7matches0Bb_
FNDA:0,_RNvXs1_NtNtCs9tTyTyvkW6x_19da_client_interface28___mock_MockDaClient_DaClient18___max_blob_per_txnNtB5_7MatcherNtNtCsl82brYPINY5_4core7default7Default7default
FNDA:0,_RNvXs2_NtNtCs9tTyTyvkW6x_19da_client_interface28___mock_MockDaClient_DaClient18___max_blob_per_txnNtB5_7MatcherNtNtCsl82brYPINY5_4core3fmt7Display3fmt
FNDA:0,_RNvXs3_NtNtCs9tTyTyvkW6x_19da_client_interface28___mock_MockDaClient_DaClient18___max_blob_per_txnNtB5_6CommonNtNtCsl82brYPINY5_4core7default7Default7default
FNDA:0,_RNvMs4_NtNtCs9tTyTyvkW6x_19da_client_interface28___mock_MockDaClient_DaClient18___max_blob_per_txnNtB5_6Common4call
FNDA:0,_RNvMs4_NtNtCs9tTyTyvkW6x_19da_client_interface28___mock_MockDaClient_DaClient18___max_blob_per_txnNtB5_6Common11in_sequence
FNDA:0,_RNvMs4_NtNtCs9tTyTyvkW6x_19da_client_interface28___mock_MockDaClient_DaClient18___max_blob_per_txnNtB5_6Common7is_done
FNDA:0,_RNvMs4_NtNtCs9tTyTyvkW6x_19da_client_interface28___mock_MockDaClient_DaClient18___max_blob_per_txnNtB5_6Common7matches
FNDA:0,_RNvMs4_NtNtCs9tTyTyvkW6x_19da_client_interface28___mock_MockDaClient_DaClient18___max_blob_per_txnNtB5_6Common5never
FNDA:0,_RNvMs4_NtNtCs9tTyTyvkW6x_19da_client_interface28___mock_MockDaClient_DaClient18___max_blob_per_txnNtB5_6Common16satisfy_sequence
FNDA:0,_RINvMs4_NtNtCs9tTyTyvkW6x_19da_client_interface28___mock_MockDaClient_DaClient18___max_blob_per_txnNtB6_6Common5timespEBa_
FNDA:0,_RNvMs4_NtNtCs9tTyTyvkW6x_19da_client_interface28___mock_MockDaClient_DaClient18___max_blob_per_txnNtB5_6Common4with
FNDA:0,_RINvMs4_NtNtCs9tTyTyvkW6x_19da_client_interface28___mock_MockDaClient_DaClient18___max_blob_per_txnNtB6_6Common5withfpEBa_
FNDA:0,_RINvMs4_NtNtCs9tTyTyvkW6x_19da_client_interface28___mock_MockDaClient_DaClient18___max_blob_per_txnNtB6_6Common8withf_stpEBa_
FNDA:0,_RNvMs4_NtNtCs9tTyTyvkW6x_19da_client_interface28___mock_MockDaClient_DaClient18___max_blob_per_txnNtB5_6Common15verify_sequence
FNDA:0,_RNvXs5_NtNtCs9tTyTyvkW6x_19da_client_interface28___mock_MockDaClient_DaClient18___max_blob_per_txnNtB5_6CommonNtNtNtCsl82brYPINY5_4core3ops4drop4Drop4drop
FNDA:0,_RNvMs6_NtNtCs9tTyTyvkW6x_19da_client_interface28___mock_MockDaClient_DaClient18___max_blob_per_txnNtB5_11Expectation4call
FNDA:0,_RINvMs6_NtNtCs9tTyTyvkW6x_19da_client_interface28___mock_MockDaClient_DaClient18___max_blob_per_txnNtB6_11Expectation12return_constpEBa_
FNDA:0,_RNCINvMs6_NtNtCs9tTyTyvkW6x_19da_client_interface28___mock_MockDaClient_DaClient18___max_blob_per_txnNtB8_11Expectation12return_constpE0Bc_
FNDA:0,_RINvMs6_NtNtCs9tTyTyvkW6x_19da_client_interface28___mock_MockDaClient_DaClient18___max_blob_per_txnNtB6_11Expectation15return_const_stpEBa_
FNDA:0,_RNCINvMs6_NtNtCs9tTyTyvkW6x_19da_client_interface28___mock_MockDaClient_DaClient18___max_blob_per_txnNtB8_11Expectation15return_const_stpE0Bc_
FNDA:0,_RINvMs6_NtNtCs9tTyTyvkW6x_19da_client_interface28___mock_MockDaClient_DaClient18___max_blob_per_txnNtB6_11Expectation11return_oncepEBa_
FNDA:0,_RINvMs6_NtNtCs9tTyTyvkW6x_19da_client_interface28___mock_MockDaClient_DaClient18___max_blob_per_txnNtB6_11Expectation14return_once_stpEBa_
FNDA:0,_RINvMs6_NtNtCs9tTyTyvkW6x_19da_client_interface28___mock_MockDaClient_DaClient18___max_blob_per_txnNtB6_11Expectation9returningpEBa_
FNDA:0,_RINvMs6_NtNtCs9tTyTyvkW6x_19da_client_interface28___mock_MockDaClient_DaClient18___max_blob_per_txnNtB6_11Expectation12returning_stpEBa_
FNDA:0,_RNvMs6_NtNtCs9tTyTyvkW6x_19da_client_interface28___mock_MockDaClient_DaClient18___max_blob_per_txnNtB5_11Expectation11in_sequence
FNDA:0,_RNvMs6_NtNtCs9tTyTyvkW6x_19da_client_interface28___mock_MockDaClient_DaClient18___max_blob_per_txnNtB5_11Expectation7is_done
FNDA:0,_RNvMs6_NtNtCs9tTyTyvkW6x_19da_client_interface28___mock_MockDaClient_DaClient18___max_blob_per_txnNtB5_11Expectation7matches
FNDA:0,_RNvMs6_NtNtCs9tTyTyvkW6x_19da_client_interface28___mock_MockDaClient_DaClient18___max_blob_per_txnNtB5_11Expectation5never
FNDA:0,_RNvMs6_NtNtCs9tTyTyvkW6x_19da_client_interface28___mock_MockDaClient_DaClient18___max_blob_per_txnNtB5_11Expectation3new
FNDA:0,_RNvMs6_NtNtCs9tTyTyvkW6x_19da_client_interface28___mock_MockDaClient_DaClient18___max_blob_per_txnNtB5_11Expectation4once
FNDA:0,_RINvMs6_NtNtCs9tTyTyvkW6x_19da_client_interface28___mock_MockDaClient_DaClient18___max_blob_per_txnNtB6_11Expectation5timespEBa_
FNDA:0,_RNvMs6_NtNtCs9tTyTyvkW6x_19da_client_interface28___mock_MockDaClient_DaClient18___max_blob_per_txnNtB5_11Expectation4with
FNDA:0,_RINvMs6_NtNtCs9tTyTyvkW6x_19da_client_interface28___mock_MockDaClient_DaClient18___max_blob_per_txnNtB6_11Expectation5withfpEBa_
FNDA:0,_RINvMs6_NtNtCs9tTyTyvkW6x_19da_client_interface28___mock_MockDaClient_DaClient18___max_blob_per_txnNtB6_11Expectation8withf_stpEBa_
FNDA:0,_RNvXs7_NtNtCs9tTyTyvkW6x_19da_client_interface28___mock_MockDaClient_DaClient18___max_blob_per_txnNtB5_11ExpectationNtNtCsl82brYPINY5_4core7default7Default7default
FNDA:0,_RNvMs8_NtNtCs9tTyTyvkW6x_19da_client_interface28___mock_MockDaClient_DaClient18___max_blob_per_txnNtB5_12Expectations10checkpoint
FNDA:0,_RNvMs8_NtNtCs9tTyTyvkW6x_19da_client_interface28___mock_MockDaClient_DaClient18___max_blob_per_txnNtB5_12Expectations6expect
FNDA:0,_RNvMs8_NtNtCs9tTyTyvkW6x_19da_client_interface28___mock_MockDaClient_DaClient18___max_blob_per_txnNtB5_12Expectations3new
FNDA:0,_RNvXs9_NtNtCs9tTyTyvkW6x_19da_client_interface28___mock_MockDaClient_DaClient18___max_blob_per_txnNtB5_12ExpectationsNtNtCsl82brYPINY5_4core7default7Default7default
FNDA:0,_RNvMsa_NtNtCs9tTyTyvkW6x_19da_client_interface28___mock_MockDaClient_DaClient18___max_blob_per_txnNtB5_12Expectations4call
FNDA:0,_RNCNvMsa_NtNtCs9tTyTyvkW6x_19da_client_interface28___mock_MockDaClient_DaClient18___max_blob_per_txnNtB7_12Expectations4call0Bb_
FNDA:0,_RNCNvMsa_NtNtCs9tTyTyvkW6x_19da_client_interface28___mock_MockDaClient_DaClient18___max_blob_per_txnNtB7_12Expectations4calls_0Bb_
FNDA:0,_RNvMNtNtCs9tTyTyvkW6x_19da_client_interface28___mock_MockDaClient_DaClient20___max_bytes_per_blobNtB2_5Rfunc8call_mut
FNDA:0,_RNvXs_NtNtCs9tTyTyvkW6x_19da_client_interface28___mock_MockDaClient_DaClient20___max_bytes_per_blobNtB4_5RfuncNtNtCsl82brYPINY5_4core7default7Default7default
FNDA:0,_RNvMs0_NtNtCs9tTyTyvkW6x_19da_client_interface28___mock_MockDaClient_DaClient20___max_bytes_per_blobNtB5_7Matcher7matches
FNDA:0,_RNCNvMs0_NtNtCs9tTyTyvkW6x_19da_client_interface28___mock_MockDaClient_DaClient20___max_bytes_per_blobNtB7_7Matcher7matches0Bb_
FNDA:0,_RNvXs1_NtNtCs9tTyTyvkW6x_19da_client_interface28___mock_MockDaClient_DaClient20___max_bytes_per_blobNtB5_7MatcherNtNtCsl82brYPINY5_4core7default7Default7default
FNDA:0,_RNvXs2_NtNtCs9tTyTyvkW6x_19da_client_interface28___mock_MockDaClient_DaClient20___max_bytes_per_blobNtB5_7MatcherNtNtCsl82brYPINY5_4core3fmt7Display3fmt
FNDA:0,_RNvXs3_NtNtCs9tTyTyvkW6x_19da_client_interface28___mock_MockDaClient_DaClient20___max_bytes_per_blobNtB5_6CommonNtNtCsl82brYPINY5_4core7default7Default7default
FNDA:0,_RNvMs4_NtNtCs9tTyTyvkW6x_19da_client_interface28___mock_MockDaClient_DaClient20___max_bytes_per_blobNtB5_6Common4call
FNDA:0,_RNvMs4_NtNtCs9tTyTyvkW6x_19da_client_interface28___mock_MockDaClient_DaClient20___max_bytes_per_blobNtB5_6Common11in_sequence
FNDA:0,_RNvMs4_NtNtCs9tTyTyvkW6x_19da_client_interface28___mock_MockDaClient_DaClient20___max_bytes_per_blobNtB5_6Common7is_done
FNDA:0,_RNvMs4_NtNtCs9tTyTyvkW6x_19da_client_interface28___mock_MockDaClient_DaClient20___max_bytes_per_blobNtB5_6Common7matches
FNDA:0,_RNvMs4_NtNtCs9tTyTyvkW6x_19da_client_interface28___mock_MockDaClient_DaClient20___max_bytes_per_blobNtB5_6Common5never
FNDA:0,_RNvMs4_NtNtCs9tTyTyvkW6x_19da_client_interface28___mock_MockDaClient_DaClient20___max_bytes_per_blobNtB5_6Common16satisfy_sequence
FNDA:0,_RINvMs4_NtNtCs9tTyTyvkW6x_19da_client_interface28___mock_MockDaClient_DaClient20___max_bytes_per_blobNtB6_6Common5timespEBa_
FNDA:0,_RNvMs4_NtNtCs9tTyTyvkW6x_19da_client_interface28___mock_MockDaClient_DaClient20___max_bytes_per_blobNtB5_6Common4with
FNDA:0,_RINvMs4_NtNtCs9tTyTyvkW6x_19da_client_interface28___mock_MockDaClient_DaClient20___max_bytes_per_blobNtB6_6Common5withfpEBa_
FNDA:0,_RINvMs4_NtNtCs9tTyTyvkW6x_19da_client_interface28___mock_MockDaClient_DaClient20___max_bytes_per_blobNtB6_6Common8withf_stpEBa_
FNDA:0,_RNvMs4_NtNtCs9tTyTyvkW6x_19da_client_interface28___mock_MockDaClient_DaClient20___max_bytes_per_blobNtB5_6Common15verify_sequence
FNDA:0,_RNvXs5_NtNtCs9tTyTyvkW6x_19da_client_interface28___mock_MockDaClient_DaClient20___max_bytes_per_blobNtB5_6CommonNtNtNtCsl82brYPINY5_4core3ops4drop4Drop4drop
FNDA:0,_RNvMs6_NtNtCs9tTyTyvkW6x_19da_client_interface28___mock_MockDaClient_DaClient20___max_bytes_per_blobNtB5_11Expectation4call
FNDA:0,_RINvMs6_NtNtCs9tTyTyvkW6x_19da_client_interface28___mock_MockDaClient_DaClient20___max_bytes_per_blobNtB6_11Expectation12return_constpEBa_
FNDA:0,_RNCINvMs6_NtNtCs9tTyTyvkW6x_19da_client_interface28___mock_MockDaClient_DaClient20___max_bytes_per_blobNtB8_11Expectation12return_constpE0Bc_
FNDA:0,_RINvMs6_NtNtCs9tTyTyvkW6x_19da_client_interface28___mock_MockDaClient_DaClient20___max_bytes_per_blobNtB6_11Expectation15return_const_stpEBa_
FNDA:0,_RNCINvMs6_NtNtCs9tTyTyvkW6x_19da_client_interface28___mock_MockDaClient_DaClient20___max_bytes_per_blobNtB8_11Expectation15return_const_stpE0Bc_
FNDA:0,_RINvMs6_NtNtCs9tTyTyvkW6x_19da_client_interface28___mock_MockDaClient_DaClient20___max_bytes_per_blobNtB6_11Expectation11return_oncepEBa_
FNDA:0,_RINvMs6_NtNtCs9tTyTyvkW6x_19da_client_interface28___mock_MockDaClient_DaClient20___max_bytes_per_blobNtB6_11Expectation14return_once_stpEBa_
FNDA:0,_RINvMs6_NtNtCs9tTyTyvkW6x_19da_client_interface28___mock_MockDaClient_DaClient20___max_bytes_per_blobNtB6_11Expectation9returningpEBa_
FNDA:0,_RINvMs6_NtNtCs9tTyTyvkW6x_19da_client_interface28___mock_MockDaClient_DaClient20___max_bytes_per_blobNtB6_11Expectation12returning_stpEBa_
FNDA:0,_RNvMs6_NtNtCs9tTyTyvkW6x_19da_client_interface28___mock_MockDaClient_DaClient20___max_bytes_per_blobNtB5_11Expectation11in_sequence
FNDA:0,_RNvMs6_NtNtCs9tTyTyvkW6x_19da_client_interface28___mock_MockDaClient_DaClient20___max_bytes_per_blobNtB5_11Expectation7is_done
FNDA:0,_RNvMs6_NtNtCs9tTyTyvkW6x_19da_client_interface28___mock_MockDaClient_DaClient20___max_bytes_per_blobNtB5_11Expectation7matches
FNDA:0,_RNvMs6_NtNtCs9tTyTyvkW6x_19da_client_interface28___mock_MockDaClient_DaClient20___max_bytes_per_blobNtB5_11Expectation5never
FNDA:0,_RNvMs6_NtNtCs9tTyTyvkW6x_19da_client_interface28___mock_MockDaClient_DaClient20___max_bytes_per_blobNtB5_11Expectation3new
FNDA:0,_RNvMs6_NtNtCs9tTyTyvkW6x_19da_client_interface28___mock_MockDaClient_DaClient20___max_bytes_per_blobNtB5_11Expectation4once
FNDA:0,_RINvMs6_NtNtCs9tTyTyvkW6x_19da_client_interface28___mock_MockDaClient_DaClient20___max_bytes_per_blobNtB6_11Expectation5timespEBa_
FNDA:0,_RNvMs6_NtNtCs9tTyTyvkW6x_19da_client_interface28___mock_MockDaClient_DaClient20___max_bytes_per_blobNtB5_11Expectation4with
FNDA:0,_RINvMs6_NtNtCs9tTyTyvkW6x_19da_client_interface28___mock_MockDaClient_DaClient20___max_bytes_per_blobNtB6_11Expectation5withfpEBa_
FNDA:0,_RINvMs6_NtNtCs9tTyTyvkW6x_19da_client_interface28___mock_MockDaClient_DaClient20___max_bytes_per_blobNtB6_11Expectation8withf_stpEBa_
FNDA:0,_RNvXs7_NtNtCs9tTyTyvkW6x_19da_client_interface28___mock_MockDaClient_DaClient20___max_bytes_per_blobNtB5_11ExpectationNtNtCsl82brYPINY5_4core7default7Default7default
FNDA:0,_RNvMs8_NtNtCs9tTyTyvkW6x_19da_client_interface28___mock_MockDaClient_DaClient20___max_bytes_per_blobNtB5_12Expectations10checkpoint
FNDA:0,_RNvMs8_NtNtCs9tTyTyvkW6x_19da_client_interface28___mock_MockDaClient_DaClient20___max_bytes_per_blobNtB5_12Expectations6expect
FNDA:0,_RNvMs8_NtNtCs9tTyTyvkW6x_19da_client_interface28___mock_MockDaClient_DaClient20___max_bytes_per_blobNtB5_12Expectations3new
FNDA:0,_RNvXs9_NtNtCs9tTyTyvkW6x_19da_client_interface28___mock_MockDaClient_DaClient20___max_bytes_per_blobNtB5_12ExpectationsNtNtCsl82brYPINY5_4core7default7Default7default
FNDA:0,_RNvMsa_NtNtCs9tTyTyvkW6x_19da_client_interface28___mock_MockDaClient_DaClient20___max_bytes_per_blobNtB5_12Expectations4call
FNDA:0,_RNCNvMsa_NtNtCs9tTyTyvkW6x_19da_client_interface28___mock_MockDaClient_DaClient20___max_bytes_per_blobNtB7_12Expectations4call0Bb_
FNDA:0,_RNCNvMsa_NtNtCs9tTyTyvkW6x_19da_client_interface28___mock_MockDaClient_DaClient20___max_bytes_per_blobNtB7_12Expectations4calls_0Bb_
FNDA:0,_RNvXs6_Cs9tTyTyvkW6x_19da_client_interfaceNtB5_21MockDaClient_DaClientNtNtCsl82brYPINY5_4core7default7Default7default
FNDA:0,_RNvMs7_Cs9tTyTyvkW6x_19da_client_interfaceNtB5_21MockDaClient_DaClient10checkpoint
FNDA:0,_RNvMs8_Cs9tTyTyvkW6x_19da_client_interfaceNtB5_12MockDaClient10checkpoint
FNDA:0,_RNvMs8_Cs9tTyTyvkW6x_19da_client_interfaceNtB5_12MockDaClient3new
FNDA:0,_RNvXsa_Cs9tTyTyvkW6x_19da_client_interfaceNtB5_12MockDaClientNtB5_8DaClient18publish_state_diff
FNDA:0,_RNCNvXsa_Cs9tTyTyvkW6x_19da_client_interfaceNtB7_12MockDaClientNtB7_8DaClient18publish_state_diff0B7_
FNDA:0,_RNvXsa_Cs9tTyTyvkW6x_19da_client_interfaceNtB5_12MockDaClientNtB5_8DaClient16verify_inclusion
FNDA:0,_RNCNvXsa_Cs9tTyTyvkW6x_19da_client_interfaceNtB7_12MockDaClientNtB7_8DaClient16verify_inclusion0B7_
FNDA:0,_RNvXsa_Cs9tTyTyvkW6x_19da_client_interfaceNtB5_12MockDaClientNtB5_8DaClient16max_blob_per_txn
FNDA:0,_RNCNvXsa_Cs9tTyTyvkW6x_19da_client_interfaceNtB7_12MockDaClientNtB7_8DaClient16max_blob_per_txn0B7_
FNDA:0,_RNvXsa_Cs9tTyTyvkW6x_19da_client_interfaceNtB5_12MockDaClientNtB5_8DaClient18max_bytes_per_blob
FNDA:0,_RNCNvXsa_Cs9tTyTyvkW6x_19da_client_interfaceNtB7_12MockDaClientNtB7_8DaClient18max_bytes_per_blob0B7_
FNDA:0,_RNvMs9_Cs9tTyTyvkW6x_19da_client_interfaceNtB5_12MockDaClient25expect_publish_state_diff
FNDA:0,_RNvMs9_Cs9tTyTyvkW6x_19da_client_interfaceNtB5_12MockDaClient23expect_verify_inclusion
FNDA:0,_RNvMs9_Cs9tTyTyvkW6x_19da_client_interfaceNtB5_12MockDaClient23expect_max_blob_per_txn
FNDA:0,_RNvMs9_Cs9tTyTyvkW6x_19da_client_interfaceNtB5_12MockDaClient25expect_max_bytes_per_blob
FNDA:1,_RINvMs6_NtNtCs9dA0Hzxrugg_19da_client_interface28___mock_MockDaClient_DaClient18___verify_inclusionNtB6_11Expectation5timesjECs9kcl9mimtFg_12orchestrator
FNDA:1,_RINvMs4_NtNtCs9dA0Hzxrugg_19da_client_interface28___mock_MockDaClient_DaClient18___verify_inclusionNtB6_6Common5timesjECs9kcl9mimtFg_12orchestrator
FNDA:1,_RINvMs6_NtNtCs9dA0Hzxrugg_19da_client_interface28___mock_MockDaClient_DaClient18___verify_inclusionNtB6_11Expectation9returningNCNCNvNCNvNtNtNtCs9kcl9mimtFg_12orchestrator5tests4jobs6da_jobs_15test_verify_job015test_verify_job00EB2h_
FNDA:1,_RINvMs6_NtNtCs9dA0Hzxrugg_19da_client_interface28___mock_MockDaClient_DaClient18___max_blob_per_txnNtB6_11Expectation5timesjECs9kcl9mimtFg_12orchestrator
FNDA:1,_RINvMs4_NtNtCs9dA0Hzxrugg_19da_client_interface28___mock_MockDaClient_DaClient18___max_blob_per_txnNtB6_6Common5timesjECs9kcl9mimtFg_12orchestrator
FNDA:1,_RINvMs6_NtNtCs9dA0Hzxrugg_19da_client_interface28___mock_MockDaClient_DaClient18___max_blob_per_txnNtB6_11Expectation9returningNCNCNvNCNvNtNtNtCs9kcl9mimtFg_12orchestrator5tests4jobs6da_jobs_16test_process_job016test_process_job0s0_0EB2h_
FNDA:1,_RINvMs6_NtNtCs9dA0Hzxrugg_19da_client_interface28___mock_MockDaClient_DaClient20___max_bytes_per_blobNtB6_11Expectation5timesjECs9kcl9mimtFg_12orchestrator
FNDA:1,_RINvMs4_NtNtCs9dA0Hzxrugg_19da_client_interface28___mock_MockDaClient_DaClient20___max_bytes_per_blobNtB6_6Common5timesjECs9kcl9mimtFg_12orchestrator
FNDA:1,_RINvMs6_NtNtCs9dA0Hzxrugg_19da_client_interface28___mock_MockDaClient_DaClient20___max_bytes_per_blobNtB6_11Expectation9returningNCNCNvNCNvNtNtNtCs9kcl9mimtFg_12orchestrator5tests4jobs6da_jobs_16test_process_job016test_process_job0s_0EB2j_
FNDA:1,_RINvMs6_NtNtCs9dA0Hzxrugg_19da_client_interface28___mock_MockDaClient_DaClient20___publish_state_diffNtB6_11Expectation5timesjECs9kcl9mimtFg_12orchestrator
FNDA:1,_RINvMs4_NtNtCs9dA0Hzxrugg_19da_client_interface28___mock_MockDaClient_DaClient20___publish_state_diffNtB6_6Common5timesjECs9kcl9mimtFg_12orchestrator
FNDA:1,_RINvMs6_NtNtCs9dA0Hzxrugg_19da_client_interface28___mock_MockDaClient_DaClient20___publish_state_diffNtB6_11Expectation9returningNCNCNvNCNvNtNtNtCs9kcl9mimtFg_12orchestrator5tests4jobs6da_jobs_16test_process_job016test_process_job00EB2j_
FNDA:6,_RNvMs8_Cs9dA0Hzxrugg_19da_client_interfaceNtB5_12MockDaClient3new
FNDA:14,_RNvXs5_Cs9dA0Hzxrugg_19da_client_interfaceNtB5_12MockDaClientNtNtCsl82brYPINY5_4core7default7Default7default
FNDA:14,_RNvXs6_Cs9dA0Hzxrugg_19da_client_interfaceNtB5_21MockDaClient_DaClientNtNtCsl82brYPINY5_4core7default7Default7default
FNDA:14,_RNvXs9_NtNtCs9dA0Hzxrugg_19da_client_interface28___mock_MockDaClient_DaClient20___publish_state_diffNtB5_12ExpectationsNtNtCsl82brYPINY5_4core7default7Default7default
FNDA:14,_RNvXs9_NtNtCs9dA0Hzxrugg_19da_client_interface28___mock_MockDaClient_DaClient18___verify_inclusionNtB5_12ExpectationsNtNtCsl82brYPINY5_4core7default7Default7default
FNDA:14,_RNvXs9_NtNtCs9dA0Hzxrugg_19da_client_interface28___mock_MockDaClient_DaClient18___max_blob_per_txnNtB5_12ExpectationsNtNtCsl82brYPINY5_4core7default7Default7default
FNDA:14,_RNvXs9_NtNtCs9dA0Hzxrugg_19da_client_interface28___mock_MockDaClient_DaClient20___max_bytes_per_blobNtB5_12ExpectationsNtNtCsl82brYPINY5_4core7default7Default7default
FNDA:0,_RNvXs4_Cs9dA0Hzxrugg_19da_client_interfaceNtB5_12MockDaClientNtNtCsl82brYPINY5_4core3fmt5Debug3fmt
FNDA:0,_RNvMs7_Cs9dA0Hzxrugg_19da_client_interfaceNtB5_21MockDaClient_DaClient10checkpoint
FNDA:0,_RNvMs8_Cs9dA0Hzxrugg_19da_client_interfaceNtB5_12MockDaClient10checkpoint
FNDA:1,_RNvMs9_Cs9dA0Hzxrugg_19da_client_interfaceNtB5_12MockDaClient25expect_publish_state_diff
FNDA:1,_RNvMs9_Cs9dA0Hzxrugg_19da_client_interfaceNtB5_12MockDaClient23expect_verify_inclusion
FNDA:1,_RNvMs9_Cs9dA0Hzxrugg_19da_client_interfaceNtB5_12MockDaClient23expect_max_blob_per_txn
FNDA:1,_RNvMs9_Cs9dA0Hzxrugg_19da_client_interfaceNtB5_12MockDaClient25expect_max_bytes_per_blob
FNDA:1,_RNvXsa_Cs9dA0Hzxrugg_19da_client_interfaceNtB5_12MockDaClientNtB5_8DaClient18publish_state_diff
FNDA:1,_RNCNvXsa_Cs9dA0Hzxrugg_19da_client_interfaceNtB7_12MockDaClientNtB7_8DaClient18publish_state_diff0B7_
FNDA:1,_RNvXsa_Cs9dA0Hzxrugg_19da_client_interfaceNtB5_12MockDaClientNtB5_8DaClient16verify_inclusion
FNDA:1,_RNCNvXsa_Cs9dA0Hzxrugg_19da_client_interfaceNtB7_12MockDaClientNtB7_8DaClient16verify_inclusion0B7_
FNDA:1,_RNvXsa_Cs9dA0Hzxrugg_19da_client_interfaceNtB5_12MockDaClientNtB5_8DaClient16max_blob_per_txn
FNDA:1,_RNCNvXsa_Cs9dA0Hzxrugg_19da_client_interfaceNtB7_12MockDaClientNtB7_8DaClient16max_blob_per_txn0B7_
FNDA:1,_RNvXsa_Cs9dA0Hzxrugg_19da_client_interfaceNtB5_12MockDaClientNtB5_8DaClient18max_bytes_per_blob
FNDA:1,_RNCNvXsa_Cs9dA0Hzxrugg_19da_client_interfaceNtB7_12MockDaClientNtB7_8DaClient18max_bytes_per_blob0B7_
FNDA:1,_RNvMNtNtCs9dA0Hzxrugg_19da_client_interface28___mock_MockDaClient_DaClient20___publish_state_diffNtB2_5Rfunc8call_mut
FNDA:1,_RNvMs0_NtNtCs9dA0Hzxrugg_19da_client_interface28___mock_MockDaClient_DaClient20___publish_state_diffNtB5_7Matcher7matches
FNDA:0,_RNCNvMs0_NtNtCs9dA0Hzxrugg_19da_client_interface28___mock_MockDaClient_DaClient20___publish_state_diffNtB7_7Matcher7matches0Bb_
FNDA:1,_RNvXs2_NtNtCs9dA0Hzxrugg_19da_client_interface28___mock_MockDaClient_DaClient20___publish_state_diffNtB5_7MatcherNtNtCsl82brYPINY5_4core3fmt7Display3fmt
FNDA:1,_RNvMs4_NtNtCs9dA0Hzxrugg_19da_client_interface28___mock_MockDaClient_DaClient20___publish_state_diffNtB5_6Common4call
FNDA:0,_RNvMs4_NtNtCs9dA0Hzxrugg_19da_client_interface28___mock_MockDaClient_DaClient20___publish_state_diffNtB5_6Common11in_sequence
FNDA:1,_RNvMs4_NtNtCs9dA0Hzxrugg_19da_client_interface28___mock_MockDaClient_DaClient20___publish_state_diffNtB5_6Common7is_done
FNDA:1,_RNvMs4_NtNtCs9dA0Hzxrugg_19da_client_interface28___mock_MockDaClient_DaClient20___publish_state_diffNtB5_6Common7matches
FNDA:1,_RNvMs4_NtNtCs9dA0Hzxrugg_19da_client_interface28___mock_MockDaClient_DaClient20___publish_state_diffNtB5_6Common16satisfy_sequence
FNDA:1,_RNvMs4_NtNtCs9dA0Hzxrugg_19da_client_interface28___mock_MockDaClient_DaClient20___publish_state_diffNtB5_6Common15verify_sequence
FNDA:1,_RNvXs5_NtNtCs9dA0Hzxrugg_19da_client_interface28___mock_MockDaClient_DaClient20___publish_state_diffNtB5_6CommonNtNtNtCsl82brYPINY5_4core3ops4drop4Drop4drop
FNDA:1,_RNvMs6_NtNtCs9dA0Hzxrugg_19da_client_interface28___mock_MockDaClient_DaClient20___publish_state_diffNtB5_11Expectation4call
FNDA:0,_RNvMs6_NtNtCs9dA0Hzxrugg_19da_client_interface28___mock_MockDaClient_DaClient20___publish_state_diffNtB5_11Expectation11in_sequence
FNDA:1,_RNvMs6_NtNtCs9dA0Hzxrugg_19da_client_interface28___mock_MockDaClient_DaClient20___publish_state_diffNtB5_11Expectation7is_done
FNDA:1,_RNvMs6_NtNtCs9dA0Hzxrugg_19da_client_interface28___mock_MockDaClient_DaClient20___publish_state_diffNtB5_11Expectation7matches
FNDA:0,_RNvMs6_NtNtCs9dA0Hzxrugg_19da_client_interface28___mock_MockDaClient_DaClient20___publish_state_diffNtB5_11Expectation3new
FNDA:0,_RNvMs6_NtNtCs9dA0Hzxrugg_19da_client_interface28___mock_MockDaClient_DaClient20___publish_state_diffNtB5_11Expectation4once
FNDA:0,_RINvMs6_NtNtCs9dA0Hzxrugg_19da_client_interface28___mock_MockDaClient_DaClient20___publish_state_diffNtB6_11Expectation5timesjEBa_
FNDA:0,_RINvMs4_NtNtCs9dA0Hzxrugg_19da_client_interface28___mock_MockDaClient_DaClient20___publish_state_diffNtB6_6Common5timesjEBa_
FNDA:1,_RNvXs7_NtNtCs9dA0Hzxrugg_19da_client_interface28___mock_MockDaClient_DaClient20___publish_state_diffNtB5_11ExpectationNtNtCsl82brYPINY5_4core7default7Default7default
FNDA:1,_RNvXs3_NtNtCs9dA0Hzxrugg_19da_client_interface28___mock_MockDaClient_DaClient20___publish_state_diffNtB5_6CommonNtNtCsl82brYPINY5_4core7default7Default7default
FNDA:1,_RNvXs1_NtNtCs9dA0Hzxrugg_19da_client_interface28___mock_MockDaClient_DaClient20___publish_state_diffNtB5_7MatcherNtNtCsl82brYPINY5_4core7default7Default7default
FNDA:1,_RNvXs_NtNtCs9dA0Hzxrugg_19da_client_interface28___mock_MockDaClient_DaClient20___publish_state_diffNtB4_5RfuncNtNtCsl82brYPINY5_4core7default7Default7default
FNDA:0,_RNvMs8_NtNtCs9dA0Hzxrugg_19da_client_interface28___mock_MockDaClient_DaClient20___publish_state_diffNtB5_12Expectations10checkpoint
FNDA:1,_RNvMs8_NtNtCs9dA0Hzxrugg_19da_client_interface28___mock_MockDaClient_DaClient20___publish_state_diffNtB5_12Expectations6expect
FNDA:1,_RNvMsa_NtNtCs9dA0Hzxrugg_19da_client_interface28___mock_MockDaClient_DaClient20___publish_state_diffNtB5_12Expectations4call
FNDA:1,_RNCNvMsa_NtNtCs9dA0Hzxrugg_19da_client_interface28___mock_MockDaClient_DaClient20___publish_state_diffNtB7_12Expectations4calls_0Bb_
FNDA:1,_RNCNvMsa_NtNtCs9dA0Hzxrugg_19da_client_interface28___mock_MockDaClient_DaClient20___publish_state_diffNtB7_12Expectations4call0Bb_
FNDA:1,_RNvMNtNtCs9dA0Hzxrugg_19da_client_interface28___mock_MockDaClient_DaClient18___max_blob_per_txnNtB2_5Rfunc8call_mut
FNDA:1,_RNvMs0_NtNtCs9dA0Hzxrugg_19da_client_interface28___mock_MockDaClient_DaClient18___max_blob_per_txnNtB5_7Matcher7matches
FNDA:0,_RNCNvMs0_NtNtCs9dA0Hzxrugg_19da_client_interface28___mock_MockDaClient_DaClient18___max_blob_per_txnNtB7_7Matcher7matches0Bb_
FNDA:1,_RNvXs2_NtNtCs9dA0Hzxrugg_19da_client_interface28___mock_MockDaClient_DaClient18___max_blob_per_txnNtB5_7MatcherNtNtCsl82brYPINY5_4core3fmt7Display3fmt
FNDA:1,_RNvMs4_NtNtCs9dA0Hzxrugg_19da_client_interface28___mock_MockDaClient_DaClient18___max_blob_per_txnNtB5_6Common4call
FNDA:0,_RNvMs4_NtNtCs9dA0Hzxrugg_19da_client_interface28___mock_MockDaClient_DaClient18___max_blob_per_txnNtB5_6Common11in_sequence
FNDA:1,_RNvMs4_NtNtCs9dA0Hzxrugg_19da_client_interface28___mock_MockDaClient_DaClient18___max_blob_per_txnNtB5_6Common7is_done
FNDA:1,_RNvMs4_NtNtCs9dA0Hzxrugg_19da_client_interface28___mock_MockDaClient_DaClient18___max_blob_per_txnNtB5_6Common7matches
FNDA:1,_RNvMs4_NtNtCs9dA0Hzxrugg_19da_client_interface28___mock_MockDaClient_DaClient18___max_blob_per_txnNtB5_6Common16satisfy_sequence
FNDA:0,_RNvMs4_NtNtCs9dA0Hzxrugg_19da_client_interface28___mock_MockDaClient_DaClient18___max_blob_per_txnNtB5_6Common4with
FNDA:1,_RNvMs4_NtNtCs9dA0Hzxrugg_19da_client_interface28___mock_MockDaClient_DaClient18___max_blob_per_txnNtB5_6Common15verify_sequence
FNDA:1,_RNvXs5_NtNtCs9dA0Hzxrugg_19da_client_interface28___mock_MockDaClient_DaClient18___max_blob_per_txnNtB5_6CommonNtNtNtCsl82brYPINY5_4core3ops4drop4Drop4drop
FNDA:1,_RNvMs6_NtNtCs9dA0Hzxrugg_19da_client_interface28___mock_MockDaClient_DaClient18___max_blob_per_txnNtB5_11Expectation4call
FNDA:0,_RNvMs6_NtNtCs9dA0Hzxrugg_19da_client_interface28___mock_MockDaClient_DaClient18___max_blob_per_txnNtB5_11Expectation11in_sequence
FNDA:1,_RNvMs6_NtNtCs9dA0Hzxrugg_19da_client_interface28___mock_MockDaClient_DaClient18___max_blob_per_txnNtB5_11Expectation7is_done
FNDA:1,_RNvMs6_NtNtCs9dA0Hzxrugg_19da_client_interface28___mock_MockDaClient_DaClient18___max_blob_per_txnNtB5_11Expectation7matches
FNDA:0,_RNvMs6_NtNtCs9dA0Hzxrugg_19da_client_interface28___mock_MockDaClient_DaClient18___max_blob_per_txnNtB5_11Expectation3new
FNDA:0,_RNvMs6_NtNtCs9dA0Hzxrugg_19da_client_interface28___mock_MockDaClient_DaClient18___max_blob_per_txnNtB5_11Expectation4once
FNDA:0,_RINvMs6_NtNtCs9dA0Hzxrugg_19da_client_interface28___mock_MockDaClient_DaClient18___max_blob_per_txnNtB6_11Expectation5timesjEBa_
FNDA:0,_RINvMs4_NtNtCs9dA0Hzxrugg_19da_client_interface28___mock_MockDaClient_DaClient18___max_blob_per_txnNtB6_6Common5timesjEBa_
FNDA:0,_RNvMs6_NtNtCs9dA0Hzxrugg_19da_client_interface28___mock_MockDaClient_DaClient18___max_blob_per_txnNtB5_11Expectation4with
FNDA:1,_RNvXs7_NtNtCs9dA0Hzxrugg_19da_client_interface28___mock_MockDaClient_DaClient18___max_blob_per_txnNtB5_11ExpectationNtNtCsl82brYPINY5_4core7default7Default7default
FNDA:1,_RNvXs3_NtNtCs9dA0Hzxrugg_19da_client_interface28___mock_MockDaClient_DaClient18___max_blob_per_txnNtB5_6CommonNtNtCsl82brYPINY5_4core7default7Default7default
FNDA:1,_RNvXs1_NtNtCs9dA0Hzxrugg_19da_client_interface28___mock_MockDaClient_DaClient18___max_blob_per_txnNtB5_7MatcherNtNtCsl82brYPINY5_4core7default7Default7default
FNDA:1,_RNvXs_NtNtCs9dA0Hzxrugg_19da_client_interface28___mock_MockDaClient_DaClient18___max_blob_per_txnNtB4_5RfuncNtNtCsl82brYPINY5_4core7default7Default7default
FNDA:0,_RNvMs8_NtNtCs9dA0Hzxrugg_19da_client_interface28___mock_MockDaClient_DaClient18___max_blob_per_txnNtB5_12Expectations10checkpoint
FNDA:1,_RNvMs8_NtNtCs9dA0Hzxrugg_19da_client_interface28___mock_MockDaClient_DaClient18___max_blob_per_txnNtB5_12Expectations6expect
FNDA:1,_RNvMsa_NtNtCs9dA0Hzxrugg_19da_client_interface28___mock_MockDaClient_DaClient18___max_blob_per_txnNtB5_12Expectations4call
FNDA:1,_RNCNvMsa_NtNtCs9dA0Hzxrugg_19da_client_interface28___mock_MockDaClient_DaClient18___max_blob_per_txnNtB7_12Expectations4calls_0Bb_
FNDA:1,_RNCNvMsa_NtNtCs9dA0Hzxrugg_19da_client_interface28___mock_MockDaClient_DaClient18___max_blob_per_txnNtB7_12Expectations4call0Bb_
FNDA:1,_RNvMNtNtCs9dA0Hzxrugg_19da_client_interface28___mock_MockDaClient_DaClient20___max_bytes_per_blobNtB2_5Rfunc8call_mut
FNDA:1,_RNvMs0_NtNtCs9dA0Hzxrugg_19da_client_interface28___mock_MockDaClient_DaClient20___max_bytes_per_blobNtB5_7Matcher7matches
FNDA:0,_RNCNvMs0_NtNtCs9dA0Hzxrugg_19da_client_interface28___mock_MockDaClient_DaClient20___max_bytes_per_blobNtB7_7Matcher7matches0Bb_
FNDA:1,_RNvXs2_NtNtCs9dA0Hzxrugg_19da_client_interface28___mock_MockDaClient_DaClient20___max_bytes_per_blobNtB5_7MatcherNtNtCsl82brYPINY5_4core3fmt7Display3fmt
FNDA:1,_RNvMs4_NtNtCs9dA0Hzxrugg_19da_client_interface28___mock_MockDaClient_DaClient20___max_bytes_per_blobNtB5_6Common4call
FNDA:0,_RNvMs4_NtNtCs9dA0Hzxrugg_19da_client_interface28___mock_MockDaClient_DaClient20___max_bytes_per_blobNtB5_6Common11in_sequence
FNDA:1,_RNvMs4_NtNtCs9dA0Hzxrugg_19da_client_interface28___mock_MockDaClient_DaClient20___max_bytes_per_blobNtB5_6Common7is_done
FNDA:1,_RNvMs4_NtNtCs9dA0Hzxrugg_19da_client_interface28___mock_MockDaClient_DaClient20___max_bytes_per_blobNtB5_6Common7matches
FNDA:1,_RNvMs4_NtNtCs9dA0Hzxrugg_19da_client_interface28___mock_MockDaClient_DaClient20___max_bytes_per_blobNtB5_6Common16satisfy_sequence
FNDA:0,_RNvMs4_NtNtCs9dA0Hzxrugg_19da_client_interface28___mock_MockDaClient_DaClient20___max_bytes_per_blobNtB5_6Common4with
FNDA:1,_RNvMs4_NtNtCs9dA0Hzxrugg_19da_client_interface28___mock_MockDaClient_DaClient20___max_bytes_per_blobNtB5_6Common15verify_sequence
FNDA:1,_RNvXs5_NtNtCs9dA0Hzxrugg_19da_client_interface28___mock_MockDaClient_DaClient20___max_bytes_per_blobNtB5_6CommonNtNtNtCsl82brYPINY5_4core3ops4drop4Drop4drop
FNDA:1,_RNvMs6_NtNtCs9dA0Hzxrugg_19da_client_interface28___mock_MockDaClient_DaClient20___max_bytes_per_blobNtB5_11Expectation4call
FNDA:0,_RNvMs6_NtNtCs9dA0Hzxrugg_19da_client_interface28___mock_MockDaClient_DaClient20___max_bytes_per_blobNtB5_11Expectation11in_sequence
FNDA:1,_RNvMs6_NtNtCs9dA0Hzxrugg_19da_client_interface28___mock_MockDaClient_DaClient20___max_bytes_per_blobNtB5_11Expectation7is_done
FNDA:1,_RNvMs6_NtNtCs9dA0Hzxrugg_19da_client_interface28___mock_MockDaClient_DaClient20___max_bytes_per_blobNtB5_11Expectation7matches
FNDA:0,_RNvMs6_NtNtCs9dA0Hzxrugg_19da_client_interface28___mock_MockDaClient_DaClient20___max_bytes_per_blobNtB5_11Expectation3new
FNDA:0,_RNvMs6_NtNtCs9dA0Hzxrugg_19da_client_interface28___mock_MockDaClient_DaClient20___max_bytes_per_blobNtB5_11Expectation4once
FNDA:0,_RINvMs6_NtNtCs9dA0Hzxrugg_19da_client_interface28___mock_MockDaClient_DaClient20___max_bytes_per_blobNtB6_11Expectation5timesjEBa_
FNDA:0,_RINvMs4_NtNtCs9dA0Hzxrugg_19da_client_interface28___mock_MockDaClient_DaClient20___max_bytes_per_blobNtB6_6Common5timesjEBa_
FNDA:0,_RNvMs6_NtNtCs9dA0Hzxrugg_19da_client_interface28___mock_MockDaClient_DaClient20___max_bytes_per_blobNtB5_11Expectation4with
FNDA:1,_RNvXs7_NtNtCs9dA0Hzxrugg_19da_client_interface28___mock_MockDaClient_DaClient20___max_bytes_per_blobNtB5_11ExpectationNtNtCsl82brYPINY5_4core7default7Default7default
FNDA:1,_RNvXs3_NtNtCs9dA0Hzxrugg_19da_client_interface28___mock_MockDaClient_DaClient20___max_bytes_per_blobNtB5_6CommonNtNtCsl82brYPINY5_4core7default7Default7default
FNDA:1,_RNvXs1_NtNtCs9dA0Hzxrugg_19da_client_interface28___mock_MockDaClient_DaClient20___max_bytes_per_blobNtB5_7MatcherNtNtCsl82brYPINY5_4core7default7Default7default
FNDA:1,_RNvXs_NtNtCs9dA0Hzxrugg_19da_client_interface28___mock_MockDaClient_DaClient20___max_bytes_per_blobNtB4_5RfuncNtNtCsl82brYPINY5_4core7default7Default7default
FNDA:0,_RNvMs8_NtNtCs9dA0Hzxrugg_19da_client_interface28___mock_MockDaClient_DaClient20___max_bytes_per_blobNtB5_12Expectations10checkpoint
FNDA:1,_RNvMs8_NtNtCs9dA0Hzxrugg_19da_client_interface28___mock_MockDaClient_DaClient20___max_bytes_per_blobNtB5_12Expectations6expect
FNDA:1,_RNvMsa_NtNtCs9dA0Hzxrugg_19da_client_interface28___mock_MockDaClient_DaClient20___max_bytes_per_blobNtB5_12Expectations4call
FNDA:1,_RNCNvMsa_NtNtCs9dA0Hzxrugg_19da_client_interface28___mock_MockDaClient_DaClient20___max_bytes_per_blobNtB7_12Expectations4calls_0Bb_
FNDA:1,_RNCNvMsa_NtNtCs9dA0Hzxrugg_19da_client_interface28___mock_MockDaClient_DaClient20___max_bytes_per_blobNtB7_12Expectations4call0Bb_
FNDA:1,_RNvMNtNtCs9dA0Hzxrugg_19da_client_interface28___mock_MockDaClient_DaClient18___verify_inclusionNtB2_5Rfunc8call_mut
FNDA:1,_RNvMs0_NtNtCs9dA0Hzxrugg_19da_client_interface28___mock_MockDaClient_DaClient18___verify_inclusionNtB5_7Matcher7matches
FNDA:0,_RNCNvMs0_NtNtCs9dA0Hzxrugg_19da_client_interface28___mock_MockDaClient_DaClient18___verify_inclusionNtB7_7Matcher7matches0Bb_
FNDA:1,_RNvXs2_NtNtCs9dA0Hzxrugg_19da_client_interface28___mock_MockDaClient_DaClient18___verify_inclusionNtB5_7MatcherNtNtCsl82brYPINY5_4core3fmt7Display3fmt
FNDA:1,_RNvMs4_NtNtCs9dA0Hzxrugg_19da_client_interface28___mock_MockDaClient_DaClient18___verify_inclusionNtB5_6Common4call
FNDA:0,_RNvMs4_NtNtCs9dA0Hzxrugg_19da_client_interface28___mock_MockDaClient_DaClient18___verify_inclusionNtB5_6Common11in_sequence
FNDA:1,_RNvMs4_NtNtCs9dA0Hzxrugg_19da_client_interface28___mock_MockDaClient_DaClient18___verify_inclusionNtB5_6Common7is_done
FNDA:1,_RNvMs4_NtNtCs9dA0Hzxrugg_19da_client_interface28___mock_MockDaClient_DaClient18___verify_inclusionNtB5_6Common7matches
FNDA:1,_RNvMs4_NtNtCs9dA0Hzxrugg_19da_client_interface28___mock_MockDaClient_DaClient18___verify_inclusionNtB5_6Common16satisfy_sequence
FNDA:1,_RNvMs4_NtNtCs9dA0Hzxrugg_19da_client_interface28___mock_MockDaClient_DaClient18___verify_inclusionNtB5_6Common15verify_sequence
FNDA:1,_RNvXs5_NtNtCs9dA0Hzxrugg_19da_client_interface28___mock_MockDaClient_DaClient18___verify_inclusionNtB5_6CommonNtNtNtCsl82brYPINY5_4core3ops4drop4Drop4drop
FNDA:1,_RNvMs6_NtNtCs9dA0Hzxrugg_19da_client_interface28___mock_MockDaClient_DaClient18___verify_inclusionNtB5_11Expectation4call
FNDA:0,_RNvMs6_NtNtCs9dA0Hzxrugg_19da_client_interface28___mock_MockDaClient_DaClient18___verify_inclusionNtB5_11Expectation11in_sequence
FNDA:1,_RNvMs6_NtNtCs9dA0Hzxrugg_19da_client_interface28___mock_MockDaClient_DaClient18___verify_inclusionNtB5_11Expectation7is_done
FNDA:1,_RNvMs6_NtNtCs9dA0Hzxrugg_19da_client_interface28___mock_MockDaClient_DaClient18___verify_inclusionNtB5_11Expectation7matches
FNDA:0,_RNvMs6_NtNtCs9dA0Hzxrugg_19da_client_interface28___mock_MockDaClient_DaClient18___verify_inclusionNtB5_11Expectation3new
FNDA:0,_RNvMs6_NtNtCs9dA0Hzxrugg_19da_client_interface28___mock_MockDaClient_DaClient18___verify_inclusionNtB5_11Expectation4once
FNDA:0,_RINvMs6_NtNtCs9dA0Hzxrugg_19da_client_interface28___mock_MockDaClient_DaClient18___verify_inclusionNtB6_11Expectation5timesjEBa_
FNDA:0,_RINvMs4_NtNtCs9dA0Hzxrugg_19da_client_interface28___mock_MockDaClient_DaClient18___verify_inclusionNtB6_6Common5timesjEBa_
FNDA:1,_RNvXs7_NtNtCs9dA0Hzxrugg_19da_client_interface28___mock_MockDaClient_DaClient18___verify_inclusionNtB5_11ExpectationNtNtCsl82brYPINY5_4core7default7Default7default
FNDA:1,_RNvXs3_NtNtCs9dA0Hzxrugg_19da_client_interface28___mock_MockDaClient_DaClient18___verify_inclusionNtB5_6CommonNtNtCsl82brYPINY5_4core7default7Default7default
FNDA:1,_RNvXs1_NtNtCs9dA0Hzxrugg_19da_client_interface28___mock_MockDaClient_DaClient18___verify_inclusionNtB5_7MatcherNtNtCsl82brYPINY5_4core7default7Default7default
FNDA:1,_RNvXs_NtNtCs9dA0Hzxrugg_19da_client_interface28___mock_MockDaClient_DaClient18___verify_inclusionNtB4_5RfuncNtNtCsl82brYPINY5_4core7default7Default7default
FNDA:0,_RNvMs8_NtNtCs9dA0Hzxrugg_19da_client_interface28___mock_MockDaClient_DaClient18___verify_inclusionNtB5_12Expectations10checkpoint
FNDA:1,_RNvMs8_NtNtCs9dA0Hzxrugg_19da_client_interface28___mock_MockDaClient_DaClient18___verify_inclusionNtB5_12Expectations6expect
FNDA:1,_RNvMsa_NtNtCs9dA0Hzxrugg_19da_client_interface28___mock_MockDaClient_DaClient18___verify_inclusionNtB5_12Expectations4call
FNDA:1,_RNCNvMsa_NtNtCs9dA0Hzxrugg_19da_client_interface28___mock_MockDaClient_DaClient18___verify_inclusionNtB7_12Expectations4calls_0Bb_
FNDA:1,_RNCNvMsa_NtNtCs9dA0Hzxrugg_19da_client_interface28___mock_MockDaClient_DaClient18___verify_inclusionNtB7_12Expectations4call0Bb_
FNDA:0,_RNvMs4_NtNtCs9dA0Hzxrugg_19da_client_interface28___mock_MockDaClient_DaClient20___publish_state_diffNtB5_6Common5never
FNDA:0,_RINvMs4_NtNtCs9dA0Hzxrugg_19da_client_interface28___mock_MockDaClient_DaClient20___publish_state_diffNtB6_6Common4withppEBa_
FNDA:0,_RINvMs4_NtNtCs9dA0Hzxrugg_19da_client_interface28___mock_MockDaClient_DaClient20___publish_state_diffNtB6_6Common5withfpEBa_
FNDA:0,_RINvMs4_NtNtCs9dA0Hzxrugg_19da_client_interface28___mock_MockDaClient_DaClient20___publish_state_diffNtB6_6Common8withf_stpEBa_
FNDA:0,_RINvMs6_NtNtCs9dA0Hzxrugg_19da_client_interface28___mock_MockDaClient_DaClient20___publish_state_diffNtB6_11Expectation12return_constpEBa_
FNDA:0,_RNCINvMs6_NtNtCs9dA0Hzxrugg_19da_client_interface28___mock_MockDaClient_DaClient20___publish_state_diffNtB8_11Expectation12return_constpE0Bc_
FNDA:0,_RINvMs6_NtNtCs9dA0Hzxrugg_19da_client_interface28___mock_MockDaClient_DaClient20___publish_state_diffNtB6_11Expectation15return_const_stpEBa_
FNDA:0,_RNCINvMs6_NtNtCs9dA0Hzxrugg_19da_client_interface28___mock_MockDaClient_DaClient20___publish_state_diffNtB8_11Expectation15return_const_stpE0Bc_
FNDA:0,_RINvMs6_NtNtCs9dA0Hzxrugg_19da_client_interface28___mock_MockDaClient_DaClient20___publish_state_diffNtB6_11Expectation11return_oncepEBa_
FNDA:0,_RINvMs6_NtNtCs9dA0Hzxrugg_19da_client_interface28___mock_MockDaClient_DaClient20___publish_state_diffNtB6_11Expectation14return_once_stpEBa_
FNDA:0,_RINvMs6_NtNtCs9dA0Hzxrugg_19da_client_interface28___mock_MockDaClient_DaClient20___publish_state_diffNtB6_11Expectation9returningpEBa_
FNDA:0,_RINvMs6_NtNtCs9dA0Hzxrugg_19da_client_interface28___mock_MockDaClient_DaClient20___publish_state_diffNtB6_11Expectation12returning_stpEBa_
FNDA:0,_RNvMs6_NtNtCs9dA0Hzxrugg_19da_client_interface28___mock_MockDaClient_DaClient20___publish_state_diffNtB5_11Expectation5never
FNDA:0,_RINvMs6_NtNtCs9dA0Hzxrugg_19da_client_interface28___mock_MockDaClient_DaClient20___publish_state_diffNtB6_11Expectation4withppEBa_
FNDA:0,_RINvMs6_NtNtCs9dA0Hzxrugg_19da_client_interface28___mock_MockDaClient_DaClient20___publish_state_diffNtB6_11Expectation5withfpEBa_
FNDA:0,_RINvMs6_NtNtCs9dA0Hzxrugg_19da_client_interface28___mock_MockDaClient_DaClient20___publish_state_diffNtB6_11Expectation8withf_stpEBa_
FNDA:0,_RNvMs8_NtNtCs9dA0Hzxrugg_19da_client_interface28___mock_MockDaClient_DaClient20___publish_state_diffNtB5_12Expectations3new
FNDA:0,_RNvMs4_NtNtCs9dA0Hzxrugg_19da_client_interface28___mock_MockDaClient_DaClient18___verify_inclusionNtB5_6Common5never
FNDA:0,_RINvMs4_NtNtCs9dA0Hzxrugg_19da_client_interface28___mock_MockDaClient_DaClient18___verify_inclusionNtB6_6Common4withpEBa_
FNDA:0,_RINvMs4_NtNtCs9dA0Hzxrugg_19da_client_interface28___mock_MockDaClient_DaClient18___verify_inclusionNtB6_6Common5withfpEBa_
FNDA:0,_RINvMs4_NtNtCs9dA0Hzxrugg_19da_client_interface28___mock_MockDaClient_DaClient18___verify_inclusionNtB6_6Common8withf_stpEBa_
FNDA:0,_RINvMs6_NtNtCs9dA0Hzxrugg_19da_client_interface28___mock_MockDaClient_DaClient18___verify_inclusionNtB6_11Expectation12return_constpEBa_
FNDA:0,_RNCINvMs6_NtNtCs9dA0Hzxrugg_19da_client_interface28___mock_MockDaClient_DaClient18___verify_inclusionNtB8_11Expectation12return_constpE0Bc_
FNDA:0,_RINvMs6_NtNtCs9dA0Hzxrugg_19da_client_interface28___mock_MockDaClient_DaClient18___verify_inclusionNtB6_11Expectation15return_const_stpEBa_
FNDA:0,_RNCINvMs6_NtNtCs9dA0Hzxrugg_19da_client_interface28___mock_MockDaClient_DaClient18___verify_inclusionNtB8_11Expectation15return_const_stpE0Bc_
FNDA:0,_RINvMs6_NtNtCs9dA0Hzxrugg_19da_client_interface28___mock_MockDaClient_DaClient18___verify_inclusionNtB6_11Expectation11return_oncepEBa_
FNDA:0,_RINvMs6_NtNtCs9dA0Hzxrugg_19da_client_interface28___mock_MockDaClient_DaClient18___verify_inclusionNtB6_11Expectation14return_once_stpEBa_
FNDA:0,_RINvMs6_NtNtCs9dA0Hzxrugg_19da_client_interface28___mock_MockDaClient_DaClient18___verify_inclusionNtB6_11Expectation9returningpEBa_
FNDA:0,_RINvMs6_NtNtCs9dA0Hzxrugg_19da_client_interface28___mock_MockDaClient_DaClient18___verify_inclusionNtB6_11Expectation12returning_stpEBa_
FNDA:0,_RNvMs6_NtNtCs9dA0Hzxrugg_19da_client_interface28___mock_MockDaClient_DaClient18___verify_inclusionNtB5_11Expectation5never
FNDA:0,_RINvMs6_NtNtCs9dA0Hzxrugg_19da_client_interface28___mock_MockDaClient_DaClient18___verify_inclusionNtB6_11Expectation4withpEBa_
FNDA:0,_RINvMs6_NtNtCs9dA0Hzxrugg_19da_client_interface28___mock_MockDaClient_DaClient18___verify_inclusionNtB6_11Expectation5withfpEBa_
FNDA:0,_RINvMs6_NtNtCs9dA0Hzxrugg_19da_client_interface28___mock_MockDaClient_DaClient18___verify_inclusionNtB6_11Expectation8withf_stpEBa_
FNDA:0,_RNvMs8_NtNtCs9dA0Hzxrugg_19da_client_interface28___mock_MockDaClient_DaClient18___verify_inclusionNtB5_12Expectations3new
FNDA:0,_RNvMs4_NtNtCs9dA0Hzxrugg_19da_client_interface28___mock_MockDaClient_DaClient18___max_blob_per_txnNtB5_6Common5never
FNDA:0,_RINvMs4_NtNtCs9dA0Hzxrugg_19da_client_interface28___mock_MockDaClient_DaClient18___max_blob_per_txnNtB6_6Common5withfpEBa_
FNDA:0,_RINvMs4_NtNtCs9dA0Hzxrugg_19da_client_interface28___mock_MockDaClient_DaClient18___max_blob_per_txnNtB6_6Common8withf_stpEBa_
FNDA:0,_RINvMs6_NtNtCs9dA0Hzxrugg_19da_client_interface28___mock_MockDaClient_DaClient18___max_blob_per_txnNtB6_11Expectation12return_constpEBa_
FNDA:0,_RNCINvMs6_NtNtCs9dA0Hzxrugg_19da_client_interface28___mock_MockDaClient_DaClient18___max_blob_per_txnNtB8_11Expectation12return_constpE0Bc_
FNDA:0,_RINvMs6_NtNtCs9dA0Hzxrugg_19da_client_interface28___mock_MockDaClient_DaClient18___max_blob_per_txnNtB6_11Expectation15return_const_stpEBa_
FNDA:0,_RNCINvMs6_NtNtCs9dA0Hzxrugg_19da_client_interface28___mock_MockDaClient_DaClient18___max_blob_per_txnNtB8_11Expectation15return_const_stpE0Bc_
FNDA:0,_RINvMs6_NtNtCs9dA0Hzxrugg_19da_client_interface28___mock_MockDaClient_DaClient18___max_blob_per_txnNtB6_11Expectation11return_oncepEBa_
FNDA:0,_RINvMs6_NtNtCs9dA0Hzxrugg_19da_client_interface28___mock_MockDaClient_DaClient18___max_blob_per_txnNtB6_11Expectation14return_once_stpEBa_
FNDA:0,_RINvMs6_NtNtCs9dA0Hzxrugg_19da_client_interface28___mock_MockDaClient_DaClient18___max_blob_per_txnNtB6_11Expectation9returningpEBa_
FNDA:0,_RINvMs6_NtNtCs9dA0Hzxrugg_19da_client_interface28___mock_MockDaClient_DaClient18___max_blob_per_txnNtB6_11Expectation12returning_stpEBa_
FNDA:0,_RNvMs6_NtNtCs9dA0Hzxrugg_19da_client_interface28___mock_MockDaClient_DaClient18___max_blob_per_txnNtB5_11Expectation5never
FNDA:0,_RINvMs6_NtNtCs9dA0Hzxrugg_19da_client_interface28___mock_MockDaClient_DaClient18___max_blob_per_txnNtB6_11Expectation5withfpEBa_
FNDA:0,_RINvMs6_NtNtCs9dA0Hzxrugg_19da_client_interface28___mock_MockDaClient_DaClient18___max_blob_per_txnNtB6_11Expectation8withf_stpEBa_
FNDA:0,_RNvMs8_NtNtCs9dA0Hzxrugg_19da_client_interface28___mock_MockDaClient_DaClient18___max_blob_per_txnNtB5_12Expectations3new
FNDA:0,_RNvMs4_NtNtCs9dA0Hzxrugg_19da_client_interface28___mock_MockDaClient_DaClient20___max_bytes_per_blobNtB5_6Common5never
FNDA:0,_RINvMs4_NtNtCs9dA0Hzxrugg_19da_client_interface28___mock_MockDaClient_DaClient20___max_bytes_per_blobNtB6_6Common5withfpEBa_
FNDA:0,_RINvMs4_NtNtCs9dA0Hzxrugg_19da_client_interface28___mock_MockDaClient_DaClient20___max_bytes_per_blobNtB6_6Common8withf_stpEBa_
FNDA:0,_RINvMs6_NtNtCs9dA0Hzxrugg_19da_client_interface28___mock_MockDaClient_DaClient20___max_bytes_per_blobNtB6_11Expectation12return_constpEBa_
FNDA:0,_RNCINvMs6_NtNtCs9dA0Hzxrugg_19da_client_interface28___mock_MockDaClient_DaClient20___max_bytes_per_blobNtB8_11Expectation12return_constpE0Bc_
FNDA:0,_RINvMs6_NtNtCs9dA0Hzxrugg_19da_client_interface28___mock_MockDaClient_DaClient20___max_bytes_per_blobNtB6_11Expectation15return_const_stpEBa_
FNDA:0,_RNCINvMs6_NtNtCs9dA0Hzxrugg_19da_client_interface28___mock_MockDaClient_DaClient20___max_bytes_per_blobNtB8_11Expectation15return_const_stpE0Bc_
FNDA:0,_RINvMs6_NtNtCs9dA0Hzxrugg_19da_client_interface28___mock_MockDaClient_DaClient20___max_bytes_per_blobNtB6_11Expectation11return_oncepEBa_
FNDA:0,_RINvMs6_NtNtCs9dA0Hzxrugg_19da_client_interface28___mock_MockDaClient_DaClient20___max_bytes_per_blobNtB6_11Expectation14return_once_stpEBa_
FNDA:0,_RINvMs6_NtNtCs9dA0Hzxrugg_19da_client_interface28___mock_MockDaClient_DaClient20___max_bytes_per_blobNtB6_11Expectation9returningpEBa_
FNDA:0,_RINvMs6_NtNtCs9dA0Hzxrugg_19da_client_interface28___mock_MockDaClient_DaClient20___max_bytes_per_blobNtB6_11Expectation12returning_stpEBa_
FNDA:0,_RNvMs6_NtNtCs9dA0Hzxrugg_19da_client_interface28___mock_MockDaClient_DaClient20___max_bytes_per_blobNtB5_11Expectation5never
FNDA:0,_RINvMs6_NtNtCs9dA0Hzxrugg_19da_client_interface28___mock_MockDaClient_DaClient20___max_bytes_per_blobNtB6_11Expectation5withfpEBa_
FNDA:0,_RINvMs6_NtNtCs9dA0Hzxrugg_19da_client_interface28___mock_MockDaClient_DaClient20___max_bytes_per_blobNtB6_11Expectation8withf_stpEBa_
FNDA:0,_RNvMs8_NtNtCs9dA0Hzxrugg_19da_client_interface28___mock_MockDaClient_DaClient20___max_bytes_per_blobNtB5_12Expectations3new
FNF:1
FNH:1
DA:17,36
BRF:0
BRH:0
LF:1
LH:1
end_of_record
SF:/Users/ocdbytes/Karnot/madara-orchestrator/crates/da-clients/ethereum/src/config.rs
FN:12,_RNvXNtCs2ExZl6DaDxw_18ethereum_da_client6configNtB2_16EthereumDaConfigNtCs9dA0Hzxrugg_19da_client_interface8DaConfig12new_from_env
FN:12,_RNvXNtCshoxz5TBPcD3_18ethereum_da_client6configNtB2_16EthereumDaConfigNtCs9dA0Hzxrugg_19da_client_interface8DaConfig12new_from_env
FNDA:0,_RNvXNtCs2ExZl6DaDxw_18ethereum_da_client6configNtB2_16EthereumDaConfigNtCs9dA0Hzxrugg_19da_client_interface8DaConfig12new_from_env
FNDA:0,_RNvXNtCshoxz5TBPcD3_18ethereum_da_client6configNtB2_16EthereumDaConfigNtCs9dA0Hzxrugg_19da_client_interface8DaConfig12new_from_env
FNF:1
FNH:0
DA:12,0
DA:13,0
DA:14,0
DA:15,0
DA:16,0
DA:17,0
DA:18,0
BRF:0
BRH:0
LF:7
LH:0
end_of_record
SF:/Users/ocdbytes/Karnot/madara-orchestrator/crates/da-clients/ethereum/src/lib.rs
FN:122,_RNvCs2ExZl6DaDxw_18ethereum_da_client15prepare_sidecar
FN:125,_RNCNvCs2ExZl6DaDxw_18ethereum_da_client15prepare_sidecar0B3_
FN:198,_RNvNtCs2ExZl6DaDxw_18ethereum_da_client5tests20hex_string_to_u8_vec
FN:155,_RNvNtCs2ExZl6DaDxw_18ethereum_da_client5testss_8test_kzg
FN:155,_RNCNvNtCs2ExZl6DaDxw_18ethereum_da_client5testss_8test_kzg0B5_
FN:200,_RNCNvNtCs2ExZl6DaDxw_18ethereum_da_client5tests20hex_string_to_u8_vec0B5_
FN:40,_RNvXs5_Cs2ExZl6DaDxw_18ethereum_da_clientNtB5_16EthereumDaClientNtCs9dA0Hzxrugg_19da_client_interface8DaClient18publish_state_diff
FN:40,_RNCNvXs5_Cs2ExZl6DaDxw_18ethereum_da_clientNtB7_16EthereumDaClientNtCs9dA0Hzxrugg_19da_client_interface8DaClient18publish_state_diff0B7_
FN:86,_RNvXs5_Cs2ExZl6DaDxw_18ethereum_da_clientNtB5_16EthereumDaClientNtCs9dA0Hzxrugg_19da_client_interface8DaClient16verify_inclusion
FN:86,_RNCNvXs5_Cs2ExZl6DaDxw_18ethereum_da_clientNtB7_16EthereumDaClientNtCs9dA0Hzxrugg_19da_client_interface8DaClient16verify_inclusion0B7_
FN:100,_RNvXs5_Cs2ExZl6DaDxw_18ethereum_da_clientNtB5_16EthereumDaClientNtCs9dA0Hzxrugg_19da_client_interface8DaClient16max_blob_per_txn
FN:100,_RNCNvXs5_Cs2ExZl6DaDxw_18ethereum_da_clientNtB7_16EthereumDaClientNtCs9dA0Hzxrugg_19da_client_interface8DaClient16max_blob_per_txn0B7_
FN:104,_RNvXs5_Cs2ExZl6DaDxw_18ethereum_da_clientNtB5_16EthereumDaClientNtCs9dA0Hzxrugg_19da_client_interface8DaClient18max_bytes_per_blob
FN:104,_RNCNvXs5_Cs2ExZl6DaDxw_18ethereum_da_clientNtB7_16EthereumDaClientNtCs9dA0Hzxrugg_19da_client_interface8DaClient18max_bytes_per_blob0B7_
FN:37,_RNvXs_Cs2ExZl6DaDxw_18ethereum_da_clientNtB4_20MockEthereumDaClientNtNtCsl82brYPINY5_4core3fmt5Debug3fmt
FN:37,_RNvXs0_Cs2ExZl6DaDxw_18ethereum_da_clientNtB5_20MockEthereumDaClientNtNtCsl82brYPINY5_4core7default7Default7default
FN:37,_RNvMNtNtCs2ExZl6DaDxw_18ethereum_da_client36___mock_MockEthereumDaClient_DaClient20___publish_state_diffNtB2_5Rfunc8call_mut
FN:37,_RNvXs_NtNtCs2ExZl6DaDxw_18ethereum_da_client36___mock_MockEthereumDaClient_DaClient20___publish_state_diffNtB4_5RfuncNtNtCsl82brYPINY5_4core7default7Default7default
FN:37,_RNvMs0_NtNtCs2ExZl6DaDxw_18ethereum_da_client36___mock_MockEthereumDaClient_DaClient20___publish_state_diffNtB5_7Matcher7matches
FN:37,_RNCNvMs0_NtNtCs2ExZl6DaDxw_18ethereum_da_client36___mock_MockEthereumDaClient_DaClient20___publish_state_diffNtB7_7Matcher7matches0Bb_
FN:37,_RNvXs1_NtNtCs2ExZl6DaDxw_18ethereum_da_client36___mock_MockEthereumDaClient_DaClient20___publish_state_diffNtB5_7MatcherNtNtCsl82brYPINY5_4core7default7Default7default
FN:37,_RNvXs2_NtNtCs2ExZl6DaDxw_18ethereum_da_client36___mock_MockEthereumDaClient_DaClient20___publish_state_diffNtB5_7MatcherNtNtCsl82brYPINY5_4core3fmt7Display3fmt
FN:37,_RNvXs3_NtNtCs2ExZl6DaDxw_18ethereum_da_client36___mock_MockEthereumDaClient_DaClient20___publish_state_diffNtB5_6CommonNtNtCsl82brYPINY5_4core7default7Default7default
FN:37,_RNvMs4_NtNtCs2ExZl6DaDxw_18ethereum_da_client36___mock_MockEthereumDaClient_DaClient20___publish_state_diffNtB5_6Common4call
FN:37,_RNvMs4_NtNtCs2ExZl6DaDxw_18ethereum_da_client36___mock_MockEthereumDaClient_DaClient20___publish_state_diffNtB5_6Common11in_sequence
FN:37,_RNvMs4_NtNtCs2ExZl6DaDxw_18ethereum_da_client36___mock_MockEthereumDaClient_DaClient20___publish_state_diffNtB5_6Common7is_done
FN:37,_RNvMs4_NtNtCs2ExZl6DaDxw_18ethereum_da_client36___mock_MockEthereumDaClient_DaClient20___publish_state_diffNtB5_6Common7matches
FN:37,_RNvMs4_NtNtCs2ExZl6DaDxw_18ethereum_da_client36___mock_MockEthereumDaClient_DaClient20___publish_state_diffNtB5_6Common5never
FN:37,_RNvMs4_NtNtCs2ExZl6DaDxw_18ethereum_da_client36___mock_MockEthereumDaClient_DaClient20___publish_state_diffNtB5_6Common16satisfy_sequence
FN:37,_RINvMs4_NtNtCs2ExZl6DaDxw_18ethereum_da_client36___mock_MockEthereumDaClient_DaClient20___publish_state_diffNtB6_6Common5timespEBa_
FN:37,_RINvMs4_NtNtCs2ExZl6DaDxw_18ethereum_da_client36___mock_MockEthereumDaClient_DaClient20___publish_state_diffNtB6_6Common4withppEBa_
FN:37,_RINvMs4_NtNtCs2ExZl6DaDxw_18ethereum_da_client36___mock_MockEthereumDaClient_DaClient20___publish_state_diffNtB6_6Common5withfpEBa_
FN:37,_RINvMs4_NtNtCs2ExZl6DaDxw_18ethereum_da_client36___mock_MockEthereumDaClient_DaClient20___publish_state_diffNtB6_6Common8withf_stpEBa_
FN:37,_RNvMs4_NtNtCs2ExZl6DaDxw_18ethereum_da_client36___mock_MockEthereumDaClient_DaClient20___publish_state_diffNtB5_6Common15verify_sequence
FN:37,_RNvXs5_NtNtCs2ExZl6DaDxw_18ethereum_da_client36___mock_MockEthereumDaClient_DaClient20___publish_state_diffNtB5_6CommonNtNtNtCsl82brYPINY5_4core3ops4drop4Drop4drop
FN:37,_RNvMs6_NtNtCs2ExZl6DaDxw_18ethereum_da_client36___mock_MockEthereumDaClient_DaClient20___publish_state_diffNtB5_11Expectation4call
FN:37,_RINvMs6_NtNtCs2ExZl6DaDxw_18ethereum_da_client36___mock_MockEthereumDaClient_DaClient20___publish_state_diffNtB6_11Expectation12return_constpEBa_
FN:37,_RNCINvMs6_NtNtCs2ExZl6DaDxw_18ethereum_da_client36___mock_MockEthereumDaClient_DaClient20___publish_state_diffNtB8_11Expectation12return_constpE0Bc_
FN:37,_RINvMs6_NtNtCs2ExZl6DaDxw_18ethereum_da_client36___mock_MockEthereumDaClient_DaClient20___publish_state_diffNtB6_11Expectation15return_const_stpEBa_
FN:37,_RNCINvMs6_NtNtCs2ExZl6DaDxw_18ethereum_da_client36___mock_MockEthereumDaClient_DaClient20___publish_state_diffNtB8_11Expectation15return_const_stpE0Bc_
FN:37,_RINvMs6_NtNtCs2ExZl6DaDxw_18ethereum_da_client36___mock_MockEthereumDaClient_DaClient20___publish_state_diffNtB6_11Expectation11return_oncepEBa_
FN:37,_RINvMs6_NtNtCs2ExZl6DaDxw_18ethereum_da_client36___mock_MockEthereumDaClient_DaClient20___publish_state_diffNtB6_11Expectation14return_once_stpEBa_
FN:37,_RINvMs6_NtNtCs2ExZl6DaDxw_18ethereum_da_client36___mock_MockEthereumDaClient_DaClient20___publish_state_diffNtB6_11Expectation9returningpEBa_
FN:37,_RINvMs6_NtNtCs2ExZl6DaDxw_18ethereum_da_client36___mock_MockEthereumDaClient_DaClient20___publish_state_diffNtB6_11Expectation12returning_stpEBa_
FN:37,_RNvMs6_NtNtCs2ExZl6DaDxw_18ethereum_da_client36___mock_MockEthereumDaClient_DaClient20___publish_state_diffNtB5_11Expectation11in_sequence
FN:37,_RNvMs6_NtNtCs2ExZl6DaDxw_18ethereum_da_client36___mock_MockEthereumDaClient_DaClient20___publish_state_diffNtB5_11Expectation7is_done
FN:37,_RNvMs6_NtNtCs2ExZl6DaDxw_18ethereum_da_client36___mock_MockEthereumDaClient_DaClient20___publish_state_diffNtB5_11Expectation7matches
FN:37,_RNvMs6_NtNtCs2ExZl6DaDxw_18ethereum_da_client36___mock_MockEthereumDaClient_DaClient20___publish_state_diffNtB5_11Expectation5never
FN:37,_RNvMs6_NtNtCs2ExZl6DaDxw_18ethereum_da_client36___mock_MockEthereumDaClient_DaClient20___publish_state_diffNtB5_11Expectation3new
FN:37,_RNvMs6_NtNtCs2ExZl6DaDxw_18ethereum_da_client36___mock_MockEthereumDaClient_DaClient20___publish_state_diffNtB5_11Expectation4once
FN:37,_RINvMs6_NtNtCs2ExZl6DaDxw_18ethereum_da_client36___mock_MockEthereumDaClient_DaClient20___publish_state_diffNtB6_11Expectation5timespEBa_
FN:37,_RINvMs6_NtNtCs2ExZl6DaDxw_18ethereum_da_client36___mock_MockEthereumDaClient_DaClient20___publish_state_diffNtB6_11Expectation4withppEBa_
FN:37,_RINvMs6_NtNtCs2ExZl6DaDxw_18ethereum_da_client36___mock_MockEthereumDaClient_DaClient20___publish_state_diffNtB6_11Expectation5withfpEBa_
FN:37,_RINvMs6_NtNtCs2ExZl6DaDxw_18ethereum_da_client36___mock_MockEthereumDaClient_DaClient20___publish_state_diffNtB6_11Expectation8withf_stpEBa_
FN:37,_RNvXs7_NtNtCs2ExZl6DaDxw_18ethereum_da_client36___mock_MockEthereumDaClient_DaClient20___publish_state_diffNtB5_11ExpectationNtNtCsl82brYPINY5_4core7default7Default7default
FN:37,_RNvMs8_NtNtCs2ExZl6DaDxw_18ethereum_da_client36___mock_MockEthereumDaClient_DaClient20___publish_state_diffNtB5_12Expectations10checkpoint
FN:37,_RNvMs8_NtNtCs2ExZl6DaDxw_18ethereum_da_client36___mock_MockEthereumDaClient_DaClient20___publish_state_diffNtB5_12Expectations6expect
FN:37,_RNvMs8_NtNtCs2ExZl6DaDxw_18ethereum_da_client36___mock_MockEthereumDaClient_DaClient20___publish_state_diffNtB5_12Expectations3new
FN:37,_RNvXs9_NtNtCs2ExZl6DaDxw_18ethereum_da_client36___mock_MockEthereumDaClient_DaClient20___publish_state_diffNtB5_12ExpectationsNtNtCsl82brYPINY5_4core7default7Default7default
FN:37,_RNvMsa_NtNtCs2ExZl6DaDxw_18ethereum_da_client36___mock_MockEthereumDaClient_DaClient20___publish_state_diffNtB5_12Expectations4call
FN:37,_RNCNvMsa_NtNtCs2ExZl6DaDxw_18ethereum_da_client36___mock_MockEthereumDaClient_DaClient20___publish_state_diffNtB7_12Expectations4call0Bb_
FN:37,_RNCNvMsa_NtNtCs2ExZl6DaDxw_18ethereum_da_client36___mock_MockEthereumDaClient_DaClient20___publish_state_diffNtB7_12Expectations4calls_0Bb_
FN:37,_RNvMNtNtCs2ExZl6DaDxw_18ethereum_da_client36___mock_MockEthereumDaClient_DaClient18___verify_inclusionNtB2_5Rfunc8call_mut
FN:37,_RNvXs_NtNtCs2ExZl6DaDxw_18ethereum_da_client36___mock_MockEthereumDaClient_DaClient18___verify_inclusionNtB4_5RfuncNtNtCsl82brYPINY5_4core7default7Default7default
FN:37,_RNvMs0_NtNtCs2ExZl6DaDxw_18ethereum_da_client36___mock_MockEthereumDaClient_DaClient18___verify_inclusionNtB5_7Matcher7matches
FN:37,_RNCNvMs0_NtNtCs2ExZl6DaDxw_18ethereum_da_client36___mock_MockEthereumDaClient_DaClient18___verify_inclusionNtB7_7Matcher7matches0Bb_
FN:37,_RNvXs1_NtNtCs2ExZl6DaDxw_18ethereum_da_client36___mock_MockEthereumDaClient_DaClient18___verify_inclusionNtB5_7MatcherNtNtCsl82brYPINY5_4core7default7Default7default
FN:37,_RNvXs2_NtNtCs2ExZl6DaDxw_18ethereum_da_client36___mock_MockEthereumDaClient_DaClient18___verify_inclusionNtB5_7MatcherNtNtCsl82brYPINY5_4core3fmt7Display3fmt
FN:37,_RNvXs3_NtNtCs2ExZl6DaDxw_18ethereum_da_client36___mock_MockEthereumDaClient_DaClient18___verify_inclusionNtB5_6CommonNtNtCsl82brYPINY5_4core7default7Default7default
FN:37,_RNvMs4_NtNtCs2ExZl6DaDxw_18ethereum_da_client36___mock_MockEthereumDaClient_DaClient18___verify_inclusionNtB5_6Common4call
FN:37,_RNvMs4_NtNtCs2ExZl6DaDxw_18ethereum_da_client36___mock_MockEthereumDaClient_DaClient18___verify_inclusionNtB5_6Common11in_sequence
FN:37,_RNvMs4_NtNtCs2ExZl6DaDxw_18ethereum_da_client36___mock_MockEthereumDaClient_DaClient18___verify_inclusionNtB5_6Common7is_done
FN:37,_RNvMs4_NtNtCs2ExZl6DaDxw_18ethereum_da_client36___mock_MockEthereumDaClient_DaClient18___verify_inclusionNtB5_6Common7matches
FN:37,_RNvMs4_NtNtCs2ExZl6DaDxw_18ethereum_da_client36___mock_MockEthereumDaClient_DaClient18___verify_inclusionNtB5_6Common5never
FN:37,_RNvMs4_NtNtCs2ExZl6DaDxw_18ethereum_da_client36___mock_MockEthereumDaClient_DaClient18___verify_inclusionNtB5_6Common16satisfy_sequence
FN:37,_RINvMs4_NtNtCs2ExZl6DaDxw_18ethereum_da_client36___mock_MockEthereumDaClient_DaClient18___verify_inclusionNtB6_6Common5timespEBa_
FN:37,_RINvMs4_NtNtCs2ExZl6DaDxw_18ethereum_da_client36___mock_MockEthereumDaClient_DaClient18___verify_inclusionNtB6_6Common4withpEBa_
FN:37,_RINvMs4_NtNtCs2ExZl6DaDxw_18ethereum_da_client36___mock_MockEthereumDaClient_DaClient18___verify_inclusionNtB6_6Common5withfpEBa_
FN:37,_RINvMs4_NtNtCs2ExZl6DaDxw_18ethereum_da_client36___mock_MockEthereumDaClient_DaClient18___verify_inclusionNtB6_6Common8withf_stpEBa_
FN:37,_RNvMs4_NtNtCs2ExZl6DaDxw_18ethereum_da_client36___mock_MockEthereumDaClient_DaClient18___verify_inclusionNtB5_6Common15verify_sequence
FN:37,_RNvXs5_NtNtCs2ExZl6DaDxw_18ethereum_da_client36___mock_MockEthereumDaClient_DaClient18___verify_inclusionNtB5_6CommonNtNtNtCsl82brYPINY5_4core3ops4drop4Drop4drop
FN:37,_RNvMs6_NtNtCs2ExZl6DaDxw_18ethereum_da_client36___mock_MockEthereumDaClient_DaClient18___verify_inclusionNtB5_11Expectation4call
FN:37,_RINvMs6_NtNtCs2ExZl6DaDxw_18ethereum_da_client36___mock_MockEthereumDaClient_DaClient18___verify_inclusionNtB6_11Expectation12return_constpEBa_
FN:37,_RNCINvMs6_NtNtCs2ExZl6DaDxw_18ethereum_da_client36___mock_MockEthereumDaClient_DaClient18___verify_inclusionNtB8_11Expectation12return_constpE0Bc_
FN:37,_RINvMs6_NtNtCs2ExZl6DaDxw_18ethereum_da_client36___mock_MockEthereumDaClient_DaClient18___verify_inclusionNtB6_11Expectation15return_const_stpEBa_
FN:37,_RNCINvMs6_NtNtCs2ExZl6DaDxw_18ethereum_da_client36___mock_MockEthereumDaClient_DaClient18___verify_inclusionNtB8_11Expectation15return_const_stpE0Bc_
FN:37,_RINvMs6_NtNtCs2ExZl6DaDxw_18ethereum_da_client36___mock_MockEthereumDaClient_DaClient18___verify_inclusionNtB6_11Expectation11return_oncepEBa_
FN:37,_RINvMs6_NtNtCs2ExZl6DaDxw_18ethereum_da_client36___mock_MockEthereumDaClient_DaClient18___verify_inclusionNtB6_11Expectation14return_once_stpEBa_
FN:37,_RINvMs6_NtNtCs2ExZl6DaDxw_18ethereum_da_client36___mock_MockEthereumDaClient_DaClient18___verify_inclusionNtB6_11Expectation9returningpEBa_
FN:37,_RINvMs6_NtNtCs2ExZl6DaDxw_18ethereum_da_client36___mock_MockEthereumDaClient_DaClient18___verify_inclusionNtB6_11Expectation12returning_stpEBa_
FN:37,_RNvMs6_NtNtCs2ExZl6DaDxw_18ethereum_da_client36___mock_MockEthereumDaClient_DaClient18___verify_inclusionNtB5_11Expectation11in_sequence
FN:37,_RNvMs6_NtNtCs2ExZl6DaDxw_18ethereum_da_client36___mock_MockEthereumDaClient_DaClient18___verify_inclusionNtB5_11Expectation7is_done
FN:37,_RNvMs6_NtNtCs2ExZl6DaDxw_18ethereum_da_client36___mock_MockEthereumDaClient_DaClient18___verify_inclusionNtB5_11Expectation7matches
FN:37,_RNvMs6_NtNtCs2ExZl6DaDxw_18ethereum_da_client36___mock_MockEthereumDaClient_DaClient18___verify_inclusionNtB5_11Expectation5never
FN:37,_RNvMs6_NtNtCs2ExZl6DaDxw_18ethereum_da_client36___mock_MockEthereumDaClient_DaClient18___verify_inclusionNtB5_11Expectation3new
FN:37,_RNvMs6_NtNtCs2ExZl6DaDxw_18ethereum_da_client36___mock_MockEthereumDaClient_DaClient18___verify_inclusionNtB5_11Expectation4once
FN:37,_RINvMs6_NtNtCs2ExZl6DaDxw_18ethereum_da_client36___mock_MockEthereumDaClient_DaClient18___verify_inclusionNtB6_11Expectation5timespEBa_
FN:37,_RINvMs6_NtNtCs2ExZl6DaDxw_18ethereum_da_client36___mock_MockEthereumDaClient_DaClient18___verify_inclusionNtB6_11Expectation4withpEBa_
FN:37,_RINvMs6_NtNtCs2ExZl6DaDxw_18ethereum_da_client36___mock_MockEthereumDaClient_DaClient18___verify_inclusionNtB6_11Expectation5withfpEBa_
FN:37,_RINvMs6_NtNtCs2ExZl6DaDxw_18ethereum_da_client36___mock_MockEthereumDaClient_DaClient18___verify_inclusionNtB6_11Expectation8withf_stpEBa_
FN:37,_RNvXs7_NtNtCs2ExZl6DaDxw_18ethereum_da_client36___mock_MockEthereumDaClient_DaClient18___verify_inclusionNtB5_11ExpectationNtNtCsl82brYPINY5_4core7default7Default7default
FN:37,_RNvMs8_NtNtCs2ExZl6DaDxw_18ethereum_da_client36___mock_MockEthereumDaClient_DaClient18___verify_inclusionNtB5_12Expectations10checkpoint
FN:37,_RNvMs8_NtNtCs2ExZl6DaDxw_18ethereum_da_client36___mock_MockEthereumDaClient_DaClient18___verify_inclusionNtB5_12Expectations6expect
FN:37,_RNvMs8_NtNtCs2ExZl6DaDxw_18ethereum_da_client36___mock_MockEthereumDaClient_DaClient18___verify_inclusionNtB5_12Expectations3new
FN:37,_RNvXs9_NtNtCs2ExZl6DaDxw_18ethereum_da_client36___mock_MockEthereumDaClient_DaClient18___verify_inclusionNtB5_12ExpectationsNtNtCsl82brYPINY5_4core7default7Default7default
FN:37,_RNvMsa_NtNtCs2ExZl6DaDxw_18ethereum_da_client36___mock_MockEthereumDaClient_DaClient18___verify_inclusionNtB5_12Expectations4call
FN:37,_RNCNvMsa_NtNtCs2ExZl6DaDxw_18ethereum_da_client36___mock_MockEthereumDaClient_DaClient18___verify_inclusionNtB7_12Expectations4call0Bb_
FN:37,_RNCNvMsa_NtNtCs2ExZl6DaDxw_18ethereum_da_client36___mock_MockEthereumDaClient_DaClient18___verify_inclusionNtB7_12Expectations4calls_0Bb_
FN:37,_RNvMNtNtCs2ExZl6DaDxw_18ethereum_da_client36___mock_MockEthereumDaClient_DaClient18___max_blob_per_txnNtB2_5Rfunc8call_mut
FN:37,_RNvXs_NtNtCs2ExZl6DaDxw_18ethereum_da_client36___mock_MockEthereumDaClient_DaClient18___max_blob_per_txnNtB4_5RfuncNtNtCsl82brYPINY5_4core7default7Default7default
FN:37,_RNvMs0_NtNtCs2ExZl6DaDxw_18ethereum_da_client36___mock_MockEthereumDaClient_DaClient18___max_blob_per_txnNtB5_7Matcher7matches
FN:37,_RNCNvMs0_NtNtCs2ExZl6DaDxw_18ethereum_da_client36___mock_MockEthereumDaClient_DaClient18___max_blob_per_txnNtB7_7Matcher7matches0Bb_
FN:37,_RNvXs1_NtNtCs2ExZl6DaDxw_18ethereum_da_client36___mock_MockEthereumDaClient_DaClient18___max_blob_per_txnNtB5_7MatcherNtNtCsl82brYPINY5_4core7default7Default7default
FN:37,_RNvXs2_NtNtCs2ExZl6DaDxw_18ethereum_da_client36___mock_MockEthereumDaClient_DaClient18___max_blob_per_txnNtB5_7MatcherNtNtCsl82brYPINY5_4core3fmt7Display3fmt
FN:37,_RNvXs3_NtNtCs2ExZl6DaDxw_18ethereum_da_client36___mock_MockEthereumDaClient_DaClient18___max_blob_per_txnNtB5_6CommonNtNtCsl82brYPINY5_4core7default7Default7default
FN:37,_RNvMs4_NtNtCs2ExZl6DaDxw_18ethereum_da_client36___mock_MockEthereumDaClient_DaClient18___max_blob_per_txnNtB5_6Common4call
FN:37,_RNvMs4_NtNtCs2ExZl6DaDxw_18ethereum_da_client36___mock_MockEthereumDaClient_DaClient18___max_blob_per_txnNtB5_6Common11in_sequence
FN:37,_RNvMs4_NtNtCs2ExZl6DaDxw_18ethereum_da_client36___mock_MockEthereumDaClient_DaClient18___max_blob_per_txnNtB5_6Common7is_done
FN:37,_RNvMs4_NtNtCs2ExZl6DaDxw_18ethereum_da_client36___mock_MockEthereumDaClient_DaClient18___max_blob_per_txnNtB5_6Common7matches
FN:37,_RNvMs4_NtNtCs2ExZl6DaDxw_18ethereum_da_client36___mock_MockEthereumDaClient_DaClient18___max_blob_per_txnNtB5_6Common5never
FN:37,_RNvMs4_NtNtCs2ExZl6DaDxw_18ethereum_da_client36___mock_MockEthereumDaClient_DaClient18___max_blob_per_txnNtB5_6Common16satisfy_sequence
FN:37,_RINvMs4_NtNtCs2ExZl6DaDxw_18ethereum_da_client36___mock_MockEthereumDaClient_DaClient18___max_blob_per_txnNtB6_6Common5timespEBa_
FN:37,_RNvMs4_NtNtCs2ExZl6DaDxw_18ethereum_da_client36___mock_MockEthereumDaClient_DaClient18___max_blob_per_txnNtB5_6Common4with
FN:37,_RINvMs4_NtNtCs2ExZl6DaDxw_18ethereum_da_client36___mock_MockEthereumDaClient_DaClient18___max_blob_per_txnNtB6_6Common5withfpEBa_
FN:37,_RINvMs4_NtNtCs2ExZl6DaDxw_18ethereum_da_client36___mock_MockEthereumDaClient_DaClient18___max_blob_per_txnNtB6_6Common8withf_stpEBa_
FN:37,_RNvMs4_NtNtCs2ExZl6DaDxw_18ethereum_da_client36___mock_MockEthereumDaClient_DaClient18___max_blob_per_txnNtB5_6Common15verify_sequence
FN:37,_RNvXs5_NtNtCs2ExZl6DaDxw_18ethereum_da_client36___mock_MockEthereumDaClient_DaClient18___max_blob_per_txnNtB5_6CommonNtNtNtCsl82brYPINY5_4core3ops4drop4Drop4drop
FN:37,_RNvMs6_NtNtCs2ExZl6DaDxw_18ethereum_da_client36___mock_MockEthereumDaClient_DaClient18___max_blob_per_txnNtB5_11Expectation4call
FN:37,_RINvMs6_NtNtCs2ExZl6DaDxw_18ethereum_da_client36___mock_MockEthereumDaClient_DaClient18___max_blob_per_txnNtB6_11Expectation12return_constpEBa_
FN:37,_RNCINvMs6_NtNtCs2ExZl6DaDxw_18ethereum_da_client36___mock_MockEthereumDaClient_DaClient18___max_blob_per_txnNtB8_11Expectation12return_constpE0Bc_
FN:37,_RINvMs6_NtNtCs2ExZl6DaDxw_18ethereum_da_client36___mock_MockEthereumDaClient_DaClient18___max_blob_per_txnNtB6_11Expectation15return_const_stpEBa_
FN:37,_RNCINvMs6_NtNtCs2ExZl6DaDxw_18ethereum_da_client36___mock_MockEthereumDaClient_DaClient18___max_blob_per_txnNtB8_11Expectation15return_const_stpE0Bc_
FN:37,_RINvMs6_NtNtCs2ExZl6DaDxw_18ethereum_da_client36___mock_MockEthereumDaClient_DaClient18___max_blob_per_txnNtB6_11Expectation11return_oncepEBa_
FN:37,_RINvMs6_NtNtCs2ExZl6DaDxw_18ethereum_da_client36___mock_MockEthereumDaClient_DaClient18___max_blob_per_txnNtB6_11Expectation14return_once_stpEBa_
FN:37,_RINvMs6_NtNtCs2ExZl6DaDxw_18ethereum_da_client36___mock_MockEthereumDaClient_DaClient18___max_blob_per_txnNtB6_11Expectation9returningpEBa_
FN:37,_RINvMs6_NtNtCs2ExZl6DaDxw_18ethereum_da_client36___mock_MockEthereumDaClient_DaClient18___max_blob_per_txnNtB6_11Expectation12returning_stpEBa_
FN:37,_RNvMs6_NtNtCs2ExZl6DaDxw_18ethereum_da_client36___mock_MockEthereumDaClient_DaClient18___max_blob_per_txnNtB5_11Expectation11in_sequence
FN:37,_RNvMs6_NtNtCs2ExZl6DaDxw_18ethereum_da_client36___mock_MockEthereumDaClient_DaClient18___max_blob_per_txnNtB5_11Expectation7is_done
FN:37,_RNvMs6_NtNtCs2ExZl6DaDxw_18ethereum_da_client36___mock_MockEthereumDaClient_DaClient18___max_blob_per_txnNtB5_11Expectation7matches
FN:37,_RNvMs6_NtNtCs2ExZl6DaDxw_18ethereum_da_client36___mock_MockEthereumDaClient_DaClient18___max_blob_per_txnNtB5_11Expectation5never
FN:37,_RNvMs6_NtNtCs2ExZl6DaDxw_18ethereum_da_client36___mock_MockEthereumDaClient_DaClient18___max_blob_per_txnNtB5_11Expectation3new
FN:37,_RNvMs6_NtNtCs2ExZl6DaDxw_18ethereum_da_client36___mock_MockEthereumDaClient_DaClient18___max_blob_per_txnNtB5_11Expectation4once
FN:37,_RINvMs6_NtNtCs2ExZl6DaDxw_18ethereum_da_client36___mock_MockEthereumDaClient_DaClient18___max_blob_per_txnNtB6_11Expectation5timespEBa_
FN:37,_RNvMs6_NtNtCs2ExZl6DaDxw_18ethereum_da_client36___mock_MockEthereumDaClient_DaClient18___max_blob_per_txnNtB5_11Expectation4with
FN:37,_RINvMs6_NtNtCs2ExZl6DaDxw_18ethereum_da_client36___mock_MockEthereumDaClient_DaClient18___max_blob_per_txnNtB6_11Expectation5withfpEBa_
FN:37,_RINvMs6_NtNtCs2ExZl6DaDxw_18ethereum_da_client36___mock_MockEthereumDaClient_DaClient18___max_blob_per_txnNtB6_11Expectation8withf_stpEBa_
FN:37,_RNvXs7_NtNtCs2ExZl6DaDxw_18ethereum_da_client36___mock_MockEthereumDaClient_DaClient18___max_blob_per_txnNtB5_11ExpectationNtNtCsl82brYPINY5_4core7default7Default7default
FN:37,_RNvMs8_NtNtCs2ExZl6DaDxw_18ethereum_da_client36___mock_MockEthereumDaClient_DaClient18___max_blob_per_txnNtB5_12Expectations10checkpoint
FN:37,_RNvMs8_NtNtCs2ExZl6DaDxw_18ethereum_da_client36___mock_MockEthereumDaClient_DaClient18___max_blob_per_txnNtB5_12Expectations6expect
FN:37,_RNvMs8_NtNtCs2ExZl6DaDxw_18ethereum_da_client36___mock_MockEthereumDaClient_DaClient18___max_blob_per_txnNtB5_12Expectations3new
FN:37,_RNvXs9_NtNtCs2ExZl6DaDxw_18ethereum_da_client36___mock_MockEthereumDaClient_DaClient18___max_blob_per_txnNtB5_12ExpectationsNtNtCsl82brYPINY5_4core7default7Default7default
FN:37,_RNvMsa_NtNtCs2ExZl6DaDxw_18ethereum_da_client36___mock_MockEthereumDaClient_DaClient18___max_blob_per_txnNtB5_12Expectations4call
FN:37,_RNCNvMsa_NtNtCs2ExZl6DaDxw_18ethereum_da_client36___mock_MockEthereumDaClient_DaClient18___max_blob_per_txnNtB7_12Expectations4call0Bb_
FN:37,_RNCNvMsa_NtNtCs2ExZl6DaDxw_18ethereum_da_client36___mock_MockEthereumDaClient_DaClient18___max_blob_per_txnNtB7_12Expectations4calls_0Bb_
FN:37,_RNvMNtNtCs2ExZl6DaDxw_18ethereum_da_client36___mock_MockEthereumDaClient_DaClient20___max_bytes_per_blobNtB2_5Rfunc8call_mut
FN:37,_RNvXs_NtNtCs2ExZl6DaDxw_18ethereum_da_client36___mock_MockEthereumDaClient_DaClient20___max_bytes_per_blobNtB4_5RfuncNtNtCsl82brYPINY5_4core7default7Default7default
FN:37,_RNvMs0_NtNtCs2ExZl6DaDxw_18ethereum_da_client36___mock_MockEthereumDaClient_DaClient20___max_bytes_per_blobNtB5_7Matcher7matches
FN:37,_RNCNvMs0_NtNtCs2ExZl6DaDxw_18ethereum_da_client36___mock_MockEthereumDaClient_DaClient20___max_bytes_per_blobNtB7_7Matcher7matches0Bb_
FN:37,_RNvXs1_NtNtCs2ExZl6DaDxw_18ethereum_da_client36___mock_MockEthereumDaClient_DaClient20___max_bytes_per_blobNtB5_7MatcherNtNtCsl82brYPINY5_4core7default7Default7default
FN:37,_RNvXs2_NtNtCs2ExZl6DaDxw_18ethereum_da_client36___mock_MockEthereumDaClient_DaClient20___max_bytes_per_blobNtB5_7MatcherNtNtCsl82brYPINY5_4core3fmt7Display3fmt
FN:37,_RNvXs3_NtNtCs2ExZl6DaDxw_18ethereum_da_client36___mock_MockEthereumDaClient_DaClient20___max_bytes_per_blobNtB5_6CommonNtNtCsl82brYPINY5_4core7default7Default7default
FN:37,_RNvMs4_NtNtCs2ExZl6DaDxw_18ethereum_da_client36___mock_MockEthereumDaClient_DaClient20___max_bytes_per_blobNtB5_6Common4call
FN:37,_RNvMs4_NtNtCs2ExZl6DaDxw_18ethereum_da_client36___mock_MockEthereumDaClient_DaClient20___max_bytes_per_blobNtB5_6Common11in_sequence
FN:37,_RNvMs4_NtNtCs2ExZl6DaDxw_18ethereum_da_client36___mock_MockEthereumDaClient_DaClient20___max_bytes_per_blobNtB5_6Common7is_done
FN:37,_RNvMs4_NtNtCs2ExZl6DaDxw_18ethereum_da_client36___mock_MockEthereumDaClient_DaClient20___max_bytes_per_blobNtB5_6Common7matches
FN:37,_RNvMs4_NtNtCs2ExZl6DaDxw_18ethereum_da_client36___mock_MockEthereumDaClient_DaClient20___max_bytes_per_blobNtB5_6Common5never
FN:37,_RNvMs4_NtNtCs2ExZl6DaDxw_18ethereum_da_client36___mock_MockEthereumDaClient_DaClient20___max_bytes_per_blobNtB5_6Common16satisfy_sequence
FN:37,_RINvMs4_NtNtCs2ExZl6DaDxw_18ethereum_da_client36___mock_MockEthereumDaClient_DaClient20___max_bytes_per_blobNtB6_6Common5timespEBa_
FN:37,_RNvMs4_NtNtCs2ExZl6DaDxw_18ethereum_da_client36___mock_MockEthereumDaClient_DaClient20___max_bytes_per_blobNtB5_6Common4with
FN:37,_RINvMs4_NtNtCs2ExZl6DaDxw_18ethereum_da_client36___mock_MockEthereumDaClient_DaClient20___max_bytes_per_blobNtB6_6Common5withfpEBa_
FN:37,_RINvMs4_NtNtCs2ExZl6DaDxw_18ethereum_da_client36___mock_MockEthereumDaClient_DaClient20___max_bytes_per_blobNtB6_6Common8withf_stpEBa_
FN:37,_RNvMs4_NtNtCs2ExZl6DaDxw_18ethereum_da_client36___mock_MockEthereumDaClient_DaClient20___max_bytes_per_blobNtB5_6Common15verify_sequence
FN:37,_RNvXs5_NtNtCs2ExZl6DaDxw_18ethereum_da_client36___mock_MockEthereumDaClient_DaClient20___max_bytes_per_blobNtB5_6CommonNtNtNtCsl82brYPINY5_4core3ops4drop4Drop4drop
FN:37,_RNvMs6_NtNtCs2ExZl6DaDxw_18ethereum_da_client36___mock_MockEthereumDaClient_DaClient20___max_bytes_per_blobNtB5_11Expectation4call
FN:37,_RINvMs6_NtNtCs2ExZl6DaDxw_18ethereum_da_client36___mock_MockEthereumDaClient_DaClient20___max_bytes_per_blobNtB6_11Expectation12return_constpEBa_
FN:37,_RNCINvMs6_NtNtCs2ExZl6DaDxw_18ethereum_da_client36___mock_MockEthereumDaClient_DaClient20___max_bytes_per_blobNtB8_11Expectation12return_constpE0Bc_
FN:37,_RINvMs6_NtNtCs2ExZl6DaDxw_18ethereum_da_client36___mock_MockEthereumDaClient_DaClient20___max_bytes_per_blobNtB6_11Expectation15return_const_stpEBa_
FN:37,_RNCINvMs6_NtNtCs2ExZl6DaDxw_18ethereum_da_client36___mock_MockEthereumDaClient_DaClient20___max_bytes_per_blobNtB8_11Expectation15return_const_stpE0Bc_
FN:37,_RINvMs6_NtNtCs2ExZl6DaDxw_18ethereum_da_client36___mock_MockEthereumDaClient_DaClient20___max_bytes_per_blobNtB6_11Expectation11return_oncepEBa_
FN:37,_RINvMs6_NtNtCs2ExZl6DaDxw_18ethereum_da_client36___mock_MockEthereumDaClient_DaClient20___max_bytes_per_blobNtB6_11Expectation14return_once_stpEBa_
FN:37,_RINvMs6_NtNtCs2ExZl6DaDxw_18ethereum_da_client36___mock_MockEthereumDaClient_DaClient20___max_bytes_per_blobNtB6_11Expectation9returningpEBa_
FN:37,_RINvMs6_NtNtCs2ExZl6DaDxw_18ethereum_da_client36___mock_MockEthereumDaClient_DaClient20___max_bytes_per_blobNtB6_11Expectation12returning_stpEBa_
FN:37,_RNvMs6_NtNtCs2ExZl6DaDxw_18ethereum_da_client36___mock_MockEthereumDaClient_DaClient20___max_bytes_per_blobNtB5_11Expectation11in_sequence
FN:37,_RNvMs6_NtNtCs2ExZl6DaDxw_18ethereum_da_client36___mock_MockEthereumDaClient_DaClient20___max_bytes_per_blobNtB5_11Expectation7is_done
FN:37,_RNvMs6_NtNtCs2ExZl6DaDxw_18ethereum_da_client36___mock_MockEthereumDaClient_DaClient20___max_bytes_per_blobNtB5_11Expectation7matches
FN:37,_RNvMs6_NtNtCs2ExZl6DaDxw_18ethereum_da_client36___mock_MockEthereumDaClient_DaClient20___max_bytes_per_blobNtB5_11Expectation5never
FN:37,_RNvMs6_NtNtCs2ExZl6DaDxw_18ethereum_da_client36___mock_MockEthereumDaClient_DaClient20___max_bytes_per_blobNtB5_11Expectation3new
FN:37,_RNvMs6_NtNtCs2ExZl6DaDxw_18ethereum_da_client36___mock_MockEthereumDaClient_DaClient20___max_bytes_per_blobNtB5_11Expectation4once
FN:37,_RINvMs6_NtNtCs2ExZl6DaDxw_18ethereum_da_client36___mock_MockEthereumDaClient_DaClient20___max_bytes_per_blobNtB6_11Expectation5timespEBa_
FN:37,_RNvMs6_NtNtCs2ExZl6DaDxw_18ethereum_da_client36___mock_MockEthereumDaClient_DaClient20___max_bytes_per_blobNtB5_11Expectation4with
FN:37,_RINvMs6_NtNtCs2ExZl6DaDxw_18ethereum_da_client36___mock_MockEthereumDaClient_DaClient20___max_bytes_per_blobNtB6_11Expectation5withfpEBa_
FN:37,_RINvMs6_NtNtCs2ExZl6DaDxw_18ethereum_da_client36___mock_MockEthereumDaClient_DaClient20___max_bytes_per_blobNtB6_11Expectation8withf_stpEBa_
FN:37,_RNvXs7_NtNtCs2ExZl6DaDxw_18ethereum_da_client36___mock_MockEthereumDaClient_DaClient20___max_bytes_per_blobNtB5_11ExpectationNtNtCsl82brYPINY5_4core7default7Default7default
FN:37,_RNvMs8_NtNtCs2ExZl6DaDxw_18ethereum_da_client36___mock_MockEthereumDaClient_DaClient20___max_bytes_per_blobNtB5_12Expectations10checkpoint
FN:37,_RNvMs8_NtNtCs2ExZl6DaDxw_18ethereum_da_client36___mock_MockEthereumDaClient_DaClient20___max_bytes_per_blobNtB5_12Expectations6expect
FN:37,_RNvMs8_NtNtCs2ExZl6DaDxw_18ethereum_da_client36___mock_MockEthereumDaClient_DaClient20___max_bytes_per_blobNtB5_12Expectations3new
FN:37,_RNvXs9_NtNtCs2ExZl6DaDxw_18ethereum_da_client36___mock_MockEthereumDaClient_DaClient20___max_bytes_per_blobNtB5_12ExpectationsNtNtCsl82brYPINY5_4core7default7Default7default
FN:37,_RNvMsa_NtNtCs2ExZl6DaDxw_18ethereum_da_client36___mock_MockEthereumDaClient_DaClient20___max_bytes_per_blobNtB5_12Expectations4call
FN:37,_RNCNvMsa_NtNtCs2ExZl6DaDxw_18ethereum_da_client36___mock_MockEthereumDaClient_DaClient20___max_bytes_per_blobNtB7_12Expectations4call0Bb_
FN:37,_RNCNvMsa_NtNtCs2ExZl6DaDxw_18ethereum_da_client36___mock_MockEthereumDaClient_DaClient20___max_bytes_per_blobNtB7_12Expectations4calls_0Bb_
FN:37,_RNvXs1_Cs2ExZl6DaDxw_18ethereum_da_clientNtB5_29MockEthereumDaClient_DaClientNtNtCsl82brYPINY5_4core7default7Default7default
FN:37,_RNvMs2_Cs2ExZl6DaDxw_18ethereum_da_clientNtB5_29MockEthereumDaClient_DaClient10checkpoint
FN:37,_RNvMs3_Cs2ExZl6DaDxw_18ethereum_da_clientNtB5_20MockEthereumDaClient10checkpoint
FN:37,_RNvMs3_Cs2ExZl6DaDxw_18ethereum_da_clientNtB5_20MockEthereumDaClient3new
FN:37,_RNvXs6_Cs2ExZl6DaDxw_18ethereum_da_clientNtB5_20MockEthereumDaClientNtCs9dA0Hzxrugg_19da_client_interface8DaClient18publish_state_diff
FN:37,_RNCNvXs6_Cs2ExZl6DaDxw_18ethereum_da_clientNtB7_20MockEthereumDaClientNtCs9dA0Hzxrugg_19da_client_interface8DaClient18publish_state_diff0B7_
FN:37,_RNvXs6_Cs2ExZl6DaDxw_18ethereum_da_clientNtB5_20MockEthereumDaClientNtCs9dA0Hzxrugg_19da_client_interface8DaClient16verify_inclusion
FN:37,_RNCNvXs6_Cs2ExZl6DaDxw_18ethereum_da_clientNtB7_20MockEthereumDaClientNtCs9dA0Hzxrugg_19da_client_interface8DaClient16verify_inclusion0B7_
FN:37,_RNvXs6_Cs2ExZl6DaDxw_18ethereum_da_clientNtB5_20MockEthereumDaClientNtCs9dA0Hzxrugg_19da_client_interface8DaClient16max_blob_per_txn
FN:37,_RNCNvXs6_Cs2ExZl6DaDxw_18ethereum_da_clientNtB7_20MockEthereumDaClientNtCs9dA0Hzxrugg_19da_client_interface8DaClient16max_blob_per_txn0B7_
FN:37,_RNvXs6_Cs2ExZl6DaDxw_18ethereum_da_clientNtB5_20MockEthereumDaClientNtCs9dA0Hzxrugg_19da_client_interface8DaClient18max_bytes_per_blob
FN:37,_RNCNvXs6_Cs2ExZl6DaDxw_18ethereum_da_clientNtB7_20MockEthereumDaClientNtCs9dA0Hzxrugg_19da_client_interface8DaClient18max_bytes_per_blob0B7_
FN:37,_RNvMs4_Cs2ExZl6DaDxw_18ethereum_da_clientNtB5_20MockEthereumDaClient25expect_publish_state_diff
FN:37,_RNvMs4_Cs2ExZl6DaDxw_18ethereum_da_clientNtB5_20MockEthereumDaClient23expect_verify_inclusion
FN:37,_RNvMs4_Cs2ExZl6DaDxw_18ethereum_da_clientNtB5_20MockEthereumDaClient23expect_max_blob_per_txn
FN:37,_RNvMs4_Cs2ExZl6DaDxw_18ethereum_da_clientNtB5_20MockEthereumDaClient25expect_max_bytes_per_blob
FN:110,_RNvXCs2ExZl6DaDxw_18ethereum_da_clientNtB2_16EthereumDaClientINtNtCsl82brYPINY5_4core7convert4FromNtNtB2_6config16EthereumDaConfigE4from
FN:215,_RNvNtCs2ExZl6DaDxw_18ethereum_da_client5tests21__vec_u8_to_hex_string
FN:216,_RNCNvNtCs2ExZl6DaDxw_18ethereum_da_client5tests21__vec_u8_to_hex_string0B5_
FN:37,_RNvMNtNtCshoxz5TBPcD3_18ethereum_da_client36___mock_MockEthereumDaClient_DaClient20___publish_state_diffNtB2_5Rfunc8call_mut
FN:37,_RNvMs0_NtNtCshoxz5TBPcD3_18ethereum_da_client36___mock_MockEthereumDaClient_DaClient20___publish_state_diffNtB5_7Matcher7matches
FN:37,_RNCNvMs0_NtNtCshoxz5TBPcD3_18ethereum_da_client36___mock_MockEthereumDaClient_DaClient20___publish_state_diffNtB7_7Matcher7matches0Bb_
FN:37,_RNvXs2_NtNtCshoxz5TBPcD3_18ethereum_da_client36___mock_MockEthereumDaClient_DaClient20___publish_state_diffNtB5_7MatcherNtNtCsl82brYPINY5_4core3fmt7Display3fmt
FN:37,_RNvMs4_NtNtCshoxz5TBPcD3_18ethereum_da_client36___mock_MockEthereumDaClient_DaClient20___publish_state_diffNtB5_6Common4call
FN:37,_RNvMs4_NtNtCshoxz5TBPcD3_18ethereum_da_client36___mock_MockEthereumDaClient_DaClient20___publish_state_diffNtB5_6Common11in_sequence
FN:37,_RNvMs4_NtNtCshoxz5TBPcD3_18ethereum_da_client36___mock_MockEthereumDaClient_DaClient20___publish_state_diffNtB5_6Common7is_done
FN:37,_RNvMs4_NtNtCshoxz5TBPcD3_18ethereum_da_client36___mock_MockEthereumDaClient_DaClient20___publish_state_diffNtB5_6Common7matches
FN:37,_RNvMs4_NtNtCshoxz5TBPcD3_18ethereum_da_client36___mock_MockEthereumDaClient_DaClient20___publish_state_diffNtB5_6Common16satisfy_sequence
FN:37,_RNvMs4_NtNtCshoxz5TBPcD3_18ethereum_da_client36___mock_MockEthereumDaClient_DaClient20___publish_state_diffNtB5_6Common15verify_sequence
FN:37,_RNvXs5_NtNtCshoxz5TBPcD3_18ethereum_da_client36___mock_MockEthereumDaClient_DaClient20___publish_state_diffNtB5_6CommonNtNtNtCsl82brYPINY5_4core3ops4drop4Drop4drop
FN:37,_RNvMs6_NtNtCshoxz5TBPcD3_18ethereum_da_client36___mock_MockEthereumDaClient_DaClient20___publish_state_diffNtB5_11Expectation4call
FN:37,_RNvMs6_NtNtCshoxz5TBPcD3_18ethereum_da_client36___mock_MockEthereumDaClient_DaClient20___publish_state_diffNtB5_11Expectation11in_sequence
FN:37,_RNvMs6_NtNtCshoxz5TBPcD3_18ethereum_da_client36___mock_MockEthereumDaClient_DaClient20___publish_state_diffNtB5_11Expectation7is_done
FN:37,_RNvMs6_NtNtCshoxz5TBPcD3_18ethereum_da_client36___mock_MockEthereumDaClient_DaClient20___publish_state_diffNtB5_11Expectation7matches
FN:37,_RNvMs6_NtNtCshoxz5TBPcD3_18ethereum_da_client36___mock_MockEthereumDaClient_DaClient20___publish_state_diffNtB5_11Expectation3new
FN:37,_RNvMs6_NtNtCshoxz5TBPcD3_18ethereum_da_client36___mock_MockEthereumDaClient_DaClient20___publish_state_diffNtB5_11Expectation4once
FN:37,_RINvMs6_NtNtCshoxz5TBPcD3_18ethereum_da_client36___mock_MockEthereumDaClient_DaClient20___publish_state_diffNtB6_11Expectation5timesjEBa_
FN:37,_RINvMs4_NtNtCshoxz5TBPcD3_18ethereum_da_client36___mock_MockEthereumDaClient_DaClient20___publish_state_diffNtB6_6Common5timesjEBa_
FN:37,_RNvXs7_NtNtCshoxz5TBPcD3_18ethereum_da_client36___mock_MockEthereumDaClient_DaClient20___publish_state_diffNtB5_11ExpectationNtNtCsl82brYPINY5_4core7default7Default7default
FN:37,_RNvXs3_NtNtCshoxz5TBPcD3_18ethereum_da_client36___mock_MockEthereumDaClient_DaClient20___publish_state_diffNtB5_6CommonNtNtCsl82brYPINY5_4core7default7Default7default
FN:37,_RNvXs1_NtNtCshoxz5TBPcD3_18ethereum_da_client36___mock_MockEthereumDaClient_DaClient20___publish_state_diffNtB5_7MatcherNtNtCsl82brYPINY5_4core7default7Default7default
FN:37,_RNvXs_NtNtCshoxz5TBPcD3_18ethereum_da_client36___mock_MockEthereumDaClient_DaClient20___publish_state_diffNtB4_5RfuncNtNtCsl82brYPINY5_4core7default7Default7default
FN:37,_RNvMs8_NtNtCshoxz5TBPcD3_18ethereum_da_client36___mock_MockEthereumDaClient_DaClient20___publish_state_diffNtB5_12Expectations10checkpoint
FN:37,_RNvMs8_NtNtCshoxz5TBPcD3_18ethereum_da_client36___mock_MockEthereumDaClient_DaClient20___publish_state_diffNtB5_12Expectations6expect
FN:37,_RNvMsa_NtNtCshoxz5TBPcD3_18ethereum_da_client36___mock_MockEthereumDaClient_DaClient20___publish_state_diffNtB5_12Expectations4call
FN:37,_RNCNvMsa_NtNtCshoxz5TBPcD3_18ethereum_da_client36___mock_MockEthereumDaClient_DaClient20___publish_state_diffNtB7_12Expectations4calls_0Bb_
FN:37,_RNCNvMsa_NtNtCshoxz5TBPcD3_18ethereum_da_client36___mock_MockEthereumDaClient_DaClient20___publish_state_diffNtB7_12Expectations4call0Bb_
FN:37,_RNvMNtNtCshoxz5TBPcD3_18ethereum_da_client36___mock_MockEthereumDaClient_DaClient18___verify_inclusionNtB2_5Rfunc8call_mut
FN:37,_RNvMs0_NtNtCshoxz5TBPcD3_18ethereum_da_client36___mock_MockEthereumDaClient_DaClient18___verify_inclusionNtB5_7Matcher7matches
FN:37,_RNCNvMs0_NtNtCshoxz5TBPcD3_18ethereum_da_client36___mock_MockEthereumDaClient_DaClient18___verify_inclusionNtB7_7Matcher7matches0Bb_
FN:37,_RNvXs2_NtNtCshoxz5TBPcD3_18ethereum_da_client36___mock_MockEthereumDaClient_DaClient18___verify_inclusionNtB5_7MatcherNtNtCsl82brYPINY5_4core3fmt7Display3fmt
FN:37,_RNvMs4_NtNtCshoxz5TBPcD3_18ethereum_da_client36___mock_MockEthereumDaClient_DaClient18___verify_inclusionNtB5_6Common4call
FN:37,_RNvMs4_NtNtCshoxz5TBPcD3_18ethereum_da_client36___mock_MockEthereumDaClient_DaClient18___verify_inclusionNtB5_6Common11in_sequence
FN:37,_RNvMs4_NtNtCshoxz5TBPcD3_18ethereum_da_client36___mock_MockEthereumDaClient_DaClient18___verify_inclusionNtB5_6Common7is_done
FN:37,_RNvMs4_NtNtCshoxz5TBPcD3_18ethereum_da_client36___mock_MockEthereumDaClient_DaClient18___verify_inclusionNtB5_6Common7matches
FN:37,_RNvMs4_NtNtCshoxz5TBPcD3_18ethereum_da_client36___mock_MockEthereumDaClient_DaClient18___verify_inclusionNtB5_6Common16satisfy_sequence
FN:37,_RNvMs4_NtNtCshoxz5TBPcD3_18ethereum_da_client36___mock_MockEthereumDaClient_DaClient18___verify_inclusionNtB5_6Common15verify_sequence
FN:37,_RNvXs5_NtNtCshoxz5TBPcD3_18ethereum_da_client36___mock_MockEthereumDaClient_DaClient18___verify_inclusionNtB5_6CommonNtNtNtCsl82brYPINY5_4core3ops4drop4Drop4drop
FN:37,_RNvMs6_NtNtCshoxz5TBPcD3_18ethereum_da_client36___mock_MockEthereumDaClient_DaClient18___verify_inclusionNtB5_11Expectation4call
FN:37,_RNvMs6_NtNtCshoxz5TBPcD3_18ethereum_da_client36___mock_MockEthereumDaClient_DaClient18___verify_inclusionNtB5_11Expectation11in_sequence
FN:37,_RNvMs6_NtNtCshoxz5TBPcD3_18ethereum_da_client36___mock_MockEthereumDaClient_DaClient18___verify_inclusionNtB5_11Expectation7is_done
FN:37,_RNvMs6_NtNtCshoxz5TBPcD3_18ethereum_da_client36___mock_MockEthereumDaClient_DaClient18___verify_inclusionNtB5_11Expectation7matches
FN:37,_RNvMs6_NtNtCshoxz5TBPcD3_18ethereum_da_client36___mock_MockEthereumDaClient_DaClient18___verify_inclusionNtB5_11Expectation3new
FN:37,_RNvMs6_NtNtCshoxz5TBPcD3_18ethereum_da_client36___mock_MockEthereumDaClient_DaClient18___verify_inclusionNtB5_11Expectation4once
FN:37,_RINvMs6_NtNtCshoxz5TBPcD3_18ethereum_da_client36___mock_MockEthereumDaClient_DaClient18___verify_inclusionNtB6_11Expectation5timesjEBa_
FN:37,_RINvMs4_NtNtCshoxz5TBPcD3_18ethereum_da_client36___mock_MockEthereumDaClient_DaClient18___verify_inclusionNtB6_6Common5timesjEBa_
FN:37,_RNvXs7_NtNtCshoxz5TBPcD3_18ethereum_da_client36___mock_MockEthereumDaClient_DaClient18___verify_inclusionNtB5_11ExpectationNtNtCsl82brYPINY5_4core7default7Default7default
FN:37,_RNvXs3_NtNtCshoxz5TBPcD3_18ethereum_da_client36___mock_MockEthereumDaClient_DaClient18___verify_inclusionNtB5_6CommonNtNtCsl82brYPINY5_4core7default7Default7default
FN:37,_RNvXs1_NtNtCshoxz5TBPcD3_18ethereum_da_client36___mock_MockEthereumDaClient_DaClient18___verify_inclusionNtB5_7MatcherNtNtCsl82brYPINY5_4core7default7Default7default
FN:37,_RNvXs_NtNtCshoxz5TBPcD3_18ethereum_da_client36___mock_MockEthereumDaClient_DaClient18___verify_inclusionNtB4_5RfuncNtNtCsl82brYPINY5_4core7default7Default7default
FN:37,_RNvMs8_NtNtCshoxz5TBPcD3_18ethereum_da_client36___mock_MockEthereumDaClient_DaClient18___verify_inclusionNtB5_12Expectations10checkpoint
FN:37,_RNvMs8_NtNtCshoxz5TBPcD3_18ethereum_da_client36___mock_MockEthereumDaClient_DaClient18___verify_inclusionNtB5_12Expectations6expect
FN:37,_RNvMsa_NtNtCshoxz5TBPcD3_18ethereum_da_client36___mock_MockEthereumDaClient_DaClient18___verify_inclusionNtB5_12Expectations4call
FN:37,_RNCNvMsa_NtNtCshoxz5TBPcD3_18ethereum_da_client36___mock_MockEthereumDaClient_DaClient18___verify_inclusionNtB7_12Expectations4calls_0Bb_
FN:37,_RNCNvMsa_NtNtCshoxz5TBPcD3_18ethereum_da_client36___mock_MockEthereumDaClient_DaClient18___verify_inclusionNtB7_12Expectations4call0Bb_
FN:37,_RNvMNtNtCshoxz5TBPcD3_18ethereum_da_client36___mock_MockEthereumDaClient_DaClient18___max_blob_per_txnNtB2_5Rfunc8call_mut
FN:37,_RNvMs0_NtNtCshoxz5TBPcD3_18ethereum_da_client36___mock_MockEthereumDaClient_DaClient18___max_blob_per_txnNtB5_7Matcher7matches
FN:37,_RNCNvMs0_NtNtCshoxz5TBPcD3_18ethereum_da_client36___mock_MockEthereumDaClient_DaClient18___max_blob_per_txnNtB7_7Matcher7matches0Bb_
FN:37,_RNvXs2_NtNtCshoxz5TBPcD3_18ethereum_da_client36___mock_MockEthereumDaClient_DaClient18___max_blob_per_txnNtB5_7MatcherNtNtCsl82brYPINY5_4core3fmt7Display3fmt
FN:37,_RNvMs4_NtNtCshoxz5TBPcD3_18ethereum_da_client36___mock_MockEthereumDaClient_DaClient18___max_blob_per_txnNtB5_6Common4call
FN:37,_RNvMs4_NtNtCshoxz5TBPcD3_18ethereum_da_client36___mock_MockEthereumDaClient_DaClient18___max_blob_per_txnNtB5_6Common11in_sequence
FN:37,_RNvMs4_NtNtCshoxz5TBPcD3_18ethereum_da_client36___mock_MockEthereumDaClient_DaClient18___max_blob_per_txnNtB5_6Common7is_done
FN:37,_RNvMs4_NtNtCshoxz5TBPcD3_18ethereum_da_client36___mock_MockEthereumDaClient_DaClient18___max_blob_per_txnNtB5_6Common7matches
FN:37,_RNvMs4_NtNtCshoxz5TBPcD3_18ethereum_da_client36___mock_MockEthereumDaClient_DaClient18___max_blob_per_txnNtB5_6Common16satisfy_sequence
FN:37,_RNvMs4_NtNtCshoxz5TBPcD3_18ethereum_da_client36___mock_MockEthereumDaClient_DaClient18___max_blob_per_txnNtB5_6Common4with
FN:37,_RNvMs4_NtNtCshoxz5TBPcD3_18ethereum_da_client36___mock_MockEthereumDaClient_DaClient18___max_blob_per_txnNtB5_6Common15verify_sequence
FN:37,_RNvXs5_NtNtCshoxz5TBPcD3_18ethereum_da_client36___mock_MockEthereumDaClient_DaClient18___max_blob_per_txnNtB5_6CommonNtNtNtCsl82brYPINY5_4core3ops4drop4Drop4drop
FN:37,_RNvMs6_NtNtCshoxz5TBPcD3_18ethereum_da_client36___mock_MockEthereumDaClient_DaClient18___max_blob_per_txnNtB5_11Expectation4call
FN:37,_RNvMs6_NtNtCshoxz5TBPcD3_18ethereum_da_client36___mock_MockEthereumDaClient_DaClient18___max_blob_per_txnNtB5_11Expectation11in_sequence
FN:37,_RNvMs6_NtNtCshoxz5TBPcD3_18ethereum_da_client36___mock_MockEthereumDaClient_DaClient18___max_blob_per_txnNtB5_11Expectation7is_done
FN:37,_RNvMs6_NtNtCshoxz5TBPcD3_18ethereum_da_client36___mock_MockEthereumDaClient_DaClient18___max_blob_per_txnNtB5_11Expectation7matches
FN:37,_RNvMs6_NtNtCshoxz5TBPcD3_18ethereum_da_client36___mock_MockEthereumDaClient_DaClient18___max_blob_per_txnNtB5_11Expectation3new
FN:37,_RNvMs6_NtNtCshoxz5TBPcD3_18ethereum_da_client36___mock_MockEthereumDaClient_DaClient18___max_blob_per_txnNtB5_11Expectation4once
FN:37,_RINvMs6_NtNtCshoxz5TBPcD3_18ethereum_da_client36___mock_MockEthereumDaClient_DaClient18___max_blob_per_txnNtB6_11Expectation5timesjEBa_
FN:37,_RINvMs4_NtNtCshoxz5TBPcD3_18ethereum_da_client36___mock_MockEthereumDaClient_DaClient18___max_blob_per_txnNtB6_6Common5timesjEBa_
FN:37,_RNvMs6_NtNtCshoxz5TBPcD3_18ethereum_da_client36___mock_MockEthereumDaClient_DaClient18___max_blob_per_txnNtB5_11Expectation4with
FN:37,_RNvXs7_NtNtCshoxz5TBPcD3_18ethereum_da_client36___mock_MockEthereumDaClient_DaClient18___max_blob_per_txnNtB5_11ExpectationNtNtCsl82brYPINY5_4core7default7Default7default
FN:37,_RNvXs3_NtNtCshoxz5TBPcD3_18ethereum_da_client36___mock_MockEthereumDaClient_DaClient18___max_blob_per_txnNtB5_6CommonNtNtCsl82brYPINY5_4core7default7Default7default
FN:37,_RNvXs1_NtNtCshoxz5TBPcD3_18ethereum_da_client36___mock_MockEthereumDaClient_DaClient18___max_blob_per_txnNtB5_7MatcherNtNtCsl82brYPINY5_4core7default7Default7default
FN:37,_RNvXs_NtNtCshoxz5TBPcD3_18ethereum_da_client36___mock_MockEthereumDaClient_DaClient18___max_blob_per_txnNtB4_5RfuncNtNtCsl82brYPINY5_4core7default7Default7default
FN:37,_RNvMs8_NtNtCshoxz5TBPcD3_18ethereum_da_client36___mock_MockEthereumDaClient_DaClient18___max_blob_per_txnNtB5_12Expectations10checkpoint
FN:37,_RNvMs8_NtNtCshoxz5TBPcD3_18ethereum_da_client36___mock_MockEthereumDaClient_DaClient18___max_blob_per_txnNtB5_12Expectations6expect
FN:37,_RNvMsa_NtNtCshoxz5TBPcD3_18ethereum_da_client36___mock_MockEthereumDaClient_DaClient18___max_blob_per_txnNtB5_12Expectations4call
FN:37,_RNCNvMsa_NtNtCshoxz5TBPcD3_18ethereum_da_client36___mock_MockEthereumDaClient_DaClient18___max_blob_per_txnNtB7_12Expectations4calls_0Bb_
FN:37,_RNCNvMsa_NtNtCshoxz5TBPcD3_18ethereum_da_client36___mock_MockEthereumDaClient_DaClient18___max_blob_per_txnNtB7_12Expectations4call0Bb_
FN:37,_RNvMNtNtCshoxz5TBPcD3_18ethereum_da_client36___mock_MockEthereumDaClient_DaClient20___max_bytes_per_blobNtB2_5Rfunc8call_mut
FN:37,_RNvMs0_NtNtCshoxz5TBPcD3_18ethereum_da_client36___mock_MockEthereumDaClient_DaClient20___max_bytes_per_blobNtB5_7Matcher7matches
FN:37,_RNCNvMs0_NtNtCshoxz5TBPcD3_18ethereum_da_client36___mock_MockEthereumDaClient_DaClient20___max_bytes_per_blobNtB7_7Matcher7matches0Bb_
FN:37,_RNvXs2_NtNtCshoxz5TBPcD3_18ethereum_da_client36___mock_MockEthereumDaClient_DaClient20___max_bytes_per_blobNtB5_7MatcherNtNtCsl82brYPINY5_4core3fmt7Display3fmt
FN:37,_RNvMs4_NtNtCshoxz5TBPcD3_18ethereum_da_client36___mock_MockEthereumDaClient_DaClient20___max_bytes_per_blobNtB5_6Common4call
FN:37,_RNvMs4_NtNtCshoxz5TBPcD3_18ethereum_da_client36___mock_MockEthereumDaClient_DaClient20___max_bytes_per_blobNtB5_6Common11in_sequence
FN:37,_RNvMs4_NtNtCshoxz5TBPcD3_18ethereum_da_client36___mock_MockEthereumDaClient_DaClient20___max_bytes_per_blobNtB5_6Common7is_done
FN:37,_RNvMs4_NtNtCshoxz5TBPcD3_18ethereum_da_client36___mock_MockEthereumDaClient_DaClient20___max_bytes_per_blobNtB5_6Common7matches
FN:37,_RNvMs4_NtNtCshoxz5TBPcD3_18ethereum_da_client36___mock_MockEthereumDaClient_DaClient20___max_bytes_per_blobNtB5_6Common16satisfy_sequence
FN:37,_RNvMs4_NtNtCshoxz5TBPcD3_18ethereum_da_client36___mock_MockEthereumDaClient_DaClient20___max_bytes_per_blobNtB5_6Common4with
FN:37,_RNvMs4_NtNtCshoxz5TBPcD3_18ethereum_da_client36___mock_MockEthereumDaClient_DaClient20___max_bytes_per_blobNtB5_6Common15verify_sequence
FN:37,_RNvXs5_NtNtCshoxz5TBPcD3_18ethereum_da_client36___mock_MockEthereumDaClient_DaClient20___max_bytes_per_blobNtB5_6CommonNtNtNtCsl82brYPINY5_4core3ops4drop4Drop4drop
FN:37,_RNvMs6_NtNtCshoxz5TBPcD3_18ethereum_da_client36___mock_MockEthereumDaClient_DaClient20___max_bytes_per_blobNtB5_11Expectation4call
FN:37,_RNvMs6_NtNtCshoxz5TBPcD3_18ethereum_da_client36___mock_MockEthereumDaClient_DaClient20___max_bytes_per_blobNtB5_11Expectation11in_sequence
FN:37,_RNvMs6_NtNtCshoxz5TBPcD3_18ethereum_da_client36___mock_MockEthereumDaClient_DaClient20___max_bytes_per_blobNtB5_11Expectation7is_done
FN:37,_RNvMs6_NtNtCshoxz5TBPcD3_18ethereum_da_client36___mock_MockEthereumDaClient_DaClient20___max_bytes_per_blobNtB5_11Expectation7matches
FN:37,_RNvMs6_NtNtCshoxz5TBPcD3_18ethereum_da_client36___mock_MockEthereumDaClient_DaClient20___max_bytes_per_blobNtB5_11Expectation3new
FN:37,_RNvMs6_NtNtCshoxz5TBPcD3_18ethereum_da_client36___mock_MockEthereumDaClient_DaClient20___max_bytes_per_blobNtB5_11Expectation4once
FN:37,_RINvMs6_NtNtCshoxz5TBPcD3_18ethereum_da_client36___mock_MockEthereumDaClient_DaClient20___max_bytes_per_blobNtB6_11Expectation5timesjEBa_
FN:37,_RINvMs4_NtNtCshoxz5TBPcD3_18ethereum_da_client36___mock_MockEthereumDaClient_DaClient20___max_bytes_per_blobNtB6_6Common5timesjEBa_
FN:37,_RNvMs6_NtNtCshoxz5TBPcD3_18ethereum_da_client36___mock_MockEthereumDaClient_DaClient20___max_bytes_per_blobNtB5_11Expectation4with
FN:37,_RNvXs7_NtNtCshoxz5TBPcD3_18ethereum_da_client36___mock_MockEthereumDaClient_DaClient20___max_bytes_per_blobNtB5_11ExpectationNtNtCsl82brYPINY5_4core7default7Default7default
FN:37,_RNvXs3_NtNtCshoxz5TBPcD3_18ethereum_da_client36___mock_MockEthereumDaClient_DaClient20___max_bytes_per_blobNtB5_6CommonNtNtCsl82brYPINY5_4core7default7Default7default
FN:37,_RNvXs1_NtNtCshoxz5TBPcD3_18ethereum_da_client36___mock_MockEthereumDaClient_DaClient20___max_bytes_per_blobNtB5_7MatcherNtNtCsl82brYPINY5_4core7default7Default7default
FN:37,_RNvXs_NtNtCshoxz5TBPcD3_18ethereum_da_client36___mock_MockEthereumDaClient_DaClient20___max_bytes_per_blobNtB4_5RfuncNtNtCsl82brYPINY5_4core7default7Default7default
FN:37,_RNvMs8_NtNtCshoxz5TBPcD3_18ethereum_da_client36___mock_MockEthereumDaClient_DaClient20___max_bytes_per_blobNtB5_12Expectations10checkpoint
FN:37,_RNvMs8_NtNtCshoxz5TBPcD3_18ethereum_da_client36___mock_MockEthereumDaClient_DaClient20___max_bytes_per_blobNtB5_12Expectations6expect
FN:37,_RNvMsa_NtNtCshoxz5TBPcD3_18ethereum_da_client36___mock_MockEthereumDaClient_DaClient20___max_bytes_per_blobNtB5_12Expectations4call
FN:37,_RNCNvMsa_NtNtCshoxz5TBPcD3_18ethereum_da_client36___mock_MockEthereumDaClient_DaClient20___max_bytes_per_blobNtB7_12Expectations4calls_0Bb_
FN:37,_RNCNvMsa_NtNtCshoxz5TBPcD3_18ethereum_da_client36___mock_MockEthereumDaClient_DaClient20___max_bytes_per_blobNtB7_12Expectations4call0Bb_
FN:110,_RNvXCshoxz5TBPcD3_18ethereum_da_clientNtB2_16EthereumDaClientINtNtCsl82brYPINY5_4core7convert4FromNtNtB2_6config16EthereumDaConfigE4from
FN:122,_RNvCshoxz5TBPcD3_18ethereum_da_client15prepare_sidecar
FN:125,_RNCNvCshoxz5TBPcD3_18ethereum_da_client15prepare_sidecar0B3_
FN:37,_RNvXs_Cshoxz5TBPcD3_18ethereum_da_clientNtB4_20MockEthereumDaClientNtNtCsl82brYPINY5_4core3fmt5Debug3fmt
FN:37,_RNvMs2_Cshoxz5TBPcD3_18ethereum_da_clientNtB5_29MockEthereumDaClient_DaClient10checkpoint
FN:37,_RNvMs3_Cshoxz5TBPcD3_18ethereum_da_clientNtB5_20MockEthereumDaClient10checkpoint
FN:37,_RNvMs4_Cshoxz5TBPcD3_18ethereum_da_clientNtB5_20MockEthereumDaClient25expect_publish_state_diff
FN:37,_RNvMs4_Cshoxz5TBPcD3_18ethereum_da_clientNtB5_20MockEthereumDaClient23expect_verify_inclusion
FN:37,_RNvMs4_Cshoxz5TBPcD3_18ethereum_da_clientNtB5_20MockEthereumDaClient23expect_max_blob_per_txn
FN:37,_RNvMs4_Cshoxz5TBPcD3_18ethereum_da_clientNtB5_20MockEthereumDaClient25expect_max_bytes_per_blob
FN:40,_RNvXs5_Cshoxz5TBPcD3_18ethereum_da_clientNtB5_16EthereumDaClientNtCs9dA0Hzxrugg_19da_client_interface8DaClient18publish_state_diff
FN:40,_RNCNvXs5_Cshoxz5TBPcD3_18ethereum_da_clientNtB7_16EthereumDaClientNtCs9dA0Hzxrugg_19da_client_interface8DaClient18publish_state_diff0B7_
FN:86,_RNvXs5_Cshoxz5TBPcD3_18ethereum_da_clientNtB5_16EthereumDaClientNtCs9dA0Hzxrugg_19da_client_interface8DaClient16verify_inclusion
FN:86,_RNCNvXs5_Cshoxz5TBPcD3_18ethereum_da_clientNtB7_16EthereumDaClientNtCs9dA0Hzxrugg_19da_client_interface8DaClient16verify_inclusion0B7_
FN:100,_RNvXs5_Cshoxz5TBPcD3_18ethereum_da_clientNtB5_16EthereumDaClientNtCs9dA0Hzxrugg_19da_client_interface8DaClient16max_blob_per_txn
FN:100,_RNCNvXs5_Cshoxz5TBPcD3_18ethereum_da_clientNtB7_16EthereumDaClientNtCs9dA0Hzxrugg_19da_client_interface8DaClient16max_blob_per_txn0B7_
FN:104,_RNvXs5_Cshoxz5TBPcD3_18ethereum_da_clientNtB5_16EthereumDaClientNtCs9dA0Hzxrugg_19da_client_interface8DaClient18max_bytes_per_blob
FN:104,_RNCNvXs5_Cshoxz5TBPcD3_18ethereum_da_clientNtB7_16EthereumDaClientNtCs9dA0Hzxrugg_19da_client_interface8DaClient18max_bytes_per_blob0B7_
FN:37,_RNvXs6_Cshoxz5TBPcD3_18ethereum_da_clientNtB5_20MockEthereumDaClientNtCs9dA0Hzxrugg_19da_client_interface8DaClient18publish_state_diff
FN:37,_RNCNvXs6_Cshoxz5TBPcD3_18ethereum_da_clientNtB7_20MockEthereumDaClientNtCs9dA0Hzxrugg_19da_client_interface8DaClient18publish_state_diff0B7_
FN:37,_RNvXs6_Cshoxz5TBPcD3_18ethereum_da_clientNtB5_20MockEthereumDaClientNtCs9dA0Hzxrugg_19da_client_interface8DaClient16verify_inclusion
FN:37,_RNCNvXs6_Cshoxz5TBPcD3_18ethereum_da_clientNtB7_20MockEthereumDaClientNtCs9dA0Hzxrugg_19da_client_interface8DaClient16verify_inclusion0B7_
FN:37,_RNvXs6_Cshoxz5TBPcD3_18ethereum_da_clientNtB5_20MockEthereumDaClientNtCs9dA0Hzxrugg_19da_client_interface8DaClient16max_blob_per_txn
FN:37,_RNCNvXs6_Cshoxz5TBPcD3_18ethereum_da_clientNtB7_20MockEthereumDaClientNtCs9dA0Hzxrugg_19da_client_interface8DaClient16max_blob_per_txn0B7_
FN:37,_RNvXs6_Cshoxz5TBPcD3_18ethereum_da_clientNtB5_20MockEthereumDaClientNtCs9dA0Hzxrugg_19da_client_interface8DaClient18max_bytes_per_blob
FN:37,_RNCNvXs6_Cshoxz5TBPcD3_18ethereum_da_clientNtB7_20MockEthereumDaClientNtCs9dA0Hzxrugg_19da_client_interface8DaClient18max_bytes_per_blob0B7_
FN:37,_RNvXs0_Cshoxz5TBPcD3_18ethereum_da_clientNtB5_20MockEthereumDaClientNtNtCsl82brYPINY5_4core7default7Default7default
FN:37,_RNvMs4_NtNtCshoxz5TBPcD3_18ethereum_da_client36___mock_MockEthereumDaClient_DaClient20___publish_state_diffNtB5_6Common5never
FN:37,_RINvMs4_NtNtCshoxz5TBPcD3_18ethereum_da_client36___mock_MockEthereumDaClient_DaClient20___publish_state_diffNtB6_6Common4withppEBa_
FN:37,_RINvMs4_NtNtCshoxz5TBPcD3_18ethereum_da_client36___mock_MockEthereumDaClient_DaClient20___publish_state_diffNtB6_6Common5withfpEBa_
FN:37,_RINvMs4_NtNtCshoxz5TBPcD3_18ethereum_da_client36___mock_MockEthereumDaClient_DaClient20___publish_state_diffNtB6_6Common8withf_stpEBa_
FN:37,_RINvMs6_NtNtCshoxz5TBPcD3_18ethereum_da_client36___mock_MockEthereumDaClient_DaClient20___publish_state_diffNtB6_11Expectation12return_constpEBa_
FN:37,_RNCINvMs6_NtNtCshoxz5TBPcD3_18ethereum_da_client36___mock_MockEthereumDaClient_DaClient20___publish_state_diffNtB8_11Expectation12return_constpE0Bc_
FN:37,_RINvMs6_NtNtCshoxz5TBPcD3_18ethereum_da_client36___mock_MockEthereumDaClient_DaClient20___publish_state_diffNtB6_11Expectation15return_const_stpEBa_
FN:37,_RNCINvMs6_NtNtCshoxz5TBPcD3_18ethereum_da_client36___mock_MockEthereumDaClient_DaClient20___publish_state_diffNtB8_11Expectation15return_const_stpE0Bc_
FN:37,_RINvMs6_NtNtCshoxz5TBPcD3_18ethereum_da_client36___mock_MockEthereumDaClient_DaClient20___publish_state_diffNtB6_11Expectation11return_oncepEBa_
FN:37,_RINvMs6_NtNtCshoxz5TBPcD3_18ethereum_da_client36___mock_MockEthereumDaClient_DaClient20___publish_state_diffNtB6_11Expectation14return_once_stpEBa_
FN:37,_RINvMs6_NtNtCshoxz5TBPcD3_18ethereum_da_client36___mock_MockEthereumDaClient_DaClient20___publish_state_diffNtB6_11Expectation9returningpEBa_
FN:37,_RINvMs6_NtNtCshoxz5TBPcD3_18ethereum_da_client36___mock_MockEthereumDaClient_DaClient20___publish_state_diffNtB6_11Expectation12returning_stpEBa_
FN:37,_RNvMs6_NtNtCshoxz5TBPcD3_18ethereum_da_client36___mock_MockEthereumDaClient_DaClient20___publish_state_diffNtB5_11Expectation5never
FN:37,_RINvMs6_NtNtCshoxz5TBPcD3_18ethereum_da_client36___mock_MockEthereumDaClient_DaClient20___publish_state_diffNtB6_11Expectation4withppEBa_
FN:37,_RINvMs6_NtNtCshoxz5TBPcD3_18ethereum_da_client36___mock_MockEthereumDaClient_DaClient20___publish_state_diffNtB6_11Expectation5withfpEBa_
FN:37,_RINvMs6_NtNtCshoxz5TBPcD3_18ethereum_da_client36___mock_MockEthereumDaClient_DaClient20___publish_state_diffNtB6_11Expectation8withf_stpEBa_
FN:37,_RNvMs8_NtNtCshoxz5TBPcD3_18ethereum_da_client36___mock_MockEthereumDaClient_DaClient20___publish_state_diffNtB5_12Expectations3new
FN:37,_RNvXs9_NtNtCshoxz5TBPcD3_18ethereum_da_client36___mock_MockEthereumDaClient_DaClient20___publish_state_diffNtB5_12ExpectationsNtNtCsl82brYPINY5_4core7default7Default7default
FN:37,_RNvMs4_NtNtCshoxz5TBPcD3_18ethereum_da_client36___mock_MockEthereumDaClient_DaClient18___verify_inclusionNtB5_6Common5never
FN:37,_RINvMs4_NtNtCshoxz5TBPcD3_18ethereum_da_client36___mock_MockEthereumDaClient_DaClient18___verify_inclusionNtB6_6Common4withpEBa_
FN:37,_RINvMs4_NtNtCshoxz5TBPcD3_18ethereum_da_client36___mock_MockEthereumDaClient_DaClient18___verify_inclusionNtB6_6Common5withfpEBa_
FN:37,_RINvMs4_NtNtCshoxz5TBPcD3_18ethereum_da_client36___mock_MockEthereumDaClient_DaClient18___verify_inclusionNtB6_6Common8withf_stpEBa_
FN:37,_RINvMs6_NtNtCshoxz5TBPcD3_18ethereum_da_client36___mock_MockEthereumDaClient_DaClient18___verify_inclusionNtB6_11Expectation12return_constpEBa_
FN:37,_RNCINvMs6_NtNtCshoxz5TBPcD3_18ethereum_da_client36___mock_MockEthereumDaClient_DaClient18___verify_inclusionNtB8_11Expectation12return_constpE0Bc_
FN:37,_RINvMs6_NtNtCshoxz5TBPcD3_18ethereum_da_client36___mock_MockEthereumDaClient_DaClient18___verify_inclusionNtB6_11Expectation15return_const_stpEBa_
FN:37,_RNCINvMs6_NtNtCshoxz5TBPcD3_18ethereum_da_client36___mock_MockEthereumDaClient_DaClient18___verify_inclusionNtB8_11Expectation15return_const_stpE0Bc_
FN:37,_RINvMs6_NtNtCshoxz5TBPcD3_18ethereum_da_client36___mock_MockEthereumDaClient_DaClient18___verify_inclusionNtB6_11Expectation11return_oncepEBa_
FN:37,_RINvMs6_NtNtCshoxz5TBPcD3_18ethereum_da_client36___mock_MockEthereumDaClient_DaClient18___verify_inclusionNtB6_11Expectation14return_once_stpEBa_
FN:37,_RINvMs6_NtNtCshoxz5TBPcD3_18ethereum_da_client36___mock_MockEthereumDaClient_DaClient18___verify_inclusionNtB6_11Expectation9returningpEBa_
FN:37,_RINvMs6_NtNtCshoxz5TBPcD3_18ethereum_da_client36___mock_MockEthereumDaClient_DaClient18___verify_inclusionNtB6_11Expectation12returning_stpEBa_
FN:37,_RNvMs6_NtNtCshoxz5TBPcD3_18ethereum_da_client36___mock_MockEthereumDaClient_DaClient18___verify_inclusionNtB5_11Expectation5never
FN:37,_RINvMs6_NtNtCshoxz5TBPcD3_18ethereum_da_client36___mock_MockEthereumDaClient_DaClient18___verify_inclusionNtB6_11Expectation4withpEBa_
FN:37,_RINvMs6_NtNtCshoxz5TBPcD3_18ethereum_da_client36___mock_MockEthereumDaClient_DaClient18___verify_inclusionNtB6_11Expectation5withfpEBa_
FN:37,_RINvMs6_NtNtCshoxz5TBPcD3_18ethereum_da_client36___mock_MockEthereumDaClient_DaClient18___verify_inclusionNtB6_11Expectation8withf_stpEBa_
FN:37,_RNvMs8_NtNtCshoxz5TBPcD3_18ethereum_da_client36___mock_MockEthereumDaClient_DaClient18___verify_inclusionNtB5_12Expectations3new
FN:37,_RNvXs9_NtNtCshoxz5TBPcD3_18ethereum_da_client36___mock_MockEthereumDaClient_DaClient18___verify_inclusionNtB5_12ExpectationsNtNtCsl82brYPINY5_4core7default7Default7default
FN:37,_RNvMs4_NtNtCshoxz5TBPcD3_18ethereum_da_client36___mock_MockEthereumDaClient_DaClient18___max_blob_per_txnNtB5_6Common5never
FN:37,_RINvMs4_NtNtCshoxz5TBPcD3_18ethereum_da_client36___mock_MockEthereumDaClient_DaClient18___max_blob_per_txnNtB6_6Common5withfpEBa_
FN:37,_RINvMs4_NtNtCshoxz5TBPcD3_18ethereum_da_client36___mock_MockEthereumDaClient_DaClient18___max_blob_per_txnNtB6_6Common8withf_stpEBa_
FN:37,_RINvMs6_NtNtCshoxz5TBPcD3_18ethereum_da_client36___mock_MockEthereumDaClient_DaClient18___max_blob_per_txnNtB6_11Expectation12return_constpEBa_
FN:37,_RNCINvMs6_NtNtCshoxz5TBPcD3_18ethereum_da_client36___mock_MockEthereumDaClient_DaClient18___max_blob_per_txnNtB8_11Expectation12return_constpE0Bc_
FN:37,_RINvMs6_NtNtCshoxz5TBPcD3_18ethereum_da_client36___mock_MockEthereumDaClient_DaClient18___max_blob_per_txnNtB6_11Expectation15return_const_stpEBa_
FN:37,_RNCINvMs6_NtNtCshoxz5TBPcD3_18ethereum_da_client36___mock_MockEthereumDaClient_DaClient18___max_blob_per_txnNtB8_11Expectation15return_const_stpE0Bc_
FN:37,_RINvMs6_NtNtCshoxz5TBPcD3_18ethereum_da_client36___mock_MockEthereumDaClient_DaClient18___max_blob_per_txnNtB6_11Expectation11return_oncepEBa_
FN:37,_RINvMs6_NtNtCshoxz5TBPcD3_18ethereum_da_client36___mock_MockEthereumDaClient_DaClient18___max_blob_per_txnNtB6_11Expectation14return_once_stpEBa_
FN:37,_RINvMs6_NtNtCshoxz5TBPcD3_18ethereum_da_client36___mock_MockEthereumDaClient_DaClient18___max_blob_per_txnNtB6_11Expectation9returningpEBa_
FN:37,_RINvMs6_NtNtCshoxz5TBPcD3_18ethereum_da_client36___mock_MockEthereumDaClient_DaClient18___max_blob_per_txnNtB6_11Expectation12returning_stpEBa_
FN:37,_RNvMs6_NtNtCshoxz5TBPcD3_18ethereum_da_client36___mock_MockEthereumDaClient_DaClient18___max_blob_per_txnNtB5_11Expectation5never
FN:37,_RINvMs6_NtNtCshoxz5TBPcD3_18ethereum_da_client36___mock_MockEthereumDaClient_DaClient18___max_blob_per_txnNtB6_11Expectation5withfpEBa_
FN:37,_RINvMs6_NtNtCshoxz5TBPcD3_18ethereum_da_client36___mock_MockEthereumDaClient_DaClient18___max_blob_per_txnNtB6_11Expectation8withf_stpEBa_
FN:37,_RNvMs8_NtNtCshoxz5TBPcD3_18ethereum_da_client36___mock_MockEthereumDaClient_DaClient18___max_blob_per_txnNtB5_12Expectations3new
FN:37,_RNvXs9_NtNtCshoxz5TBPcD3_18ethereum_da_client36___mock_MockEthereumDaClient_DaClient18___max_blob_per_txnNtB5_12ExpectationsNtNtCsl82brYPINY5_4core7default7Default7default
FN:37,_RNvMs4_NtNtCshoxz5TBPcD3_18ethereum_da_client36___mock_MockEthereumDaClient_DaClient20___max_bytes_per_blobNtB5_6Common5never
FN:37,_RINvMs4_NtNtCshoxz5TBPcD3_18ethereum_da_client36___mock_MockEthereumDaClient_DaClient20___max_bytes_per_blobNtB6_6Common5withfpEBa_
FN:37,_RINvMs4_NtNtCshoxz5TBPcD3_18ethereum_da_client36___mock_MockEthereumDaClient_DaClient20___max_bytes_per_blobNtB6_6Common8withf_stpEBa_
FN:37,_RINvMs6_NtNtCshoxz5TBPcD3_18ethereum_da_client36___mock_MockEthereumDaClient_DaClient20___max_bytes_per_blobNtB6_11Expectation12return_constpEBa_
FN:37,_RNCINvMs6_NtNtCshoxz5TBPcD3_18ethereum_da_client36___mock_MockEthereumDaClient_DaClient20___max_bytes_per_blobNtB8_11Expectation12return_constpE0Bc_
FN:37,_RINvMs6_NtNtCshoxz5TBPcD3_18ethereum_da_client36___mock_MockEthereumDaClient_DaClient20___max_bytes_per_blobNtB6_11Expectation15return_const_stpEBa_
FN:37,_RNCINvMs6_NtNtCshoxz5TBPcD3_18ethereum_da_client36___mock_MockEthereumDaClient_DaClient20___max_bytes_per_blobNtB8_11Expectation15return_const_stpE0Bc_
FN:37,_RINvMs6_NtNtCshoxz5TBPcD3_18ethereum_da_client36___mock_MockEthereumDaClient_DaClient20___max_bytes_per_blobNtB6_11Expectation11return_oncepEBa_
FN:37,_RINvMs6_NtNtCshoxz5TBPcD3_18ethereum_da_client36___mock_MockEthereumDaClient_DaClient20___max_bytes_per_blobNtB6_11Expectation14return_once_stpEBa_
FN:37,_RINvMs6_NtNtCshoxz5TBPcD3_18ethereum_da_client36___mock_MockEthereumDaClient_DaClient20___max_bytes_per_blobNtB6_11Expectation9returningpEBa_
FN:37,_RINvMs6_NtNtCshoxz5TBPcD3_18ethereum_da_client36___mock_MockEthereumDaClient_DaClient20___max_bytes_per_blobNtB6_11Expectation12returning_stpEBa_
FN:37,_RNvMs6_NtNtCshoxz5TBPcD3_18ethereum_da_client36___mock_MockEthereumDaClient_DaClient20___max_bytes_per_blobNtB5_11Expectation5never
FN:37,_RINvMs6_NtNtCshoxz5TBPcD3_18ethereum_da_client36___mock_MockEthereumDaClient_DaClient20___max_bytes_per_blobNtB6_11Expectation5withfpEBa_
FN:37,_RINvMs6_NtNtCshoxz5TBPcD3_18ethereum_da_client36___mock_MockEthereumDaClient_DaClient20___max_bytes_per_blobNtB6_11Expectation8withf_stpEBa_
FN:37,_RNvMs8_NtNtCshoxz5TBPcD3_18ethereum_da_client36___mock_MockEthereumDaClient_DaClient20___max_bytes_per_blobNtB5_12Expectations3new
FN:37,_RNvXs9_NtNtCshoxz5TBPcD3_18ethereum_da_client36___mock_MockEthereumDaClient_DaClient20___max_bytes_per_blobNtB5_12ExpectationsNtNtCsl82brYPINY5_4core7default7Default7default
FN:37,_RNvXs1_Cshoxz5TBPcD3_18ethereum_da_clientNtB5_29MockEthereumDaClient_DaClientNtNtCsl82brYPINY5_4core7default7Default7default
FN:37,_RNvMs3_Cshoxz5TBPcD3_18ethereum_da_clientNtB5_20MockEthereumDaClient3new
FNDA:1,_RNvCs2ExZl6DaDxw_18ethereum_da_client15prepare_sidecar
FNDA:1,_RNCNvCs2ExZl6DaDxw_18ethereum_da_client15prepare_sidecar0B3_
FNDA:3,_RNvNtCs2ExZl6DaDxw_18ethereum_da_client5tests20hex_string_to_u8_vec
FNDA:1,_RNvNtCs2ExZl6DaDxw_18ethereum_da_client5testss_8test_kzg
FNDA:1,_RNCNvNtCs2ExZl6DaDxw_18ethereum_da_client5testss_8test_kzg0B5_
FNDA:262336,_RNCNvNtCs2ExZl6DaDxw_18ethereum_da_client5tests20hex_string_to_u8_vec0B5_
FNDA:0,_RNvXs5_Cs2ExZl6DaDxw_18ethereum_da_clientNtB5_16EthereumDaClientNtCs9dA0Hzxrugg_19da_client_interface8DaClient18publish_state_diff
FNDA:0,_RNCNvXs5_Cs2ExZl6DaDxw_18ethereum_da_clientNtB7_16EthereumDaClientNtCs9dA0Hzxrugg_19da_client_interface8DaClient18publish_state_diff0B7_
FNDA:0,_RNvXs5_Cs2ExZl6DaDxw_18ethereum_da_clientNtB5_16EthereumDaClientNtCs9dA0Hzxrugg_19da_client_interface8DaClient16verify_inclusion
FNDA:0,_RNCNvXs5_Cs2ExZl6DaDxw_18ethereum_da_clientNtB7_16EthereumDaClientNtCs9dA0Hzxrugg_19da_client_interface8DaClient16verify_inclusion0B7_
FNDA:0,_RNvXs5_Cs2ExZl6DaDxw_18ethereum_da_clientNtB5_16EthereumDaClientNtCs9dA0Hzxrugg_19da_client_interface8DaClient16max_blob_per_txn
FNDA:0,_RNCNvXs5_Cs2ExZl6DaDxw_18ethereum_da_clientNtB7_16EthereumDaClientNtCs9dA0Hzxrugg_19da_client_interface8DaClient16max_blob_per_txn0B7_
FNDA:0,_RNvXs5_Cs2ExZl6DaDxw_18ethereum_da_clientNtB5_16EthereumDaClientNtCs9dA0Hzxrugg_19da_client_interface8DaClient18max_bytes_per_blob
FNDA:0,_RNCNvXs5_Cs2ExZl6DaDxw_18ethereum_da_clientNtB7_16EthereumDaClientNtCs9dA0Hzxrugg_19da_client_interface8DaClient18max_bytes_per_blob0B7_
FNDA:0,_RNvXs_Cs2ExZl6DaDxw_18ethereum_da_clientNtB4_20MockEthereumDaClientNtNtCsl82brYPINY5_4core3fmt5Debug3fmt
FNDA:0,_RNvXs0_Cs2ExZl6DaDxw_18ethereum_da_clientNtB5_20MockEthereumDaClientNtNtCsl82brYPINY5_4core7default7Default7default
FNDA:0,_RNvMNtNtCs2ExZl6DaDxw_18ethereum_da_client36___mock_MockEthereumDaClient_DaClient20___publish_state_diffNtB2_5Rfunc8call_mut
FNDA:0,_RNvXs_NtNtCs2ExZl6DaDxw_18ethereum_da_client36___mock_MockEthereumDaClient_DaClient20___publish_state_diffNtB4_5RfuncNtNtCsl82brYPINY5_4core7default7Default7default
FNDA:0,_RNvMs0_NtNtCs2ExZl6DaDxw_18ethereum_da_client36___mock_MockEthereumDaClient_DaClient20___publish_state_diffNtB5_7Matcher7matches
FNDA:0,_RNCNvMs0_NtNtCs2ExZl6DaDxw_18ethereum_da_client36___mock_MockEthereumDaClient_DaClient20___publish_state_diffNtB7_7Matcher7matches0Bb_
FNDA:0,_RNvXs1_NtNtCs2ExZl6DaDxw_18ethereum_da_client36___mock_MockEthereumDaClient_DaClient20___publish_state_diffNtB5_7MatcherNtNtCsl82brYPINY5_4core7default7Default7default
FNDA:0,_RNvXs2_NtNtCs2ExZl6DaDxw_18ethereum_da_client36___mock_MockEthereumDaClient_DaClient20___publish_state_diffNtB5_7MatcherNtNtCsl82brYPINY5_4core3fmt7Display3fmt
FNDA:0,_RNvXs3_NtNtCs2ExZl6DaDxw_18ethereum_da_client36___mock_MockEthereumDaClient_DaClient20___publish_state_diffNtB5_6CommonNtNtCsl82brYPINY5_4core7default7Default7default
FNDA:0,_RNvMs4_NtNtCs2ExZl6DaDxw_18ethereum_da_client36___mock_MockEthereumDaClient_DaClient20___publish_state_diffNtB5_6Common4call
FNDA:0,_RNvMs4_NtNtCs2ExZl6DaDxw_18ethereum_da_client36___mock_MockEthereumDaClient_DaClient20___publish_state_diffNtB5_6Common11in_sequence
FNDA:0,_RNvMs4_NtNtCs2ExZl6DaDxw_18ethereum_da_client36___mock_MockEthereumDaClient_DaClient20___publish_state_diffNtB5_6Common7is_done
FNDA:0,_RNvMs4_NtNtCs2ExZl6DaDxw_18ethereum_da_client36___mock_MockEthereumDaClient_DaClient20___publish_state_diffNtB5_6Common7matches
FNDA:0,_RNvMs4_NtNtCs2ExZl6DaDxw_18ethereum_da_client36___mock_MockEthereumDaClient_DaClient20___publish_state_diffNtB5_6Common5never
FNDA:0,_RNvMs4_NtNtCs2ExZl6DaDxw_18ethereum_da_client36___mock_MockEthereumDaClient_DaClient20___publish_state_diffNtB5_6Common16satisfy_sequence
FNDA:0,_RINvMs4_NtNtCs2ExZl6DaDxw_18ethereum_da_client36___mock_MockEthereumDaClient_DaClient20___publish_state_diffNtB6_6Common5timespEBa_
FNDA:0,_RINvMs4_NtNtCs2ExZl6DaDxw_18ethereum_da_client36___mock_MockEthereumDaClient_DaClient20___publish_state_diffNtB6_6Common4withppEBa_
FNDA:0,_RINvMs4_NtNtCs2ExZl6DaDxw_18ethereum_da_client36___mock_MockEthereumDaClient_DaClient20___publish_state_diffNtB6_6Common5withfpEBa_
FNDA:0,_RINvMs4_NtNtCs2ExZl6DaDxw_18ethereum_da_client36___mock_MockEthereumDaClient_DaClient20___publish_state_diffNtB6_6Common8withf_stpEBa_
FNDA:0,_RNvMs4_NtNtCs2ExZl6DaDxw_18ethereum_da_client36___mock_MockEthereumDaClient_DaClient20___publish_state_diffNtB5_6Common15verify_sequence
FNDA:0,_RNvXs5_NtNtCs2ExZl6DaDxw_18ethereum_da_client36___mock_MockEthereumDaClient_DaClient20___publish_state_diffNtB5_6CommonNtNtNtCsl82brYPINY5_4core3ops4drop4Drop4drop
FNDA:0,_RNvMs6_NtNtCs2ExZl6DaDxw_18ethereum_da_client36___mock_MockEthereumDaClient_DaClient20___publish_state_diffNtB5_11Expectation4call
FNDA:0,_RINvMs6_NtNtCs2ExZl6DaDxw_18ethereum_da_client36___mock_MockEthereumDaClient_DaClient20___publish_state_diffNtB6_11Expectation12return_constpEBa_
FNDA:0,_RNCINvMs6_NtNtCs2ExZl6DaDxw_18ethereum_da_client36___mock_MockEthereumDaClient_DaClient20___publish_state_diffNtB8_11Expectation12return_constpE0Bc_
FNDA:0,_RINvMs6_NtNtCs2ExZl6DaDxw_18ethereum_da_client36___mock_MockEthereumDaClient_DaClient20___publish_state_diffNtB6_11Expectation15return_const_stpEBa_
FNDA:0,_RNCINvMs6_NtNtCs2ExZl6DaDxw_18ethereum_da_client36___mock_MockEthereumDaClient_DaClient20___publish_state_diffNtB8_11Expectation15return_const_stpE0Bc_
FNDA:0,_RINvMs6_NtNtCs2ExZl6DaDxw_18ethereum_da_client36___mock_MockEthereumDaClient_DaClient20___publish_state_diffNtB6_11Expectation11return_oncepEBa_
FNDA:0,_RINvMs6_NtNtCs2ExZl6DaDxw_18ethereum_da_client36___mock_MockEthereumDaClient_DaClient20___publish_state_diffNtB6_11Expectation14return_once_stpEBa_
FNDA:0,_RINvMs6_NtNtCs2ExZl6DaDxw_18ethereum_da_client36___mock_MockEthereumDaClient_DaClient20___publish_state_diffNtB6_11Expectation9returningpEBa_
FNDA:0,_RINvMs6_NtNtCs2ExZl6DaDxw_18ethereum_da_client36___mock_MockEthereumDaClient_DaClient20___publish_state_diffNtB6_11Expectation12returning_stpEBa_
FNDA:0,_RNvMs6_NtNtCs2ExZl6DaDxw_18ethereum_da_client36___mock_MockEthereumDaClient_DaClient20___publish_state_diffNtB5_11Expectation11in_sequence
FNDA:0,_RNvMs6_NtNtCs2ExZl6DaDxw_18ethereum_da_client36___mock_MockEthereumDaClient_DaClient20___publish_state_diffNtB5_11Expectation7is_done
FNDA:0,_RNvMs6_NtNtCs2ExZl6DaDxw_18ethereum_da_client36___mock_MockEthereumDaClient_DaClient20___publish_state_diffNtB5_11Expectation7matches
FNDA:0,_RNvMs6_NtNtCs2ExZl6DaDxw_18ethereum_da_client36___mock_MockEthereumDaClient_DaClient20___publish_state_diffNtB5_11Expectation5never
FNDA:0,_RNvMs6_NtNtCs2ExZl6DaDxw_18ethereum_da_client36___mock_MockEthereumDaClient_DaClient20___publish_state_diffNtB5_11Expectation3new
FNDA:0,_RNvMs6_NtNtCs2ExZl6DaDxw_18ethereum_da_client36___mock_MockEthereumDaClient_DaClient20___publish_state_diffNtB5_11Expectation4once
FNDA:0,_RINvMs6_NtNtCs2ExZl6DaDxw_18ethereum_da_client36___mock_MockEthereumDaClient_DaClient20___publish_state_diffNtB6_11Expectation5timespEBa_
FNDA:0,_RINvMs6_NtNtCs2ExZl6DaDxw_18ethereum_da_client36___mock_MockEthereumDaClient_DaClient20___publish_state_diffNtB6_11Expectation4withppEBa_
FNDA:0,_RINvMs6_NtNtCs2ExZl6DaDxw_18ethereum_da_client36___mock_MockEthereumDaClient_DaClient20___publish_state_diffNtB6_11Expectation5withfpEBa_
FNDA:0,_RINvMs6_NtNtCs2ExZl6DaDxw_18ethereum_da_client36___mock_MockEthereumDaClient_DaClient20___publish_state_diffNtB6_11Expectation8withf_stpEBa_
FNDA:0,_RNvXs7_NtNtCs2ExZl6DaDxw_18ethereum_da_client36___mock_MockEthereumDaClient_DaClient20___publish_state_diffNtB5_11ExpectationNtNtCsl82brYPINY5_4core7default7Default7default
FNDA:0,_RNvMs8_NtNtCs2ExZl6DaDxw_18ethereum_da_client36___mock_MockEthereumDaClient_DaClient20___publish_state_diffNtB5_12Expectations10checkpoint
FNDA:0,_RNvMs8_NtNtCs2ExZl6DaDxw_18ethereum_da_client36___mock_MockEthereumDaClient_DaClient20___publish_state_diffNtB5_12Expectations6expect
FNDA:0,_RNvMs8_NtNtCs2ExZl6DaDxw_18ethereum_da_client36___mock_MockEthereumDaClient_DaClient20___publish_state_diffNtB5_12Expectations3new
FNDA:0,_RNvXs9_NtNtCs2ExZl6DaDxw_18ethereum_da_client36___mock_MockEthereumDaClient_DaClient20___publish_state_diffNtB5_12ExpectationsNtNtCsl82brYPINY5_4core7default7Default7default
FNDA:0,_RNvMsa_NtNtCs2ExZl6DaDxw_18ethereum_da_client36___mock_MockEthereumDaClient_DaClient20___publish_state_diffNtB5_12Expectations4call
FNDA:0,_RNCNvMsa_NtNtCs2ExZl6DaDxw_18ethereum_da_client36___mock_MockEthereumDaClient_DaClient20___publish_state_diffNtB7_12Expectations4call0Bb_
FNDA:0,_RNCNvMsa_NtNtCs2ExZl6DaDxw_18ethereum_da_client36___mock_MockEthereumDaClient_DaClient20___publish_state_diffNtB7_12Expectations4calls_0Bb_
FNDA:0,_RNvMNtNtCs2ExZl6DaDxw_18ethereum_da_client36___mock_MockEthereumDaClient_DaClient18___verify_inclusionNtB2_5Rfunc8call_mut
FNDA:0,_RNvXs_NtNtCs2ExZl6DaDxw_18ethereum_da_client36___mock_MockEthereumDaClient_DaClient18___verify_inclusionNtB4_5RfuncNtNtCsl82brYPINY5_4core7default7Default7default
FNDA:0,_RNvMs0_NtNtCs2ExZl6DaDxw_18ethereum_da_client36___mock_MockEthereumDaClient_DaClient18___verify_inclusionNtB5_7Matcher7matches
FNDA:0,_RNCNvMs0_NtNtCs2ExZl6DaDxw_18ethereum_da_client36___mock_MockEthereumDaClient_DaClient18___verify_inclusionNtB7_7Matcher7matches0Bb_
FNDA:0,_RNvXs1_NtNtCs2ExZl6DaDxw_18ethereum_da_client36___mock_MockEthereumDaClient_DaClient18___verify_inclusionNtB5_7MatcherNtNtCsl82brYPINY5_4core7default7Default7default
FNDA:0,_RNvXs2_NtNtCs2ExZl6DaDxw_18ethereum_da_client36___mock_MockEthereumDaClient_DaClient18___verify_inclusionNtB5_7MatcherNtNtCsl82brYPINY5_4core3fmt7Display3fmt
FNDA:0,_RNvXs3_NtNtCs2ExZl6DaDxw_18ethereum_da_client36___mock_MockEthereumDaClient_DaClient18___verify_inclusionNtB5_6CommonNtNtCsl82brYPINY5_4core7default7Default7default
FNDA:0,_RNvMs4_NtNtCs2ExZl6DaDxw_18ethereum_da_client36___mock_MockEthereumDaClient_DaClient18___verify_inclusionNtB5_6Common4call
FNDA:0,_RNvMs4_NtNtCs2ExZl6DaDxw_18ethereum_da_client36___mock_MockEthereumDaClient_DaClient18___verify_inclusionNtB5_6Common11in_sequence
FNDA:0,_RNvMs4_NtNtCs2ExZl6DaDxw_18ethereum_da_client36___mock_MockEthereumDaClient_DaClient18___verify_inclusionNtB5_6Common7is_done
FNDA:0,_RNvMs4_NtNtCs2ExZl6DaDxw_18ethereum_da_client36___mock_MockEthereumDaClient_DaClient18___verify_inclusionNtB5_6Common7matches
FNDA:0,_RNvMs4_NtNtCs2ExZl6DaDxw_18ethereum_da_client36___mock_MockEthereumDaClient_DaClient18___verify_inclusionNtB5_6Common5never
FNDA:0,_RNvMs4_NtNtCs2ExZl6DaDxw_18ethereum_da_client36___mock_MockEthereumDaClient_DaClient18___verify_inclusionNtB5_6Common16satisfy_sequence
FNDA:0,_RINvMs4_NtNtCs2ExZl6DaDxw_18ethereum_da_client36___mock_MockEthereumDaClient_DaClient18___verify_inclusionNtB6_6Common5timespEBa_
FNDA:0,_RINvMs4_NtNtCs2ExZl6DaDxw_18ethereum_da_client36___mock_MockEthereumDaClient_DaClient18___verify_inclusionNtB6_6Common4withpEBa_
FNDA:0,_RINvMs4_NtNtCs2ExZl6DaDxw_18ethereum_da_client36___mock_MockEthereumDaClient_DaClient18___verify_inclusionNtB6_6Common5withfpEBa_
FNDA:0,_RINvMs4_NtNtCs2ExZl6DaDxw_18ethereum_da_client36___mock_MockEthereumDaClient_DaClient18___verify_inclusionNtB6_6Common8withf_stpEBa_
FNDA:0,_RNvMs4_NtNtCs2ExZl6DaDxw_18ethereum_da_client36___mock_MockEthereumDaClient_DaClient18___verify_inclusionNtB5_6Common15verify_sequence
FNDA:0,_RNvXs5_NtNtCs2ExZl6DaDxw_18ethereum_da_client36___mock_MockEthereumDaClient_DaClient18___verify_inclusionNtB5_6CommonNtNtNtCsl82brYPINY5_4core3ops4drop4Drop4drop
FNDA:0,_RNvMs6_NtNtCs2ExZl6DaDxw_18ethereum_da_client36___mock_MockEthereumDaClient_DaClient18___verify_inclusionNtB5_11Expectation4call
FNDA:0,_RINvMs6_NtNtCs2ExZl6DaDxw_18ethereum_da_client36___mock_MockEthereumDaClient_DaClient18___verify_inclusionNtB6_11Expectation12return_constpEBa_
FNDA:0,_RNCINvMs6_NtNtCs2ExZl6DaDxw_18ethereum_da_client36___mock_MockEthereumDaClient_DaClient18___verify_inclusionNtB8_11Expectation12return_constpE0Bc_
FNDA:0,_RINvMs6_NtNtCs2ExZl6DaDxw_18ethereum_da_client36___mock_MockEthereumDaClient_DaClient18___verify_inclusionNtB6_11Expectation15return_const_stpEBa_
FNDA:0,_RNCINvMs6_NtNtCs2ExZl6DaDxw_18ethereum_da_client36___mock_MockEthereumDaClient_DaClient18___verify_inclusionNtB8_11Expectation15return_const_stpE0Bc_
FNDA:0,_RINvMs6_NtNtCs2ExZl6DaDxw_18ethereum_da_client36___mock_MockEthereumDaClient_DaClient18___verify_inclusionNtB6_11Expectation11return_oncepEBa_
FNDA:0,_RINvMs6_NtNtCs2ExZl6DaDxw_18ethereum_da_client36___mock_MockEthereumDaClient_DaClient18___verify_inclusionNtB6_11Expectation14return_once_stpEBa_
FNDA:0,_RINvMs6_NtNtCs2ExZl6DaDxw_18ethereum_da_client36___mock_MockEthereumDaClient_DaClient18___verify_inclusionNtB6_11Expectation9returningpEBa_
FNDA:0,_RINvMs6_NtNtCs2ExZl6DaDxw_18ethereum_da_client36___mock_MockEthereumDaClient_DaClient18___verify_inclusionNtB6_11Expectation12returning_stpEBa_
FNDA:0,_RNvMs6_NtNtCs2ExZl6DaDxw_18ethereum_da_client36___mock_MockEthereumDaClient_DaClient18___verify_inclusionNtB5_11Expectation11in_sequence
FNDA:0,_RNvMs6_NtNtCs2ExZl6DaDxw_18ethereum_da_client36___mock_MockEthereumDaClient_DaClient18___verify_inclusionNtB5_11Expectation7is_done
FNDA:0,_RNvMs6_NtNtCs2ExZl6DaDxw_18ethereum_da_client36___mock_MockEthereumDaClient_DaClient18___verify_inclusionNtB5_11Expectation7matches
FNDA:0,_RNvMs6_NtNtCs2ExZl6DaDxw_18ethereum_da_client36___mock_MockEthereumDaClient_DaClient18___verify_inclusionNtB5_11Expectation5never
FNDA:0,_RNvMs6_NtNtCs2ExZl6DaDxw_18ethereum_da_client36___mock_MockEthereumDaClient_DaClient18___verify_inclusionNtB5_11Expectation3new
FNDA:0,_RNvMs6_NtNtCs2ExZl6DaDxw_18ethereum_da_client36___mock_MockEthereumDaClient_DaClient18___verify_inclusionNtB5_11Expectation4once
FNDA:0,_RINvMs6_NtNtCs2ExZl6DaDxw_18ethereum_da_client36___mock_MockEthereumDaClient_DaClient18___verify_inclusionNtB6_11Expectation5timespEBa_
FNDA:0,_RINvMs6_NtNtCs2ExZl6DaDxw_18ethereum_da_client36___mock_MockEthereumDaClient_DaClient18___verify_inclusionNtB6_11Expectation4withpEBa_
FNDA:0,_RINvMs6_NtNtCs2ExZl6DaDxw_18ethereum_da_client36___mock_MockEthereumDaClient_DaClient18___verify_inclusionNtB6_11Expectation5withfpEBa_
FNDA:0,_RINvMs6_NtNtCs2ExZl6DaDxw_18ethereum_da_client36___mock_MockEthereumDaClient_DaClient18___verify_inclusionNtB6_11Expectation8withf_stpEBa_
FNDA:0,_RNvXs7_NtNtCs2ExZl6DaDxw_18ethereum_da_client36___mock_MockEthereumDaClient_DaClient18___verify_inclusionNtB5_11ExpectationNtNtCsl82brYPINY5_4core7default7Default7default
FNDA:0,_RNvMs8_NtNtCs2ExZl6DaDxw_18ethereum_da_client36___mock_MockEthereumDaClient_DaClient18___verify_inclusionNtB5_12Expectations10checkpoint
FNDA:0,_RNvMs8_NtNtCs2ExZl6DaDxw_18ethereum_da_client36___mock_MockEthereumDaClient_DaClient18___verify_inclusionNtB5_12Expectations6expect
FNDA:0,_RNvMs8_NtNtCs2ExZl6DaDxw_18ethereum_da_client36___mock_MockEthereumDaClient_DaClient18___verify_inclusionNtB5_12Expectations3new
FNDA:0,_RNvXs9_NtNtCs2ExZl6DaDxw_18ethereum_da_client36___mock_MockEthereumDaClient_DaClient18___verify_inclusionNtB5_12ExpectationsNtNtCsl82brYPINY5_4core7default7Default7default
FNDA:0,_RNvMsa_NtNtCs2ExZl6DaDxw_18ethereum_da_client36___mock_MockEthereumDaClient_DaClient18___verify_inclusionNtB5_12Expectations4call
FNDA:0,_RNCNvMsa_NtNtCs2ExZl6DaDxw_18ethereum_da_client36___mock_MockEthereumDaClient_DaClient18___verify_inclusionNtB7_12Expectations4call0Bb_
FNDA:0,_RNCNvMsa_NtNtCs2ExZl6DaDxw_18ethereum_da_client36___mock_MockEthereumDaClient_DaClient18___verify_inclusionNtB7_12Expectations4calls_0Bb_
FNDA:0,_RNvMNtNtCs2ExZl6DaDxw_18ethereum_da_client36___mock_MockEthereumDaClient_DaClient18___max_blob_per_txnNtB2_5Rfunc8call_mut
FNDA:0,_RNvXs_NtNtCs2ExZl6DaDxw_18ethereum_da_client36___mock_MockEthereumDaClient_DaClient18___max_blob_per_txnNtB4_5RfuncNtNtCsl82brYPINY5_4core7default7Default7default
FNDA:0,_RNvMs0_NtNtCs2ExZl6DaDxw_18ethereum_da_client36___mock_MockEthereumDaClient_DaClient18___max_blob_per_txnNtB5_7Matcher7matches
FNDA:0,_RNCNvMs0_NtNtCs2ExZl6DaDxw_18ethereum_da_client36___mock_MockEthereumDaClient_DaClient18___max_blob_per_txnNtB7_7Matcher7matches0Bb_
FNDA:0,_RNvXs1_NtNtCs2ExZl6DaDxw_18ethereum_da_client36___mock_MockEthereumDaClient_DaClient18___max_blob_per_txnNtB5_7MatcherNtNtCsl82brYPINY5_4core7default7Default7default
FNDA:0,_RNvXs2_NtNtCs2ExZl6DaDxw_18ethereum_da_client36___mock_MockEthereumDaClient_DaClient18___max_blob_per_txnNtB5_7MatcherNtNtCsl82brYPINY5_4core3fmt7Display3fmt
FNDA:0,_RNvXs3_NtNtCs2ExZl6DaDxw_18ethereum_da_client36___mock_MockEthereumDaClient_DaClient18___max_blob_per_txnNtB5_6CommonNtNtCsl82brYPINY5_4core7default7Default7default
FNDA:0,_RNvMs4_NtNtCs2ExZl6DaDxw_18ethereum_da_client36___mock_MockEthereumDaClient_DaClient18___max_blob_per_txnNtB5_6Common4call
FNDA:0,_RNvMs4_NtNtCs2ExZl6DaDxw_18ethereum_da_client36___mock_MockEthereumDaClient_DaClient18___max_blob_per_txnNtB5_6Common11in_sequence
FNDA:0,_RNvMs4_NtNtCs2ExZl6DaDxw_18ethereum_da_client36___mock_MockEthereumDaClient_DaClient18___max_blob_per_txnNtB5_6Common7is_done
FNDA:0,_RNvMs4_NtNtCs2ExZl6DaDxw_18ethereum_da_client36___mock_MockEthereumDaClient_DaClient18___max_blob_per_txnNtB5_6Common7matches
FNDA:0,_RNvMs4_NtNtCs2ExZl6DaDxw_18ethereum_da_client36___mock_MockEthereumDaClient_DaClient18___max_blob_per_txnNtB5_6Common5never
FNDA:0,_RNvMs4_NtNtCs2ExZl6DaDxw_18ethereum_da_client36___mock_MockEthereumDaClient_DaClient18___max_blob_per_txnNtB5_6Common16satisfy_sequence
FNDA:0,_RINvMs4_NtNtCs2ExZl6DaDxw_18ethereum_da_client36___mock_MockEthereumDaClient_DaClient18___max_blob_per_txnNtB6_6Common5timespEBa_
FNDA:0,_RNvMs4_NtNtCs2ExZl6DaDxw_18ethereum_da_client36___mock_MockEthereumDaClient_DaClient18___max_blob_per_txnNtB5_6Common4with
FNDA:0,_RINvMs4_NtNtCs2ExZl6DaDxw_18ethereum_da_client36___mock_MockEthereumDaClient_DaClient18___max_blob_per_txnNtB6_6Common5withfpEBa_
FNDA:0,_RINvMs4_NtNtCs2ExZl6DaDxw_18ethereum_da_client36___mock_MockEthereumDaClient_DaClient18___max_blob_per_txnNtB6_6Common8withf_stpEBa_
FNDA:0,_RNvMs4_NtNtCs2ExZl6DaDxw_18ethereum_da_client36___mock_MockEthereumDaClient_DaClient18___max_blob_per_txnNtB5_6Common15verify_sequence
FNDA:0,_RNvXs5_NtNtCs2ExZl6DaDxw_18ethereum_da_client36___mock_MockEthereumDaClient_DaClient18___max_blob_per_txnNtB5_6CommonNtNtNtCsl82brYPINY5_4core3ops4drop4Drop4drop
FNDA:0,_RNvMs6_NtNtCs2ExZl6DaDxw_18ethereum_da_client36___mock_MockEthereumDaClient_DaClient18___max_blob_per_txnNtB5_11Expectation4call
FNDA:0,_RINvMs6_NtNtCs2ExZl6DaDxw_18ethereum_da_client36___mock_MockEthereumDaClient_DaClient18___max_blob_per_txnNtB6_11Expectation12return_constpEBa_
FNDA:0,_RNCINvMs6_NtNtCs2ExZl6DaDxw_18ethereum_da_client36___mock_MockEthereumDaClient_DaClient18___max_blob_per_txnNtB8_11Expectation12return_constpE0Bc_
FNDA:0,_RINvMs6_NtNtCs2ExZl6DaDxw_18ethereum_da_client36___mock_MockEthereumDaClient_DaClient18___max_blob_per_txnNtB6_11Expectation15return_const_stpEBa_
FNDA:0,_RNCINvMs6_NtNtCs2ExZl6DaDxw_18ethereum_da_client36___mock_MockEthereumDaClient_DaClient18___max_blob_per_txnNtB8_11Expectation15return_const_stpE0Bc_
FNDA:0,_RINvMs6_NtNtCs2ExZl6DaDxw_18ethereum_da_client36___mock_MockEthereumDaClient_DaClient18___max_blob_per_txnNtB6_11Expectation11return_oncepEBa_
FNDA:0,_RINvMs6_NtNtCs2ExZl6DaDxw_18ethereum_da_client36___mock_MockEthereumDaClient_DaClient18___max_blob_per_txnNtB6_11Expectation14return_once_stpEBa_
FNDA:0,_RINvMs6_NtNtCs2ExZl6DaDxw_18ethereum_da_client36___mock_MockEthereumDaClient_DaClient18___max_blob_per_txnNtB6_11Expectation9returningpEBa_
FNDA:0,_RINvMs6_NtNtCs2ExZl6DaDxw_18ethereum_da_client36___mock_MockEthereumDaClient_DaClient18___max_blob_per_txnNtB6_11Expectation12returning_stpEBa_
FNDA:0,_RNvMs6_NtNtCs2ExZl6DaDxw_18ethereum_da_client36___mock_MockEthereumDaClient_DaClient18___max_blob_per_txnNtB5_11Expectation11in_sequence
FNDA:0,_RNvMs6_NtNtCs2ExZl6DaDxw_18ethereum_da_client36___mock_MockEthereumDaClient_DaClient18___max_blob_per_txnNtB5_11Expectation7is_done
FNDA:0,_RNvMs6_NtNtCs2ExZl6DaDxw_18ethereum_da_client36___mock_MockEthereumDaClient_DaClient18___max_blob_per_txnNtB5_11Expectation7matches
FNDA:0,_RNvMs6_NtNtCs2ExZl6DaDxw_18ethereum_da_client36___mock_MockEthereumDaClient_DaClient18___max_blob_per_txnNtB5_11Expectation5never
FNDA:0,_RNvMs6_NtNtCs2ExZl6DaDxw_18ethereum_da_client36___mock_MockEthereumDaClient_DaClient18___max_blob_per_txnNtB5_11Expectation3new
FNDA:0,_RNvMs6_NtNtCs2ExZl6DaDxw_18ethereum_da_client36___mock_MockEthereumDaClient_DaClient18___max_blob_per_txnNtB5_11Expectation4once
FNDA:0,_RINvMs6_NtNtCs2ExZl6DaDxw_18ethereum_da_client36___mock_MockEthereumDaClient_DaClient18___max_blob_per_txnNtB6_11Expectation5timespEBa_
FNDA:0,_RNvMs6_NtNtCs2ExZl6DaDxw_18ethereum_da_client36___mock_MockEthereumDaClient_DaClient18___max_blob_per_txnNtB5_11Expectation4with
FNDA:0,_RINvMs6_NtNtCs2ExZl6DaDxw_18ethereum_da_client36___mock_MockEthereumDaClient_DaClient18___max_blob_per_txnNtB6_11Expectation5withfpEBa_
FNDA:0,_RINvMs6_NtNtCs2ExZl6DaDxw_18ethereum_da_client36___mock_MockEthereumDaClient_DaClient18___max_blob_per_txnNtB6_11Expectation8withf_stpEBa_
FNDA:0,_RNvXs7_NtNtCs2ExZl6DaDxw_18ethereum_da_client36___mock_MockEthereumDaClient_DaClient18___max_blob_per_txnNtB5_11ExpectationNtNtCsl82brYPINY5_4core7default7Default7default
FNDA:0,_RNvMs8_NtNtCs2ExZl6DaDxw_18ethereum_da_client36___mock_MockEthereumDaClient_DaClient18___max_blob_per_txnNtB5_12Expectations10checkpoint
FNDA:0,_RNvMs8_NtNtCs2ExZl6DaDxw_18ethereum_da_client36___mock_MockEthereumDaClient_DaClient18___max_blob_per_txnNtB5_12Expectations6expect
FNDA:0,_RNvMs8_NtNtCs2ExZl6DaDxw_18ethereum_da_client36___mock_MockEthereumDaClient_DaClient18___max_blob_per_txnNtB5_12Expectations3new
FNDA:0,_RNvXs9_NtNtCs2ExZl6DaDxw_18ethereum_da_client36___mock_MockEthereumDaClient_DaClient18___max_blob_per_txnNtB5_12ExpectationsNtNtCsl82brYPINY5_4core7default7Default7default
FNDA:0,_RNvMsa_NtNtCs2ExZl6DaDxw_18ethereum_da_client36___mock_MockEthereumDaClient_DaClient18___max_blob_per_txnNtB5_12Expectations4call
FNDA:0,_RNCNvMsa_NtNtCs2ExZl6DaDxw_18ethereum_da_client36___mock_MockEthereumDaClient_DaClient18___max_blob_per_txnNtB7_12Expectations4call0Bb_
FNDA:0,_RNCNvMsa_NtNtCs2ExZl6DaDxw_18ethereum_da_client36___mock_MockEthereumDaClient_DaClient18___max_blob_per_txnNtB7_12Expectations4calls_0Bb_
FNDA:0,_RNvMNtNtCs2ExZl6DaDxw_18ethereum_da_client36___mock_MockEthereumDaClient_DaClient20___max_bytes_per_blobNtB2_5Rfunc8call_mut
FNDA:0,_RNvXs_NtNtCs2ExZl6DaDxw_18ethereum_da_client36___mock_MockEthereumDaClient_DaClient20___max_bytes_per_blobNtB4_5RfuncNtNtCsl82brYPINY5_4core7default7Default7default
FNDA:0,_RNvMs0_NtNtCs2ExZl6DaDxw_18ethereum_da_client36___mock_MockEthereumDaClient_DaClient20___max_bytes_per_blobNtB5_7Matcher7matches
FNDA:0,_RNCNvMs0_NtNtCs2ExZl6DaDxw_18ethereum_da_client36___mock_MockEthereumDaClient_DaClient20___max_bytes_per_blobNtB7_7Matcher7matches0Bb_
FNDA:0,_RNvXs1_NtNtCs2ExZl6DaDxw_18ethereum_da_client36___mock_MockEthereumDaClient_DaClient20___max_bytes_per_blobNtB5_7MatcherNtNtCsl82brYPINY5_4core7default7Default7default
FNDA:0,_RNvXs2_NtNtCs2ExZl6DaDxw_18ethereum_da_client36___mock_MockEthereumDaClient_DaClient20___max_bytes_per_blobNtB5_7MatcherNtNtCsl82brYPINY5_4core3fmt7Display3fmt
FNDA:0,_RNvXs3_NtNtCs2ExZl6DaDxw_18ethereum_da_client36___mock_MockEthereumDaClient_DaClient20___max_bytes_per_blobNtB5_6CommonNtNtCsl82brYPINY5_4core7default7Default7default
FNDA:0,_RNvMs4_NtNtCs2ExZl6DaDxw_18ethereum_da_client36___mock_MockEthereumDaClient_DaClient20___max_bytes_per_blobNtB5_6Common4call
FNDA:0,_RNvMs4_NtNtCs2ExZl6DaDxw_18ethereum_da_client36___mock_MockEthereumDaClient_DaClient20___max_bytes_per_blobNtB5_6Common11in_sequence
FNDA:0,_RNvMs4_NtNtCs2ExZl6DaDxw_18ethereum_da_client36___mock_MockEthereumDaClient_DaClient20___max_bytes_per_blobNtB5_6Common7is_done
FNDA:0,_RNvMs4_NtNtCs2ExZl6DaDxw_18ethereum_da_client36___mock_MockEthereumDaClient_DaClient20___max_bytes_per_blobNtB5_6Common7matches
FNDA:0,_RNvMs4_NtNtCs2ExZl6DaDxw_18ethereum_da_client36___mock_MockEthereumDaClient_DaClient20___max_bytes_per_blobNtB5_6Common5never
FNDA:0,_RNvMs4_NtNtCs2ExZl6DaDxw_18ethereum_da_client36___mock_MockEthereumDaClient_DaClient20___max_bytes_per_blobNtB5_6Common16satisfy_sequence
FNDA:0,_RINvMs4_NtNtCs2ExZl6DaDxw_18ethereum_da_client36___mock_MockEthereumDaClient_DaClient20___max_bytes_per_blobNtB6_6Common5timespEBa_
FNDA:0,_RNvMs4_NtNtCs2ExZl6DaDxw_18ethereum_da_client36___mock_MockEthereumDaClient_DaClient20___max_bytes_per_blobNtB5_6Common4with
FNDA:0,_RINvMs4_NtNtCs2ExZl6DaDxw_18ethereum_da_client36___mock_MockEthereumDaClient_DaClient20___max_bytes_per_blobNtB6_6Common5withfpEBa_
FNDA:0,_RINvMs4_NtNtCs2ExZl6DaDxw_18ethereum_da_client36___mock_MockEthereumDaClient_DaClient20___max_bytes_per_blobNtB6_6Common8withf_stpEBa_
FNDA:0,_RNvMs4_NtNtCs2ExZl6DaDxw_18ethereum_da_client36___mock_MockEthereumDaClient_DaClient20___max_bytes_per_blobNtB5_6Common15verify_sequence
FNDA:0,_RNvXs5_NtNtCs2ExZl6DaDxw_18ethereum_da_client36___mock_MockEthereumDaClient_DaClient20___max_bytes_per_blobNtB5_6CommonNtNtNtCsl82brYPINY5_4core3ops4drop4Drop4drop
FNDA:0,_RNvMs6_NtNtCs2ExZl6DaDxw_18ethereum_da_client36___mock_MockEthereumDaClient_DaClient20___max_bytes_per_blobNtB5_11Expectation4call
FNDA:0,_RINvMs6_NtNtCs2ExZl6DaDxw_18ethereum_da_client36___mock_MockEthereumDaClient_DaClient20___max_bytes_per_blobNtB6_11Expectation12return_constpEBa_
FNDA:0,_RNCINvMs6_NtNtCs2ExZl6DaDxw_18ethereum_da_client36___mock_MockEthereumDaClient_DaClient20___max_bytes_per_blobNtB8_11Expectation12return_constpE0Bc_
FNDA:0,_RINvMs6_NtNtCs2ExZl6DaDxw_18ethereum_da_client36___mock_MockEthereumDaClient_DaClient20___max_bytes_per_blobNtB6_11Expectation15return_const_stpEBa_
FNDA:0,_RNCINvMs6_NtNtCs2ExZl6DaDxw_18ethereum_da_client36___mock_MockEthereumDaClient_DaClient20___max_bytes_per_blobNtB8_11Expectation15return_const_stpE0Bc_
FNDA:0,_RINvMs6_NtNtCs2ExZl6DaDxw_18ethereum_da_client36___mock_MockEthereumDaClient_DaClient20___max_bytes_per_blobNtB6_11Expectation11return_oncepEBa_
FNDA:0,_RINvMs6_NtNtCs2ExZl6DaDxw_18ethereum_da_client36___mock_MockEthereumDaClient_DaClient20___max_bytes_per_blobNtB6_11Expectation14return_once_stpEBa_
FNDA:0,_RINvMs6_NtNtCs2ExZl6DaDxw_18ethereum_da_client36___mock_MockEthereumDaClient_DaClient20___max_bytes_per_blobNtB6_11Expectation9returningpEBa_
FNDA:0,_RINvMs6_NtNtCs2ExZl6DaDxw_18ethereum_da_client36___mock_MockEthereumDaClient_DaClient20___max_bytes_per_blobNtB6_11Expectation12returning_stpEBa_
FNDA:0,_RNvMs6_NtNtCs2ExZl6DaDxw_18ethereum_da_client36___mock_MockEthereumDaClient_DaClient20___max_bytes_per_blobNtB5_11Expectation11in_sequence
FNDA:0,_RNvMs6_NtNtCs2ExZl6DaDxw_18ethereum_da_client36___mock_MockEthereumDaClient_DaClient20___max_bytes_per_blobNtB5_11Expectation7is_done
FNDA:0,_RNvMs6_NtNtCs2ExZl6DaDxw_18ethereum_da_client36___mock_MockEthereumDaClient_DaClient20___max_bytes_per_blobNtB5_11Expectation7matches
FNDA:0,_RNvMs6_NtNtCs2ExZl6DaDxw_18ethereum_da_client36___mock_MockEthereumDaClient_DaClient20___max_bytes_per_blobNtB5_11Expectation5never
FNDA:0,_RNvMs6_NtNtCs2ExZl6DaDxw_18ethereum_da_client36___mock_MockEthereumDaClient_DaClient20___max_bytes_per_blobNtB5_11Expectation3new
FNDA:0,_RNvMs6_NtNtCs2ExZl6DaDxw_18ethereum_da_client36___mock_MockEthereumDaClient_DaClient20___max_bytes_per_blobNtB5_11Expectation4once
FNDA:0,_RINvMs6_NtNtCs2ExZl6DaDxw_18ethereum_da_client36___mock_MockEthereumDaClient_DaClient20___max_bytes_per_blobNtB6_11Expectation5timespEBa_
FNDA:0,_RNvMs6_NtNtCs2ExZl6DaDxw_18ethereum_da_client36___mock_MockEthereumDaClient_DaClient20___max_bytes_per_blobNtB5_11Expectation4with
FNDA:0,_RINvMs6_NtNtCs2ExZl6DaDxw_18ethereum_da_client36___mock_MockEthereumDaClient_DaClient20___max_bytes_per_blobNtB6_11Expectation5withfpEBa_
FNDA:0,_RINvMs6_NtNtCs2ExZl6DaDxw_18ethereum_da_client36___mock_MockEthereumDaClient_DaClient20___max_bytes_per_blobNtB6_11Expectation8withf_stpEBa_
FNDA:0,_RNvXs7_NtNtCs2ExZl6DaDxw_18ethereum_da_client36___mock_MockEthereumDaClient_DaClient20___max_bytes_per_blobNtB5_11ExpectationNtNtCsl82brYPINY5_4core7default7Default7default
FNDA:0,_RNvMs8_NtNtCs2ExZl6DaDxw_18ethereum_da_client36___mock_MockEthereumDaClient_DaClient20___max_bytes_per_blobNtB5_12Expectations10checkpoint
FNDA:0,_RNvMs8_NtNtCs2ExZl6DaDxw_18ethereum_da_client36___mock_MockEthereumDaClient_DaClient20___max_bytes_per_blobNtB5_12Expectations6expect
FNDA:0,_RNvMs8_NtNtCs2ExZl6DaDxw_18ethereum_da_client36___mock_MockEthereumDaClient_DaClient20___max_bytes_per_blobNtB5_12Expectations3new
FNDA:0,_RNvXs9_NtNtCs2ExZl6DaDxw_18ethereum_da_client36___mock_MockEthereumDaClient_DaClient20___max_bytes_per_blobNtB5_12ExpectationsNtNtCsl82brYPINY5_4core7default7Default7default
FNDA:0,_RNvMsa_NtNtCs2ExZl6DaDxw_18ethereum_da_client36___mock_MockEthereumDaClient_DaClient20___max_bytes_per_blobNtB5_12Expectations4call
FNDA:0,_RNCNvMsa_NtNtCs2ExZl6DaDxw_18ethereum_da_client36___mock_MockEthereumDaClient_DaClient20___max_bytes_per_blobNtB7_12Expectations4call0Bb_
FNDA:0,_RNCNvMsa_NtNtCs2ExZl6DaDxw_18ethereum_da_client36___mock_MockEthereumDaClient_DaClient20___max_bytes_per_blobNtB7_12Expectations4calls_0Bb_
FNDA:0,_RNvXs1_Cs2ExZl6DaDxw_18ethereum_da_clientNtB5_29MockEthereumDaClient_DaClientNtNtCsl82brYPINY5_4core7default7Default7default
FNDA:0,_RNvMs2_Cs2ExZl6DaDxw_18ethereum_da_clientNtB5_29MockEthereumDaClient_DaClient10checkpoint
FNDA:0,_RNvMs3_Cs2ExZl6DaDxw_18ethereum_da_clientNtB5_20MockEthereumDaClient10checkpoint
FNDA:0,_RNvMs3_Cs2ExZl6DaDxw_18ethereum_da_clientNtB5_20MockEthereumDaClient3new
FNDA:0,_RNvXs6_Cs2ExZl6DaDxw_18ethereum_da_clientNtB5_20MockEthereumDaClientNtCs9dA0Hzxrugg_19da_client_interface8DaClient18publish_state_diff
FNDA:0,_RNCNvXs6_Cs2ExZl6DaDxw_18ethereum_da_clientNtB7_20MockEthereumDaClientNtCs9dA0Hzxrugg_19da_client_interface8DaClient18publish_state_diff0B7_
FNDA:0,_RNvXs6_Cs2ExZl6DaDxw_18ethereum_da_clientNtB5_20MockEthereumDaClientNtCs9dA0Hzxrugg_19da_client_interface8DaClient16verify_inclusion
FNDA:0,_RNCNvXs6_Cs2ExZl6DaDxw_18ethereum_da_clientNtB7_20MockEthereumDaClientNtCs9dA0Hzxrugg_19da_client_interface8DaClient16verify_inclusion0B7_
FNDA:0,_RNvXs6_Cs2ExZl6DaDxw_18ethereum_da_clientNtB5_20MockEthereumDaClientNtCs9dA0Hzxrugg_19da_client_interface8DaClient16max_blob_per_txn
FNDA:0,_RNCNvXs6_Cs2ExZl6DaDxw_18ethereum_da_clientNtB7_20MockEthereumDaClientNtCs9dA0Hzxrugg_19da_client_interface8DaClient16max_blob_per_txn0B7_
FNDA:0,_RNvXs6_Cs2ExZl6DaDxw_18ethereum_da_clientNtB5_20MockEthereumDaClientNtCs9dA0Hzxrugg_19da_client_interface8DaClient18max_bytes_per_blob
FNDA:0,_RNCNvXs6_Cs2ExZl6DaDxw_18ethereum_da_clientNtB7_20MockEthereumDaClientNtCs9dA0Hzxrugg_19da_client_interface8DaClient18max_bytes_per_blob0B7_
FNDA:0,_RNvMs4_Cs2ExZl6DaDxw_18ethereum_da_clientNtB5_20MockEthereumDaClient25expect_publish_state_diff
FNDA:0,_RNvMs4_Cs2ExZl6DaDxw_18ethereum_da_clientNtB5_20MockEthereumDaClient23expect_verify_inclusion
FNDA:0,_RNvMs4_Cs2ExZl6DaDxw_18ethereum_da_clientNtB5_20MockEthereumDaClient23expect_max_blob_per_txn
FNDA:0,_RNvMs4_Cs2ExZl6DaDxw_18ethereum_da_clientNtB5_20MockEthereumDaClient25expect_max_bytes_per_blob
FNDA:0,_RNvXCs2ExZl6DaDxw_18ethereum_da_clientNtB2_16EthereumDaClientINtNtCsl82brYPINY5_4core7convert4FromNtNtB2_6config16EthereumDaConfigE4from
FNDA:0,_RNvNtCs2ExZl6DaDxw_18ethereum_da_client5tests21__vec_u8_to_hex_string
FNDA:0,_RNCNvNtCs2ExZl6DaDxw_18ethereum_da_client5tests21__vec_u8_to_hex_string0B5_
FNDA:0,_RNvMNtNtCshoxz5TBPcD3_18ethereum_da_client36___mock_MockEthereumDaClient_DaClient20___publish_state_diffNtB2_5Rfunc8call_mut
FNDA:0,_RNvMs0_NtNtCshoxz5TBPcD3_18ethereum_da_client36___mock_MockEthereumDaClient_DaClient20___publish_state_diffNtB5_7Matcher7matches
FNDA:0,_RNCNvMs0_NtNtCshoxz5TBPcD3_18ethereum_da_client36___mock_MockEthereumDaClient_DaClient20___publish_state_diffNtB7_7Matcher7matches0Bb_
FNDA:0,_RNvXs2_NtNtCshoxz5TBPcD3_18ethereum_da_client36___mock_MockEthereumDaClient_DaClient20___publish_state_diffNtB5_7MatcherNtNtCsl82brYPINY5_4core3fmt7Display3fmt
FNDA:0,_RNvMs4_NtNtCshoxz5TBPcD3_18ethereum_da_client36___mock_MockEthereumDaClient_DaClient20___publish_state_diffNtB5_6Common4call
FNDA:0,_RNvMs4_NtNtCshoxz5TBPcD3_18ethereum_da_client36___mock_MockEthereumDaClient_DaClient20___publish_state_diffNtB5_6Common11in_sequence
FNDA:0,_RNvMs4_NtNtCshoxz5TBPcD3_18ethereum_da_client36___mock_MockEthereumDaClient_DaClient20___publish_state_diffNtB5_6Common7is_done
FNDA:0,_RNvMs4_NtNtCshoxz5TBPcD3_18ethereum_da_client36___mock_MockEthereumDaClient_DaClient20___publish_state_diffNtB5_6Common7matches
FNDA:0,_RNvMs4_NtNtCshoxz5TBPcD3_18ethereum_da_client36___mock_MockEthereumDaClient_DaClient20___publish_state_diffNtB5_6Common16satisfy_sequence
FNDA:0,_RNvMs4_NtNtCshoxz5TBPcD3_18ethereum_da_client36___mock_MockEthereumDaClient_DaClient20___publish_state_diffNtB5_6Common15verify_sequence
FNDA:0,_RNvXs5_NtNtCshoxz5TBPcD3_18ethereum_da_client36___mock_MockEthereumDaClient_DaClient20___publish_state_diffNtB5_6CommonNtNtNtCsl82brYPINY5_4core3ops4drop4Drop4drop
FNDA:0,_RNvMs6_NtNtCshoxz5TBPcD3_18ethereum_da_client36___mock_MockEthereumDaClient_DaClient20___publish_state_diffNtB5_11Expectation4call
FNDA:0,_RNvMs6_NtNtCshoxz5TBPcD3_18ethereum_da_client36___mock_MockEthereumDaClient_DaClient20___publish_state_diffNtB5_11Expectation11in_sequence
FNDA:0,_RNvMs6_NtNtCshoxz5TBPcD3_18ethereum_da_client36___mock_MockEthereumDaClient_DaClient20___publish_state_diffNtB5_11Expectation7is_done
FNDA:0,_RNvMs6_NtNtCshoxz5TBPcD3_18ethereum_da_client36___mock_MockEthereumDaClient_DaClient20___publish_state_diffNtB5_11Expectation7matches
FNDA:0,_RNvMs6_NtNtCshoxz5TBPcD3_18ethereum_da_client36___mock_MockEthereumDaClient_DaClient20___publish_state_diffNtB5_11Expectation3new
FNDA:0,_RNvMs6_NtNtCshoxz5TBPcD3_18ethereum_da_client36___mock_MockEthereumDaClient_DaClient20___publish_state_diffNtB5_11Expectation4once
FNDA:0,_RINvMs6_NtNtCshoxz5TBPcD3_18ethereum_da_client36___mock_MockEthereumDaClient_DaClient20___publish_state_diffNtB6_11Expectation5timesjEBa_
FNDA:0,_RINvMs4_NtNtCshoxz5TBPcD3_18ethereum_da_client36___mock_MockEthereumDaClient_DaClient20___publish_state_diffNtB6_6Common5timesjEBa_
FNDA:0,_RNvXs7_NtNtCshoxz5TBPcD3_18ethereum_da_client36___mock_MockEthereumDaClient_DaClient20___publish_state_diffNtB5_11ExpectationNtNtCsl82brYPINY5_4core7default7Default7default
FNDA:0,_RNvXs3_NtNtCshoxz5TBPcD3_18ethereum_da_client36___mock_MockEthereumDaClient_DaClient20___publish_state_diffNtB5_6CommonNtNtCsl82brYPINY5_4core7default7Default7default
FNDA:0,_RNvXs1_NtNtCshoxz5TBPcD3_18ethereum_da_client36___mock_MockEthereumDaClient_DaClient20___publish_state_diffNtB5_7MatcherNtNtCsl82brYPINY5_4core7default7Default7default
FNDA:0,_RNvXs_NtNtCshoxz5TBPcD3_18ethereum_da_client36___mock_MockEthereumDaClient_DaClient20___publish_state_diffNtB4_5RfuncNtNtCsl82brYPINY5_4core7default7Default7default
FNDA:0,_RNvMs8_NtNtCshoxz5TBPcD3_18ethereum_da_client36___mock_MockEthereumDaClient_DaClient20___publish_state_diffNtB5_12Expectations10checkpoint
FNDA:0,_RNvMs8_NtNtCshoxz5TBPcD3_18ethereum_da_client36___mock_MockEthereumDaClient_DaClient20___publish_state_diffNtB5_12Expectations6expect
FNDA:0,_RNvMsa_NtNtCshoxz5TBPcD3_18ethereum_da_client36___mock_MockEthereumDaClient_DaClient20___publish_state_diffNtB5_12Expectations4call
FNDA:0,_RNCNvMsa_NtNtCshoxz5TBPcD3_18ethereum_da_client36___mock_MockEthereumDaClient_DaClient20___publish_state_diffNtB7_12Expectations4calls_0Bb_
FNDA:0,_RNCNvMsa_NtNtCshoxz5TBPcD3_18ethereum_da_client36___mock_MockEthereumDaClient_DaClient20___publish_state_diffNtB7_12Expectations4call0Bb_
FNDA:0,_RNvMNtNtCshoxz5TBPcD3_18ethereum_da_client36___mock_MockEthereumDaClient_DaClient18___verify_inclusionNtB2_5Rfunc8call_mut
FNDA:0,_RNvMs0_NtNtCshoxz5TBPcD3_18ethereum_da_client36___mock_MockEthereumDaClient_DaClient18___verify_inclusionNtB5_7Matcher7matches
FNDA:0,_RNCNvMs0_NtNtCshoxz5TBPcD3_18ethereum_da_client36___mock_MockEthereumDaClient_DaClient18___verify_inclusionNtB7_7Matcher7matches0Bb_
FNDA:0,_RNvXs2_NtNtCshoxz5TBPcD3_18ethereum_da_client36___mock_MockEthereumDaClient_DaClient18___verify_inclusionNtB5_7MatcherNtNtCsl82brYPINY5_4core3fmt7Display3fmt
FNDA:0,_RNvMs4_NtNtCshoxz5TBPcD3_18ethereum_da_client36___mock_MockEthereumDaClient_DaClient18___verify_inclusionNtB5_6Common4call
FNDA:0,_RNvMs4_NtNtCshoxz5TBPcD3_18ethereum_da_client36___mock_MockEthereumDaClient_DaClient18___verify_inclusionNtB5_6Common11in_sequence
FNDA:0,_RNvMs4_NtNtCshoxz5TBPcD3_18ethereum_da_client36___mock_MockEthereumDaClient_DaClient18___verify_inclusionNtB5_6Common7is_done
FNDA:0,_RNvMs4_NtNtCshoxz5TBPcD3_18ethereum_da_client36___mock_MockEthereumDaClient_DaClient18___verify_inclusionNtB5_6Common7matches
FNDA:0,_RNvMs4_NtNtCshoxz5TBPcD3_18ethereum_da_client36___mock_MockEthereumDaClient_DaClient18___verify_inclusionNtB5_6Common16satisfy_sequence
FNDA:0,_RNvMs4_NtNtCshoxz5TBPcD3_18ethereum_da_client36___mock_MockEthereumDaClient_DaClient18___verify_inclusionNtB5_6Common15verify_sequence
FNDA:0,_RNvXs5_NtNtCshoxz5TBPcD3_18ethereum_da_client36___mock_MockEthereumDaClient_DaClient18___verify_inclusionNtB5_6CommonNtNtNtCsl82brYPINY5_4core3ops4drop4Drop4drop
FNDA:0,_RNvMs6_NtNtCshoxz5TBPcD3_18ethereum_da_client36___mock_MockEthereumDaClient_DaClient18___verify_inclusionNtB5_11Expectation4call
FNDA:0,_RNvMs6_NtNtCshoxz5TBPcD3_18ethereum_da_client36___mock_MockEthereumDaClient_DaClient18___verify_inclusionNtB5_11Expectation11in_sequence
FNDA:0,_RNvMs6_NtNtCshoxz5TBPcD3_18ethereum_da_client36___mock_MockEthereumDaClient_DaClient18___verify_inclusionNtB5_11Expectation7is_done
FNDA:0,_RNvMs6_NtNtCshoxz5TBPcD3_18ethereum_da_client36___mock_MockEthereumDaClient_DaClient18___verify_inclusionNtB5_11Expectation7matches
FNDA:0,_RNvMs6_NtNtCshoxz5TBPcD3_18ethereum_da_client36___mock_MockEthereumDaClient_DaClient18___verify_inclusionNtB5_11Expectation3new
FNDA:0,_RNvMs6_NtNtCshoxz5TBPcD3_18ethereum_da_client36___mock_MockEthereumDaClient_DaClient18___verify_inclusionNtB5_11Expectation4once
FNDA:0,_RINvMs6_NtNtCshoxz5TBPcD3_18ethereum_da_client36___mock_MockEthereumDaClient_DaClient18___verify_inclusionNtB6_11Expectation5timesjEBa_
FNDA:0,_RINvMs4_NtNtCshoxz5TBPcD3_18ethereum_da_client36___mock_MockEthereumDaClient_DaClient18___verify_inclusionNtB6_6Common5timesjEBa_
FNDA:0,_RNvXs7_NtNtCshoxz5TBPcD3_18ethereum_da_client36___mock_MockEthereumDaClient_DaClient18___verify_inclusionNtB5_11ExpectationNtNtCsl82brYPINY5_4core7default7Default7default
FNDA:0,_RNvXs3_NtNtCshoxz5TBPcD3_18ethereum_da_client36___mock_MockEthereumDaClient_DaClient18___verify_inclusionNtB5_6CommonNtNtCsl82brYPINY5_4core7default7Default7default
FNDA:0,_RNvXs1_NtNtCshoxz5TBPcD3_18ethereum_da_client36___mock_MockEthereumDaClient_DaClient18___verify_inclusionNtB5_7MatcherNtNtCsl82brYPINY5_4core7default7Default7default
FNDA:0,_RNvXs_NtNtCshoxz5TBPcD3_18ethereum_da_client36___mock_MockEthereumDaClient_DaClient18___verify_inclusionNtB4_5RfuncNtNtCsl82brYPINY5_4core7default7Default7default
FNDA:0,_RNvMs8_NtNtCshoxz5TBPcD3_18ethereum_da_client36___mock_MockEthereumDaClient_DaClient18___verify_inclusionNtB5_12Expectations10checkpoint
FNDA:0,_RNvMs8_NtNtCshoxz5TBPcD3_18ethereum_da_client36___mock_MockEthereumDaClient_DaClient18___verify_inclusionNtB5_12Expectations6expect
FNDA:0,_RNvMsa_NtNtCshoxz5TBPcD3_18ethereum_da_client36___mock_MockEthereumDaClient_DaClient18___verify_inclusionNtB5_12Expectations4call
FNDA:0,_RNCNvMsa_NtNtCshoxz5TBPcD3_18ethereum_da_client36___mock_MockEthereumDaClient_DaClient18___verify_inclusionNtB7_12Expectations4calls_0Bb_
FNDA:0,_RNCNvMsa_NtNtCshoxz5TBPcD3_18ethereum_da_client36___mock_MockEthereumDaClient_DaClient18___verify_inclusionNtB7_12Expectations4call0Bb_
FNDA:0,_RNvMNtNtCshoxz5TBPcD3_18ethereum_da_client36___mock_MockEthereumDaClient_DaClient18___max_blob_per_txnNtB2_5Rfunc8call_mut
FNDA:0,_RNvMs0_NtNtCshoxz5TBPcD3_18ethereum_da_client36___mock_MockEthereumDaClient_DaClient18___max_blob_per_txnNtB5_7Matcher7matches
FNDA:0,_RNCNvMs0_NtNtCshoxz5TBPcD3_18ethereum_da_client36___mock_MockEthereumDaClient_DaClient18___max_blob_per_txnNtB7_7Matcher7matches0Bb_
FNDA:0,_RNvXs2_NtNtCshoxz5TBPcD3_18ethereum_da_client36___mock_MockEthereumDaClient_DaClient18___max_blob_per_txnNtB5_7MatcherNtNtCsl82brYPINY5_4core3fmt7Display3fmt
FNDA:0,_RNvMs4_NtNtCshoxz5TBPcD3_18ethereum_da_client36___mock_MockEthereumDaClient_DaClient18___max_blob_per_txnNtB5_6Common4call
FNDA:0,_RNvMs4_NtNtCshoxz5TBPcD3_18ethereum_da_client36___mock_MockEthereumDaClient_DaClient18___max_blob_per_txnNtB5_6Common11in_sequence
FNDA:0,_RNvMs4_NtNtCshoxz5TBPcD3_18ethereum_da_client36___mock_MockEthereumDaClient_DaClient18___max_blob_per_txnNtB5_6Common7is_done
FNDA:0,_RNvMs4_NtNtCshoxz5TBPcD3_18ethereum_da_client36___mock_MockEthereumDaClient_DaClient18___max_blob_per_txnNtB5_6Common7matches
FNDA:0,_RNvMs4_NtNtCshoxz5TBPcD3_18ethereum_da_client36___mock_MockEthereumDaClient_DaClient18___max_blob_per_txnNtB5_6Common16satisfy_sequence
FNDA:0,_RNvMs4_NtNtCshoxz5TBPcD3_18ethereum_da_client36___mock_MockEthereumDaClient_DaClient18___max_blob_per_txnNtB5_6Common4with
FNDA:0,_RNvMs4_NtNtCshoxz5TBPcD3_18ethereum_da_client36___mock_MockEthereumDaClient_DaClient18___max_blob_per_txnNtB5_6Common15verify_sequence
FNDA:0,_RNvXs5_NtNtCshoxz5TBPcD3_18ethereum_da_client36___mock_MockEthereumDaClient_DaClient18___max_blob_per_txnNtB5_6CommonNtNtNtCsl82brYPINY5_4core3ops4drop4Drop4drop
FNDA:0,_RNvMs6_NtNtCshoxz5TBPcD3_18ethereum_da_client36___mock_MockEthereumDaClient_DaClient18___max_blob_per_txnNtB5_11Expectation4call
FNDA:0,_RNvMs6_NtNtCshoxz5TBPcD3_18ethereum_da_client36___mock_MockEthereumDaClient_DaClient18___max_blob_per_txnNtB5_11Expectation11in_sequence
FNDA:0,_RNvMs6_NtNtCshoxz5TBPcD3_18ethereum_da_client36___mock_MockEthereumDaClient_DaClient18___max_blob_per_txnNtB5_11Expectation7is_done
FNDA:0,_RNvMs6_NtNtCshoxz5TBPcD3_18ethereum_da_client36___mock_MockEthereumDaClient_DaClient18___max_blob_per_txnNtB5_11Expectation7matches
FNDA:0,_RNvMs6_NtNtCshoxz5TBPcD3_18ethereum_da_client36___mock_MockEthereumDaClient_DaClient18___max_blob_per_txnNtB5_11Expectation3new
FNDA:0,_RNvMs6_NtNtCshoxz5TBPcD3_18ethereum_da_client36___mock_MockEthereumDaClient_DaClient18___max_blob_per_txnNtB5_11Expectation4once
FNDA:0,_RINvMs6_NtNtCshoxz5TBPcD3_18ethereum_da_client36___mock_MockEthereumDaClient_DaClient18___max_blob_per_txnNtB6_11Expectation5timesjEBa_
FNDA:0,_RINvMs4_NtNtCshoxz5TBPcD3_18ethereum_da_client36___mock_MockEthereumDaClient_DaClient18___max_blob_per_txnNtB6_6Common5timesjEBa_
FNDA:0,_RNvMs6_NtNtCshoxz5TBPcD3_18ethereum_da_client36___mock_MockEthereumDaClient_DaClient18___max_blob_per_txnNtB5_11Expectation4with
FNDA:0,_RNvXs7_NtNtCshoxz5TBPcD3_18ethereum_da_client36___mock_MockEthereumDaClient_DaClient18___max_blob_per_txnNtB5_11ExpectationNtNtCsl82brYPINY5_4core7default7Default7default
FNDA:0,_RNvXs3_NtNtCshoxz5TBPcD3_18ethereum_da_client36___mock_MockEthereumDaClient_DaClient18___max_blob_per_txnNtB5_6CommonNtNtCsl82brYPINY5_4core7default7Default7default
FNDA:0,_RNvXs1_NtNtCshoxz5TBPcD3_18ethereum_da_client36___mock_MockEthereumDaClient_DaClient18___max_blob_per_txnNtB5_7MatcherNtNtCsl82brYPINY5_4core7default7Default7default
FNDA:0,_RNvXs_NtNtCshoxz5TBPcD3_18ethereum_da_client36___mock_MockEthereumDaClient_DaClient18___max_blob_per_txnNtB4_5RfuncNtNtCsl82brYPINY5_4core7default7Default7default
FNDA:0,_RNvMs8_NtNtCshoxz5TBPcD3_18ethereum_da_client36___mock_MockEthereumDaClient_DaClient18___max_blob_per_txnNtB5_12Expectations10checkpoint
FNDA:0,_RNvMs8_NtNtCshoxz5TBPcD3_18ethereum_da_client36___mock_MockEthereumDaClient_DaClient18___max_blob_per_txnNtB5_12Expectations6expect
FNDA:0,_RNvMsa_NtNtCshoxz5TBPcD3_18ethereum_da_client36___mock_MockEthereumDaClient_DaClient18___max_blob_per_txnNtB5_12Expectations4call
FNDA:0,_RNCNvMsa_NtNtCshoxz5TBPcD3_18ethereum_da_client36___mock_MockEthereumDaClient_DaClient18___max_blob_per_txnNtB7_12Expectations4calls_0Bb_
FNDA:0,_RNCNvMsa_NtNtCshoxz5TBPcD3_18ethereum_da_client36___mock_MockEthereumDaClient_DaClient18___max_blob_per_txnNtB7_12Expectations4call0Bb_
FNDA:0,_RNvMNtNtCshoxz5TBPcD3_18ethereum_da_client36___mock_MockEthereumDaClient_DaClient20___max_bytes_per_blobNtB2_5Rfunc8call_mut
FNDA:0,_RNvMs0_NtNtCshoxz5TBPcD3_18ethereum_da_client36___mock_MockEthereumDaClient_DaClient20___max_bytes_per_blobNtB5_7Matcher7matches
FNDA:0,_RNCNvMs0_NtNtCshoxz5TBPcD3_18ethereum_da_client36___mock_MockEthereumDaClient_DaClient20___max_bytes_per_blobNtB7_7Matcher7matches0Bb_
FNDA:0,_RNvXs2_NtNtCshoxz5TBPcD3_18ethereum_da_client36___mock_MockEthereumDaClient_DaClient20___max_bytes_per_blobNtB5_7MatcherNtNtCsl82brYPINY5_4core3fmt7Display3fmt
FNDA:0,_RNvMs4_NtNtCshoxz5TBPcD3_18ethereum_da_client36___mock_MockEthereumDaClient_DaClient20___max_bytes_per_blobNtB5_6Common4call
FNDA:0,_RNvMs4_NtNtCshoxz5TBPcD3_18ethereum_da_client36___mock_MockEthereumDaClient_DaClient20___max_bytes_per_blobNtB5_6Common11in_sequence
FNDA:0,_RNvMs4_NtNtCshoxz5TBPcD3_18ethereum_da_client36___mock_MockEthereumDaClient_DaClient20___max_bytes_per_blobNtB5_6Common7is_done
FNDA:0,_RNvMs4_NtNtCshoxz5TBPcD3_18ethereum_da_client36___mock_MockEthereumDaClient_DaClient20___max_bytes_per_blobNtB5_6Common7matches
FNDA:0,_RNvMs4_NtNtCshoxz5TBPcD3_18ethereum_da_client36___mock_MockEthereumDaClient_DaClient20___max_bytes_per_blobNtB5_6Common16satisfy_sequence
FNDA:0,_RNvMs4_NtNtCshoxz5TBPcD3_18ethereum_da_client36___mock_MockEthereumDaClient_DaClient20___max_bytes_per_blobNtB5_6Common4with
FNDA:0,_RNvMs4_NtNtCshoxz5TBPcD3_18ethereum_da_client36___mock_MockEthereumDaClient_DaClient20___max_bytes_per_blobNtB5_6Common15verify_sequence
FNDA:0,_RNvXs5_NtNtCshoxz5TBPcD3_18ethereum_da_client36___mock_MockEthereumDaClient_DaClient20___max_bytes_per_blobNtB5_6CommonNtNtNtCsl82brYPINY5_4core3ops4drop4Drop4drop
FNDA:0,_RNvMs6_NtNtCshoxz5TBPcD3_18ethereum_da_client36___mock_MockEthereumDaClient_DaClient20___max_bytes_per_blobNtB5_11Expectation4call
FNDA:0,_RNvMs6_NtNtCshoxz5TBPcD3_18ethereum_da_client36___mock_MockEthereumDaClient_DaClient20___max_bytes_per_blobNtB5_11Expectation11in_sequence
FNDA:0,_RNvMs6_NtNtCshoxz5TBPcD3_18ethereum_da_client36___mock_MockEthereumDaClient_DaClient20___max_bytes_per_blobNtB5_11Expectation7is_done
FNDA:0,_RNvMs6_NtNtCshoxz5TBPcD3_18ethereum_da_client36___mock_MockEthereumDaClient_DaClient20___max_bytes_per_blobNtB5_11Expectation7matches
FNDA:0,_RNvMs6_NtNtCshoxz5TBPcD3_18ethereum_da_client36___mock_MockEthereumDaClient_DaClient20___max_bytes_per_blobNtB5_11Expectation3new
FNDA:0,_RNvMs6_NtNtCshoxz5TBPcD3_18ethereum_da_client36___mock_MockEthereumDaClient_DaClient20___max_bytes_per_blobNtB5_11Expectation4once
FNDA:0,_RINvMs6_NtNtCshoxz5TBPcD3_18ethereum_da_client36___mock_MockEthereumDaClient_DaClient20___max_bytes_per_blobNtB6_11Expectation5timesjEBa_
FNDA:0,_RINvMs4_NtNtCshoxz5TBPcD3_18ethereum_da_client36___mock_MockEthereumDaClient_DaClient20___max_bytes_per_blobNtB6_6Common5timesjEBa_
FNDA:0,_RNvMs6_NtNtCshoxz5TBPcD3_18ethereum_da_client36___mock_MockEthereumDaClient_DaClient20___max_bytes_per_blobNtB5_11Expectation4with
FNDA:0,_RNvXs7_NtNtCshoxz5TBPcD3_18ethereum_da_client36___mock_MockEthereumDaClient_DaClient20___max_bytes_per_blobNtB5_11ExpectationNtNtCsl82brYPINY5_4core7default7Default7default
FNDA:0,_RNvXs3_NtNtCshoxz5TBPcD3_18ethereum_da_client36___mock_MockEthereumDaClient_DaClient20___max_bytes_per_blobNtB5_6CommonNtNtCsl82brYPINY5_4core7default7Default7default
FNDA:0,_RNvXs1_NtNtCshoxz5TBPcD3_18ethereum_da_client36___mock_MockEthereumDaClient_DaClient20___max_bytes_per_blobNtB5_7MatcherNtNtCsl82brYPINY5_4core7default7Default7default
FNDA:0,_RNvXs_NtNtCshoxz5TBPcD3_18ethereum_da_client36___mock_MockEthereumDaClient_DaClient20___max_bytes_per_blobNtB4_5RfuncNtNtCsl82brYPINY5_4core7default7Default7default
FNDA:0,_RNvMs8_NtNtCshoxz5TBPcD3_18ethereum_da_client36___mock_MockEthereumDaClient_DaClient20___max_bytes_per_blobNtB5_12Expectations10checkpoint
FNDA:0,_RNvMs8_NtNtCshoxz5TBPcD3_18ethereum_da_client36___mock_MockEthereumDaClient_DaClient20___max_bytes_per_blobNtB5_12Expectations6expect
FNDA:0,_RNvMsa_NtNtCshoxz5TBPcD3_18ethereum_da_client36___mock_MockEthereumDaClient_DaClient20___max_bytes_per_blobNtB5_12Expectations4call
FNDA:0,_RNCNvMsa_NtNtCshoxz5TBPcD3_18ethereum_da_client36___mock_MockEthereumDaClient_DaClient20___max_bytes_per_blobNtB7_12Expectations4calls_0Bb_
FNDA:0,_RNCNvMsa_NtNtCshoxz5TBPcD3_18ethereum_da_client36___mock_MockEthereumDaClient_DaClient20___max_bytes_per_blobNtB7_12Expectations4call0Bb_
FNDA:0,_RNvXCshoxz5TBPcD3_18ethereum_da_clientNtB2_16EthereumDaClientINtNtCsl82brYPINY5_4core7convert4FromNtNtB2_6config16EthereumDaConfigE4from
FNDA:0,_RNvCshoxz5TBPcD3_18ethereum_da_client15prepare_sidecar
FNDA:0,_RNCNvCshoxz5TBPcD3_18ethereum_da_client15prepare_sidecar0B3_
FNDA:0,_RNvXs_Cshoxz5TBPcD3_18ethereum_da_clientNtB4_20MockEthereumDaClientNtNtCsl82brYPINY5_4core3fmt5Debug3fmt
FNDA:0,_RNvMs2_Cshoxz5TBPcD3_18ethereum_da_clientNtB5_29MockEthereumDaClient_DaClient10checkpoint
FNDA:0,_RNvMs3_Cshoxz5TBPcD3_18ethereum_da_clientNtB5_20MockEthereumDaClient10checkpoint
FNDA:0,_RNvMs4_Cshoxz5TBPcD3_18ethereum_da_clientNtB5_20MockEthereumDaClient25expect_publish_state_diff
FNDA:0,_RNvMs4_Cshoxz5TBPcD3_18ethereum_da_clientNtB5_20MockEthereumDaClient23expect_verify_inclusion
FNDA:0,_RNvMs4_Cshoxz5TBPcD3_18ethereum_da_clientNtB5_20MockEthereumDaClient23expect_max_blob_per_txn
FNDA:0,_RNvMs4_Cshoxz5TBPcD3_18ethereum_da_clientNtB5_20MockEthereumDaClient25expect_max_bytes_per_blob
FNDA:0,_RNvXs5_Cshoxz5TBPcD3_18ethereum_da_clientNtB5_16EthereumDaClientNtCs9dA0Hzxrugg_19da_client_interface8DaClient18publish_state_diff
FNDA:0,_RNCNvXs5_Cshoxz5TBPcD3_18ethereum_da_clientNtB7_16EthereumDaClientNtCs9dA0Hzxrugg_19da_client_interface8DaClient18publish_state_diff0B7_
FNDA:0,_RNvXs5_Cshoxz5TBPcD3_18ethereum_da_clientNtB5_16EthereumDaClientNtCs9dA0Hzxrugg_19da_client_interface8DaClient16verify_inclusion
FNDA:0,_RNCNvXs5_Cshoxz5TBPcD3_18ethereum_da_clientNtB7_16EthereumDaClientNtCs9dA0Hzxrugg_19da_client_interface8DaClient16verify_inclusion0B7_
FNDA:0,_RNvXs5_Cshoxz5TBPcD3_18ethereum_da_clientNtB5_16EthereumDaClientNtCs9dA0Hzxrugg_19da_client_interface8DaClient16max_blob_per_txn
FNDA:0,_RNCNvXs5_Cshoxz5TBPcD3_18ethereum_da_clientNtB7_16EthereumDaClientNtCs9dA0Hzxrugg_19da_client_interface8DaClient16max_blob_per_txn0B7_
FNDA:0,_RNvXs5_Cshoxz5TBPcD3_18ethereum_da_clientNtB5_16EthereumDaClientNtCs9dA0Hzxrugg_19da_client_interface8DaClient18max_bytes_per_blob
FNDA:0,_RNCNvXs5_Cshoxz5TBPcD3_18ethereum_da_clientNtB7_16EthereumDaClientNtCs9dA0Hzxrugg_19da_client_interface8DaClient18max_bytes_per_blob0B7_
FNDA:0,_RNvXs6_Cshoxz5TBPcD3_18ethereum_da_clientNtB5_20MockEthereumDaClientNtCs9dA0Hzxrugg_19da_client_interface8DaClient18publish_state_diff
FNDA:0,_RNCNvXs6_Cshoxz5TBPcD3_18ethereum_da_clientNtB7_20MockEthereumDaClientNtCs9dA0Hzxrugg_19da_client_interface8DaClient18publish_state_diff0B7_
FNDA:0,_RNvXs6_Cshoxz5TBPcD3_18ethereum_da_clientNtB5_20MockEthereumDaClientNtCs9dA0Hzxrugg_19da_client_interface8DaClient16verify_inclusion
FNDA:0,_RNCNvXs6_Cshoxz5TBPcD3_18ethereum_da_clientNtB7_20MockEthereumDaClientNtCs9dA0Hzxrugg_19da_client_interface8DaClient16verify_inclusion0B7_
FNDA:0,_RNvXs6_Cshoxz5TBPcD3_18ethereum_da_clientNtB5_20MockEthereumDaClientNtCs9dA0Hzxrugg_19da_client_interface8DaClient16max_blob_per_txn
FNDA:0,_RNCNvXs6_Cshoxz5TBPcD3_18ethereum_da_clientNtB7_20MockEthereumDaClientNtCs9dA0Hzxrugg_19da_client_interface8DaClient16max_blob_per_txn0B7_
FNDA:0,_RNvXs6_Cshoxz5TBPcD3_18ethereum_da_clientNtB5_20MockEthereumDaClientNtCs9dA0Hzxrugg_19da_client_interface8DaClient18max_bytes_per_blob
FNDA:0,_RNCNvXs6_Cshoxz5TBPcD3_18ethereum_da_clientNtB7_20MockEthereumDaClientNtCs9dA0Hzxrugg_19da_client_interface8DaClient18max_bytes_per_blob0B7_
FNDA:0,_RNvXs0_Cshoxz5TBPcD3_18ethereum_da_clientNtB5_20MockEthereumDaClientNtNtCsl82brYPINY5_4core7default7Default7default
FNDA:0,_RNvMs4_NtNtCshoxz5TBPcD3_18ethereum_da_client36___mock_MockEthereumDaClient_DaClient20___publish_state_diffNtB5_6Common5never
FNDA:0,_RINvMs4_NtNtCshoxz5TBPcD3_18ethereum_da_client36___mock_MockEthereumDaClient_DaClient20___publish_state_diffNtB6_6Common4withppEBa_
FNDA:0,_RINvMs4_NtNtCshoxz5TBPcD3_18ethereum_da_client36___mock_MockEthereumDaClient_DaClient20___publish_state_diffNtB6_6Common5withfpEBa_
FNDA:0,_RINvMs4_NtNtCshoxz5TBPcD3_18ethereum_da_client36___mock_MockEthereumDaClient_DaClient20___publish_state_diffNtB6_6Common8withf_stpEBa_
FNDA:0,_RINvMs6_NtNtCshoxz5TBPcD3_18ethereum_da_client36___mock_MockEthereumDaClient_DaClient20___publish_state_diffNtB6_11Expectation12return_constpEBa_
FNDA:0,_RNCINvMs6_NtNtCshoxz5TBPcD3_18ethereum_da_client36___mock_MockEthereumDaClient_DaClient20___publish_state_diffNtB8_11Expectation12return_constpE0Bc_
FNDA:0,_RINvMs6_NtNtCshoxz5TBPcD3_18ethereum_da_client36___mock_MockEthereumDaClient_DaClient20___publish_state_diffNtB6_11Expectation15return_const_stpEBa_
FNDA:0,_RNCINvMs6_NtNtCshoxz5TBPcD3_18ethereum_da_client36___mock_MockEthereumDaClient_DaClient20___publish_state_diffNtB8_11Expectation15return_const_stpE0Bc_
FNDA:0,_RINvMs6_NtNtCshoxz5TBPcD3_18ethereum_da_client36___mock_MockEthereumDaClient_DaClient20___publish_state_diffNtB6_11Expectation11return_oncepEBa_
FNDA:0,_RINvMs6_NtNtCshoxz5TBPcD3_18ethereum_da_client36___mock_MockEthereumDaClient_DaClient20___publish_state_diffNtB6_11Expectation14return_once_stpEBa_
FNDA:0,_RINvMs6_NtNtCshoxz5TBPcD3_18ethereum_da_client36___mock_MockEthereumDaClient_DaClient20___publish_state_diffNtB6_11Expectation9returningpEBa_
FNDA:0,_RINvMs6_NtNtCshoxz5TBPcD3_18ethereum_da_client36___mock_MockEthereumDaClient_DaClient20___publish_state_diffNtB6_11Expectation12returning_stpEBa_
FNDA:0,_RNvMs6_NtNtCshoxz5TBPcD3_18ethereum_da_client36___mock_MockEthereumDaClient_DaClient20___publish_state_diffNtB5_11Expectation5never
FNDA:0,_RINvMs6_NtNtCshoxz5TBPcD3_18ethereum_da_client36___mock_MockEthereumDaClient_DaClient20___publish_state_diffNtB6_11Expectation4withppEBa_
FNDA:0,_RINvMs6_NtNtCshoxz5TBPcD3_18ethereum_da_client36___mock_MockEthereumDaClient_DaClient20___publish_state_diffNtB6_11Expectation5withfpEBa_
FNDA:0,_RINvMs6_NtNtCshoxz5TBPcD3_18ethereum_da_client36___mock_MockEthereumDaClient_DaClient20___publish_state_diffNtB6_11Expectation8withf_stpEBa_
FNDA:0,_RNvMs8_NtNtCshoxz5TBPcD3_18ethereum_da_client36___mock_MockEthereumDaClient_DaClient20___publish_state_diffNtB5_12Expectations3new
FNDA:0,_RNvXs9_NtNtCshoxz5TBPcD3_18ethereum_da_client36___mock_MockEthereumDaClient_DaClient20___publish_state_diffNtB5_12ExpectationsNtNtCsl82brYPINY5_4core7default7Default7default
FNDA:0,_RNvMs4_NtNtCshoxz5TBPcD3_18ethereum_da_client36___mock_MockEthereumDaClient_DaClient18___verify_inclusionNtB5_6Common5never
FNDA:0,_RINvMs4_NtNtCshoxz5TBPcD3_18ethereum_da_client36___mock_MockEthereumDaClient_DaClient18___verify_inclusionNtB6_6Common4withpEBa_
FNDA:0,_RINvMs4_NtNtCshoxz5TBPcD3_18ethereum_da_client36___mock_MockEthereumDaClient_DaClient18___verify_inclusionNtB6_6Common5withfpEBa_
FNDA:0,_RINvMs4_NtNtCshoxz5TBPcD3_18ethereum_da_client36___mock_MockEthereumDaClient_DaClient18___verify_inclusionNtB6_6Common8withf_stpEBa_
FNDA:0,_RINvMs6_NtNtCshoxz5TBPcD3_18ethereum_da_client36___mock_MockEthereumDaClient_DaClient18___verify_inclusionNtB6_11Expectation12return_constpEBa_
FNDA:0,_RNCINvMs6_NtNtCshoxz5TBPcD3_18ethereum_da_client36___mock_MockEthereumDaClient_DaClient18___verify_inclusionNtB8_11Expectation12return_constpE0Bc_
FNDA:0,_RINvMs6_NtNtCshoxz5TBPcD3_18ethereum_da_client36___mock_MockEthereumDaClient_DaClient18___verify_inclusionNtB6_11Expectation15return_const_stpEBa_
FNDA:0,_RNCINvMs6_NtNtCshoxz5TBPcD3_18ethereum_da_client36___mock_MockEthereumDaClient_DaClient18___verify_inclusionNtB8_11Expectation15return_const_stpE0Bc_
FNDA:0,_RINvMs6_NtNtCshoxz5TBPcD3_18ethereum_da_client36___mock_MockEthereumDaClient_DaClient18___verify_inclusionNtB6_11Expectation11return_oncepEBa_
FNDA:0,_RINvMs6_NtNtCshoxz5TBPcD3_18ethereum_da_client36___mock_MockEthereumDaClient_DaClient18___verify_inclusionNtB6_11Expectation14return_once_stpEBa_
FNDA:0,_RINvMs6_NtNtCshoxz5TBPcD3_18ethereum_da_client36___mock_MockEthereumDaClient_DaClient18___verify_inclusionNtB6_11Expectation9returningpEBa_
FNDA:0,_RINvMs6_NtNtCshoxz5TBPcD3_18ethereum_da_client36___mock_MockEthereumDaClient_DaClient18___verify_inclusionNtB6_11Expectation12returning_stpEBa_
FNDA:0,_RNvMs6_NtNtCshoxz5TBPcD3_18ethereum_da_client36___mock_MockEthereumDaClient_DaClient18___verify_inclusionNtB5_11Expectation5never
FNDA:0,_RINvMs6_NtNtCshoxz5TBPcD3_18ethereum_da_client36___mock_MockEthereumDaClient_DaClient18___verify_inclusionNtB6_11Expectation4withpEBa_
FNDA:0,_RINvMs6_NtNtCshoxz5TBPcD3_18ethereum_da_client36___mock_MockEthereumDaClient_DaClient18___verify_inclusionNtB6_11Expectation5withfpEBa_
FNDA:0,_RINvMs6_NtNtCshoxz5TBPcD3_18ethereum_da_client36___mock_MockEthereumDaClient_DaClient18___verify_inclusionNtB6_11Expectation8withf_stpEBa_
FNDA:0,_RNvMs8_NtNtCshoxz5TBPcD3_18ethereum_da_client36___mock_MockEthereumDaClient_DaClient18___verify_inclusionNtB5_12Expectations3new
FNDA:0,_RNvXs9_NtNtCshoxz5TBPcD3_18ethereum_da_client36___mock_MockEthereumDaClient_DaClient18___verify_inclusionNtB5_12ExpectationsNtNtCsl82brYPINY5_4core7default7Default7default
FNDA:0,_RNvMs4_NtNtCshoxz5TBPcD3_18ethereum_da_client36___mock_MockEthereumDaClient_DaClient18___max_blob_per_txnNtB5_6Common5never
FNDA:0,_RINvMs4_NtNtCshoxz5TBPcD3_18ethereum_da_client36___mock_MockEthereumDaClient_DaClient18___max_blob_per_txnNtB6_6Common5withfpEBa_
FNDA:0,_RINvMs4_NtNtCshoxz5TBPcD3_18ethereum_da_client36___mock_MockEthereumDaClient_DaClient18___max_blob_per_txnNtB6_6Common8withf_stpEBa_
FNDA:0,_RINvMs6_NtNtCshoxz5TBPcD3_18ethereum_da_client36___mock_MockEthereumDaClient_DaClient18___max_blob_per_txnNtB6_11Expectation12return_constpEBa_
FNDA:0,_RNCINvMs6_NtNtCshoxz5TBPcD3_18ethereum_da_client36___mock_MockEthereumDaClient_DaClient18___max_blob_per_txnNtB8_11Expectation12return_constpE0Bc_
FNDA:0,_RINvMs6_NtNtCshoxz5TBPcD3_18ethereum_da_client36___mock_MockEthereumDaClient_DaClient18___max_blob_per_txnNtB6_11Expectation15return_const_stpEBa_
FNDA:0,_RNCINvMs6_NtNtCshoxz5TBPcD3_18ethereum_da_client36___mock_MockEthereumDaClient_DaClient18___max_blob_per_txnNtB8_11Expectation15return_const_stpE0Bc_
FNDA:0,_RINvMs6_NtNtCshoxz5TBPcD3_18ethereum_da_client36___mock_MockEthereumDaClient_DaClient18___max_blob_per_txnNtB6_11Expectation11return_oncepEBa_
FNDA:0,_RINvMs6_NtNtCshoxz5TBPcD3_18ethereum_da_client36___mock_MockEthereumDaClient_DaClient18___max_blob_per_txnNtB6_11Expectation14return_once_stpEBa_
FNDA:0,_RINvMs6_NtNtCshoxz5TBPcD3_18ethereum_da_client36___mock_MockEthereumDaClient_DaClient18___max_blob_per_txnNtB6_11Expectation9returningpEBa_
FNDA:0,_RINvMs6_NtNtCshoxz5TBPcD3_18ethereum_da_client36___mock_MockEthereumDaClient_DaClient18___max_blob_per_txnNtB6_11Expectation12returning_stpEBa_
FNDA:0,_RNvMs6_NtNtCshoxz5TBPcD3_18ethereum_da_client36___mock_MockEthereumDaClient_DaClient18___max_blob_per_txnNtB5_11Expectation5never
FNDA:0,_RINvMs6_NtNtCshoxz5TBPcD3_18ethereum_da_client36___mock_MockEthereumDaClient_DaClient18___max_blob_per_txnNtB6_11Expectation5withfpEBa_
FNDA:0,_RINvMs6_NtNtCshoxz5TBPcD3_18ethereum_da_client36___mock_MockEthereumDaClient_DaClient18___max_blob_per_txnNtB6_11Expectation8withf_stpEBa_
FNDA:0,_RNvMs8_NtNtCshoxz5TBPcD3_18ethereum_da_client36___mock_MockEthereumDaClient_DaClient18___max_blob_per_txnNtB5_12Expectations3new
FNDA:0,_RNvXs9_NtNtCshoxz5TBPcD3_18ethereum_da_client36___mock_MockEthereumDaClient_DaClient18___max_blob_per_txnNtB5_12ExpectationsNtNtCsl82brYPINY5_4core7default7Default7default
FNDA:0,_RNvMs4_NtNtCshoxz5TBPcD3_18ethereum_da_client36___mock_MockEthereumDaClient_DaClient20___max_bytes_per_blobNtB5_6Common5never
FNDA:0,_RINvMs4_NtNtCshoxz5TBPcD3_18ethereum_da_client36___mock_MockEthereumDaClient_DaClient20___max_bytes_per_blobNtB6_6Common5withfpEBa_
FNDA:0,_RINvMs4_NtNtCshoxz5TBPcD3_18ethereum_da_client36___mock_MockEthereumDaClient_DaClient20___max_bytes_per_blobNtB6_6Common8withf_stpEBa_
FNDA:0,_RINvMs6_NtNtCshoxz5TBPcD3_18ethereum_da_client36___mock_MockEthereumDaClient_DaClient20___max_bytes_per_blobNtB6_11Expectation12return_constpEBa_
FNDA:0,_RNCINvMs6_NtNtCshoxz5TBPcD3_18ethereum_da_client36___mock_MockEthereumDaClient_DaClient20___max_bytes_per_blobNtB8_11Expectation12return_constpE0Bc_
FNDA:0,_RINvMs6_NtNtCshoxz5TBPcD3_18ethereum_da_client36___mock_MockEthereumDaClient_DaClient20___max_bytes_per_blobNtB6_11Expectation15return_const_stpEBa_
FNDA:0,_RNCINvMs6_NtNtCshoxz5TBPcD3_18ethereum_da_client36___mock_MockEthereumDaClient_DaClient20___max_bytes_per_blobNtB8_11Expectation15return_const_stpE0Bc_
FNDA:0,_RINvMs6_NtNtCshoxz5TBPcD3_18ethereum_da_client36___mock_MockEthereumDaClient_DaClient20___max_bytes_per_blobNtB6_11Expectation11return_oncepEBa_
FNDA:0,_RINvMs6_NtNtCshoxz5TBPcD3_18ethereum_da_client36___mock_MockEthereumDaClient_DaClient20___max_bytes_per_blobNtB6_11Expectation14return_once_stpEBa_
FNDA:0,_RINvMs6_NtNtCshoxz5TBPcD3_18ethereum_da_client36___mock_MockEthereumDaClient_DaClient20___max_bytes_per_blobNtB6_11Expectation9returningpEBa_
FNDA:0,_RINvMs6_NtNtCshoxz5TBPcD3_18ethereum_da_client36___mock_MockEthereumDaClient_DaClient20___max_bytes_per_blobNtB6_11Expectation12returning_stpEBa_
FNDA:0,_RNvMs6_NtNtCshoxz5TBPcD3_18ethereum_da_client36___mock_MockEthereumDaClient_DaClient20___max_bytes_per_blobNtB5_11Expectation5never
FNDA:0,_RINvMs6_NtNtCshoxz5TBPcD3_18ethereum_da_client36___mock_MockEthereumDaClient_DaClient20___max_bytes_per_blobNtB6_11Expectation5withfpEBa_
FNDA:0,_RINvMs6_NtNtCshoxz5TBPcD3_18ethereum_da_client36___mock_MockEthereumDaClient_DaClient20___max_bytes_per_blobNtB6_11Expectation8withf_stpEBa_
FNDA:0,_RNvMs8_NtNtCshoxz5TBPcD3_18ethereum_da_client36___mock_MockEthereumDaClient_DaClient20___max_bytes_per_blobNtB5_12Expectations3new
FNDA:0,_RNvXs9_NtNtCshoxz5TBPcD3_18ethereum_da_client36___mock_MockEthereumDaClient_DaClient20___max_bytes_per_blobNtB5_12ExpectationsNtNtCsl82brYPINY5_4core7default7Default7default
FNDA:0,_RNvXs1_Cshoxz5TBPcD3_18ethereum_da_clientNtB5_29MockEthereumDaClient_DaClientNtNtCsl82brYPINY5_4core7default7Default7default
FNDA:0,_RNvMs3_Cshoxz5TBPcD3_18ethereum_da_clientNtB5_20MockEthereumDaClient3new
FNF:14
FNH:6
DA:37,0
DA:40,0
DA:41,0
DA:42,0
DA:43,0
DA:44,0
DA:45,0
DA:46,0
DA:47,0
DA:48,0
DA:49,0
DA:50,0
DA:51,0
DA:52,0
DA:53,0
DA:54,0
DA:55,0
DA:56,0
DA:57,0
DA:58,0
DA:59,0
DA:60,0
DA:61,0
DA:62,0
DA:63,0
DA:64,0
DA:65,0
DA:66,0
DA:67,0
DA:68,0
DA:69,0
DA:70,0
DA:71,0
DA:72,0
DA:73,0
DA:74,0
DA:75,0
DA:76,0
DA:77,0
DA:78,0
DA:79,0
DA:80,0
DA:81,0
DA:82,0
DA:83,0
DA:84,0
DA:86,0
DA:87,0
DA:88,0
DA:89,0
DA:90,0
DA:91,0
DA:92,0
DA:93,0
DA:94,0
DA:95,0
DA:96,0
DA:97,0
DA:98,0
DA:100,0
DA:101,0
DA:102,0
DA:104,0
DA:105,0
DA:106,0
DA:110,0
DA:111,0
DA:112,0
DA:113,0
DA:114,0
DA:115,0
DA:116,0
DA:117,0
DA:118,0
DA:119,0
DA:122,1
DA:123,1
DA:124,1
DA:125,1
DA:126,1
DA:127,1
DA:128,1
DA:130,2
DA:131,1
DA:132,1
DA:133,1
DA:134,1
DA:136,1
DA:137,1
DA:139,1
DA:140,1
DA:141,1
DA:144,1
DA:145,1
DA:155,1
DA:156,1
DA:157,1
DA:158,1
DA:159,1
DA:160,1
DA:161,1
DA:162,1
DA:163,1
DA:164,1
DA:165,1
DA:166,1
DA:167,1
DA:168,1
DA:169,1
DA:170,1
DA:171,1
DA:172,1
DA:173,1
DA:174,1
DA:175,1
DA:176,1
DA:177,1
DA:178,1
DA:179,1
DA:180,1
DA:181,1
DA:182,1
DA:183,1
DA:184,1
DA:185,1
DA:186,1
DA:187,1
DA:188,1
DA:189,1
DA:190,1
DA:191,1
DA:192,1
DA:193,1
DA:194,1
DA:195,1
DA:196,1
DA:198,3
DA:199,3
DA:200,262336
DA:201,3
DA:202,3
DA:203,3
DA:204,131168
DA:205,131168
DA:206,131168
DA:207,131168
DA:208,0
DA:211,3
DA:212,3
DA:213,3
DA:215,0
DA:216,0
DA:217,0
DA:218,0
BRF:0
BRH:0
LF:194
LH:113
end_of_record
SF:/Users/ocdbytes/Karnot/madara-orchestrator/crates/orchestrator/src/config.rs
FN:125,_RNvNtCs9kcl9mimtFg_12orchestrator6config15build_da_client
FN:136,_RINvNtCs9kcl9mimtFg_12orchestrator6config21create_prover_serviceNtNtNtCsgfSEKSKmNaI_5utils8settings7default23DefaultSettingsProviderEB4_
FN:82,_RNvMNtCs9kcl9mimtFg_12orchestrator6configNtB2_6Config13prover_client
FN:39,_RNvNtCs9kcl9mimtFg_12orchestrator6config11init_config
FN:39,_RNCNvNtCs9kcl9mimtFg_12orchestrator6config11init_config0B5_
FN:87,_RNvMNtCs9kcl9mimtFg_12orchestrator6configNtB2_6Config8database
FN:92,_RNvMNtCs9kcl9mimtFg_12orchestrator6configNtB2_6Config5queue
FN:105,_RNvNtCs9kcl9mimtFg_12orchestrator6config6config
FN:105,_RNCNvNtCs9kcl9mimtFg_12orchestrator6config6config0B5_
FN:106,_RNCNCNvNtCs9kcl9mimtFg_12orchestrator6config6config00B7_
FN:106,_RNCNCNCNvNtCs9kcl9mimtFg_12orchestrator6config6config000B9_
FN:61,_RNvMNtCs9kcl9mimtFg_12orchestrator6configNtB2_6Config3new
FN:77,_RNvMNtCs9kcl9mimtFg_12orchestrator6configNtB2_6Config9da_client
FN:115,_RNvNtCs9kcl9mimtFg_12orchestrator6config17config_force_init
FN:115,_RNCNvNtCs9kcl9mimtFg_12orchestrator6config17config_force_init0B5_
FN:119,_RNCNCNvNtCs9kcl9mimtFg_12orchestrator6config17config_force_init00B7_
FN:119,_RNCNCNCNvNtCs9kcl9mimtFg_12orchestrator6config17config_force_init000B9_
FN:72,_RNvMNtCs9kcl9mimtFg_12orchestrator6configNtB2_6Config15starknet_client
FNDA:0,_RNvNtCs9kcl9mimtFg_12orchestrator6config15build_da_client
FNDA:0,_RINvNtCs9kcl9mimtFg_12orchestrator6config21create_prover_serviceNtNtNtCsgfSEKSKmNaI_5utils8settings7default23DefaultSettingsProviderEB4_
FNDA:2,_RNvMNtCs9kcl9mimtFg_12orchestrator6configNtB2_6Config13prover_client
FNDA:0,_RNvNtCs9kcl9mimtFg_12orchestrator6config11init_config
FNDA:0,_RNCNvNtCs9kcl9mimtFg_12orchestrator6config11init_config0B5_
FNDA:42,_RNvMNtCs9kcl9mimtFg_12orchestrator6configNtB2_6Config8database
FNDA:19,_RNvMNtCs9kcl9mimtFg_12orchestrator6configNtB2_6Config5queue
FNDA:42,_RNvNtCs9kcl9mimtFg_12orchestrator6config6config
FNDA:42,_RNCNvNtCs9kcl9mimtFg_12orchestrator6config6config0B5_
FNDA:0,_RNCNCNvNtCs9kcl9mimtFg_12orchestrator6config6config00B7_
FNDA:0,_RNCNCNCNvNtCs9kcl9mimtFg_12orchestrator6config6config000B9_
FNDA:14,_RNvMNtCs9kcl9mimtFg_12orchestrator6configNtB2_6Config3new
FNDA:4,_RNvMNtCs9kcl9mimtFg_12orchestrator6configNtB2_6Config9da_client
FNDA:4,_RNvNtCs9kcl9mimtFg_12orchestrator6config17config_force_init
FNDA:4,_RNCNvNtCs9kcl9mimtFg_12orchestrator6config17config_force_init0B5_
FNDA:4,_RNCNCNvNtCs9kcl9mimtFg_12orchestrator6config17config_force_init00B7_
FNDA:4,_RNCNCNCNvNtCs9kcl9mimtFg_12orchestrator6config17config_force_init000B9_
FNDA:281,_RNvMNtCs9kcl9mimtFg_12orchestrator6configNtB2_6Config15starknet_client
FNF:18
FNH:12
DA:39,0
DA:40,0
DA:41,0
DA:42,0
DA:43,0
DA:44,0
DA:45,0
DA:48,0
DA:51,0
DA:52,0
DA:53,0
DA:54,0
DA:55,0
DA:56,0
DA:57,0
DA:61,14
DA:62,14
DA:63,14
DA:64,14
DA:65,14
DA:66,14
DA:67,14
DA:68,14
DA:69,14
DA:72,281
DA:73,281
DA:74,281
DA:77,4
DA:78,4
DA:79,4
DA:82,2
DA:83,2
DA:84,2
DA:87,42
DA:88,42
DA:89,42
DA:92,19
DA:93,19
DA:94,19
DA:105,42
DA:106,42
DA:107,42
DA:108,42
DA:115,4
DA:116,4
DA:117,0
DA:119,4
DA:122,4
DA:125,0
DA:126,0
DA:127,0
DA:128,0
DA:129,0
DA:131,0
DA:133,0
DA:136,0
DA:137,0
DA:138,0
DA:139,0
DA:141,0
BRF:0
BRH:0
LF:67
LH:36
end_of_record
SF:/Users/ocdbytes/Karnot/madara-orchestrator/crates/orchestrator/src/controllers/errors.rs
FN:17,_RNvXNtNtCs9kcl9mimtFg_12orchestrator11controllers6errorsNtB2_8AppErrorNtNtNtCsbYlLTpsqcPs_9axum_core8response13into_response12IntoResponse13into_response
FN:8,_RNvXs_NtNtCs9kcl9mimtFg_12orchestrator11controllers6errorsNtB4_8AppErrorNtNtCsl82brYPINY5_4core5error5Error6source
FN:8,_RNvXs0_NtNtCs9kcl9mimtFg_12orchestrator11controllers6errorsNtB5_8AppErrorNtNtCsl82brYPINY5_4core3fmt7Display3fmt
FN:8,_RNvXs1_NtNtCs9kcl9mimtFg_12orchestrator11controllers6errorsNtB5_8AppErrorINtNtCsl82brYPINY5_4core7convert4FromNtCskbCn1Pb5kvX_4eyre6ReportE4from
FNDA:0,_RNvXNtNtCs9kcl9mimtFg_12orchestrator11controllers6errorsNtB2_8AppErrorNtNtNtCsbYlLTpsqcPs_9axum_core8response13into_response12IntoResponse13into_response
FNDA:0,_RNvXs_NtNtCs9kcl9mimtFg_12orchestrator11controllers6errorsNtB4_8AppErrorNtNtCsl82brYPINY5_4core5error5Error6source
FNDA:0,_RNvXs0_NtNtCs9kcl9mimtFg_12orchestrator11controllers6errorsNtB5_8AppErrorNtNtCsl82brYPINY5_4core3fmt7Display3fmt
FNDA:0,_RNvXs1_NtNtCs9kcl9mimtFg_12orchestrator11controllers6errorsNtB5_8AppErrorINtNtCsl82brYPINY5_4core7convert4FromNtCskbCn1Pb5kvX_4eyre6ReportE4from
FNF:2
FNH:0
DA:8,0
DA:17,0
DA:18,0
DA:19,0
DA:20,0
DA:21,0
DA:22,0
DA:23,0
BRF:0
BRH:0
LF:8
LH:0
end_of_record
SF:/Users/ocdbytes/Karnot/madara-orchestrator/crates/orchestrator/src/controllers/jobs_controller.rs
FN:10,_RINvXs0_NvXNvNtNtCs9kcl9mimtFg_12orchestrator11controllers15jobs_controller1__NtBb_16CreateJobRequestNtNtCs6LpWrqowvw4_5serde2de11Deserialize11deserializeNtB6_9___VisitorNtB1D_7Visitor9visit_seqINtNtCs6VgYWKnnD2x_19serde_path_to_error2de9SeqAccessINtNtCs7GeGMEtFxdc_10serde_json2de9SeqAccessNtNtB42_4read9SliceReadEEEBf_
FN:10,_RINvXs0_NvXNvNtNtCs9kcl9mimtFg_12orchestrator11controllers15jobs_controller1__NtBb_16CreateJobRequestNtNtCs6LpWrqowvw4_5serde2de11Deserialize11deserializeNtB6_9___VisitorNtB1D_7Visitor9visit_mapINtNtCs6VgYWKnnD2x_19serde_path_to_error2de9MapAccessINtNtCs7GeGMEtFxdc_10serde_json2de9MapAccessNtNtB42_4read9SliceReadEEEBf_
FN:10,_RINvXs_NvXNvNtNtCs9kcl9mimtFg_12orchestrator11controllers15jobs_controller1__NtBa_16CreateJobRequestNtNtCs6LpWrqowvw4_5serde2de11Deserialize11deserializeNtB5_7___FieldB1A_11deserializeINtNtCs6VgYWKnnD2x_19serde_path_to_error2de10CaptureKeyINtNtCs7GeGMEtFxdc_10serde_json2de6MapKeyNtNtB3U_4read9SliceReadEEEBe_
FN:10,_RNvXNvXNvNtNtCs9kcl9mimtFg_12orchestrator11controllers15jobs_controller1__NtB7_16CreateJobRequestNtNtCs6LpWrqowvw4_5serde2de11Deserialize11deserializeNtB2_14___FieldVisitorNtB1z_7Visitor9expecting
FN:10,_RINvXNvXNvNtNtCs9kcl9mimtFg_12orchestrator11controllers15jobs_controller1__NtB8_16CreateJobRequestNtNtCs6LpWrqowvw4_5serde2de11Deserialize11deserializeNtB3_14___FieldVisitorNtB1A_7Visitor9visit_u64pEBc_
FN:10,_RINvXNvXNvNtNtCs9kcl9mimtFg_12orchestrator11controllers15jobs_controller1__NtB8_16CreateJobRequestNtNtCs6LpWrqowvw4_5serde2de11Deserialize11deserializeNtB3_14___FieldVisitorNtB1A_7Visitor11visit_bytespEBc_
FN:21,_RNvNtNtCs9kcl9mimtFg_12orchestrator11controllers15jobs_controller10create_job
FN:21,_RNCNvNtNtCs9kcl9mimtFg_12orchestrator11controllers15jobs_controller10create_job0B7_
FN:10,_RINvXNvXNvNtNtCs9kcl9mimtFg_12orchestrator11controllers15jobs_controller1__NtB8_16CreateJobRequestNtNtCs6LpWrqowvw4_5serde2de11Deserialize11deserializeNtB3_14___FieldVisitorNtB1A_7Visitor9visit_strNtNtCs7GeGMEtFxdc_10serde_json5error5ErrorEBc_
FN:10,_RNvXs0_NvXNvNtNtCs9kcl9mimtFg_12orchestrator11controllers15jobs_controller1__NtBa_16CreateJobRequestNtNtCs6LpWrqowvw4_5serde2de11Deserialize11deserializeNtB5_9___VisitorNtB1C_7Visitor9expecting
FNDA:0,_RINvXs0_NvXNvNtNtCs9kcl9mimtFg_12orchestrator11controllers15jobs_controller1__NtBb_16CreateJobRequestNtNtCs6LpWrqowvw4_5serde2de11Deserialize11deserializeNtB6_9___VisitorNtB1D_7Visitor9visit_seqINtNtCs6VgYWKnnD2x_19serde_path_to_error2de9SeqAccessINtNtCs7GeGMEtFxdc_10serde_json2de9SeqAccessNtNtB42_4read9SliceReadEEEBf_
FNDA:0,_RINvXs0_NvXNvNtNtCs9kcl9mimtFg_12orchestrator11controllers15jobs_controller1__NtBb_16CreateJobRequestNtNtCs6LpWrqowvw4_5serde2de11Deserialize11deserializeNtB6_9___VisitorNtB1D_7Visitor9visit_mapINtNtCs6VgYWKnnD2x_19serde_path_to_error2de9MapAccessINtNtCs7GeGMEtFxdc_10serde_json2de9MapAccessNtNtB42_4read9SliceReadEEEBf_
FNDA:0,_RINvXs_NvXNvNtNtCs9kcl9mimtFg_12orchestrator11controllers15jobs_controller1__NtBa_16CreateJobRequestNtNtCs6LpWrqowvw4_5serde2de11Deserialize11deserializeNtB5_7___FieldB1A_11deserializeINtNtCs6VgYWKnnD2x_19serde_path_to_error2de10CaptureKeyINtNtCs7GeGMEtFxdc_10serde_json2de6MapKeyNtNtB3U_4read9SliceReadEEEBe_
FNDA:0,_RNvXNvXNvNtNtCs9kcl9mimtFg_12orchestrator11controllers15jobs_controller1__NtB7_16CreateJobRequestNtNtCs6LpWrqowvw4_5serde2de11Deserialize11deserializeNtB2_14___FieldVisitorNtB1z_7Visitor9expecting
FNDA:0,_RINvXNvXNvNtNtCs9kcl9mimtFg_12orchestrator11controllers15jobs_controller1__NtB8_16CreateJobRequestNtNtCs6LpWrqowvw4_5serde2de11Deserialize11deserializeNtB3_14___FieldVisitorNtB1A_7Visitor9visit_u64pEBc_
FNDA:0,_RINvXNvXNvNtNtCs9kcl9mimtFg_12orchestrator11controllers15jobs_controller1__NtB8_16CreateJobRequestNtNtCs6LpWrqowvw4_5serde2de11Deserialize11deserializeNtB3_14___FieldVisitorNtB1A_7Visitor11visit_bytespEBc_
FNDA:0,_RNvNtNtCs9kcl9mimtFg_12orchestrator11controllers15jobs_controller10create_job
FNDA:0,_RNCNvNtNtCs9kcl9mimtFg_12orchestrator11controllers15jobs_controller10create_job0B7_
FNDA:0,_RINvXNvXNvNtNtCs9kcl9mimtFg_12orchestrator11controllers15jobs_controller1__NtB8_16CreateJobRequestNtNtCs6LpWrqowvw4_5serde2de11Deserialize11deserializeNtB3_14___FieldVisitorNtB1A_7Visitor9visit_strNtNtCs7GeGMEtFxdc_10serde_json5error5ErrorEBc_
FNDA:0,_RNvXs0_NvXNvNtNtCs9kcl9mimtFg_12orchestrator11controllers15jobs_controller1__NtBa_16CreateJobRequestNtNtCs6LpWrqowvw4_5serde2de11Deserialize11deserializeNtB5_9___VisitorNtB1C_7Visitor9expecting
FNF:3
FNH:0
DA:10,0
DA:21,0
DA:22,0
DA:23,0
DA:24,0
BRF:0
BRH:0
LF:6
LH:0
end_of_record
SF:/Users/ocdbytes/Karnot/madara-orchestrator/crates/orchestrator/src/database/mod.rs
FN:23,_RNvMNtNtNtCs9kcl9mimtFg_12orchestrator8database28___mock_MockDatabase_Database12___create_jobNtB2_5Rfunc8call_mut
FN:23,_RNvMs0_NtNtNtCs9kcl9mimtFg_12orchestrator8database28___mock_MockDatabase_Database12___create_jobNtB5_7Matcher7matches
FN:23,_RNCNvMs0_NtNtNtCs9kcl9mimtFg_12orchestrator8database28___mock_MockDatabase_Database12___create_jobNtB7_7Matcher7matches0Bd_
FN:23,_RNvXs2_NtNtNtCs9kcl9mimtFg_12orchestrator8database28___mock_MockDatabase_Database12___create_jobNtB5_7MatcherNtNtCsl82brYPINY5_4core3fmt7Display3fmt
FN:23,_RNvMs4_NtNtNtCs9kcl9mimtFg_12orchestrator8database28___mock_MockDatabase_Database12___create_jobNtB5_6Common4call
FN:23,_RNvMs4_NtNtNtCs9kcl9mimtFg_12orchestrator8database28___mock_MockDatabase_Database12___create_jobNtB5_6Common7is_done
FN:23,_RNvMs4_NtNtNtCs9kcl9mimtFg_12orchestrator8database28___mock_MockDatabase_Database12___create_jobNtB5_6Common7matches
FN:23,_RNvMs4_NtNtNtCs9kcl9mimtFg_12orchestrator8database28___mock_MockDatabase_Database12___create_jobNtB5_6Common16satisfy_sequence
FN:23,_RINvMs4_NtNtNtCs9kcl9mimtFg_12orchestrator8database28___mock_MockDatabase_Database12___create_jobNtB6_6Common5withfNCNCNvNtNtNtBc_5tests7workers4snos16test_snos_worker0s1_0EBc_
FN:23,_RINvMs4_NtNtNtCs9kcl9mimtFg_12orchestrator8database28___mock_MockDatabase_Database12___create_jobNtB6_6Common5withfNCNvNtNtNtBc_5tests7workers7proving9db_checkss_0EBc_
FN:23,_RNvMs4_NtNtNtCs9kcl9mimtFg_12orchestrator8database28___mock_MockDatabase_Database12___create_jobNtB5_6Common15verify_sequence
FN:23,_RNvXs5_NtNtNtCs9kcl9mimtFg_12orchestrator8database28___mock_MockDatabase_Database12___create_jobNtB5_6CommonNtNtNtCsl82brYPINY5_4core3ops4drop4Drop4drop
FN:23,_RNvMs6_NtNtNtCs9kcl9mimtFg_12orchestrator8database28___mock_MockDatabase_Database12___create_jobNtB5_11Expectation4call
FN:23,_RINvMs6_NtNtNtCs9kcl9mimtFg_12orchestrator8database28___mock_MockDatabase_Database12___create_jobNtB6_11Expectation9returningNCNCNvNtNtNtBc_5tests7workers4snos16test_snos_worker0s2_0EBc_
FN:23,_RINvMs6_NtNtNtCs9kcl9mimtFg_12orchestrator8database28___mock_MockDatabase_Database12___create_jobNtB6_11Expectation9returningNCNvNtNtNtBc_5tests7workers7proving9db_checkss0_0EBc_
FN:23,_RNvMs6_NtNtNtCs9kcl9mimtFg_12orchestrator8database28___mock_MockDatabase_Database12___create_jobNtB5_11Expectation7is_done
FN:23,_RNvMs6_NtNtNtCs9kcl9mimtFg_12orchestrator8database28___mock_MockDatabase_Database12___create_jobNtB5_11Expectation7matches
FN:23,_RINvMs6_NtNtNtCs9kcl9mimtFg_12orchestrator8database28___mock_MockDatabase_Database12___create_jobNtB6_11Expectation5timesjEBc_
FN:23,_RINvMs4_NtNtNtCs9kcl9mimtFg_12orchestrator8database28___mock_MockDatabase_Database12___create_jobNtB6_6Common5timesjEBc_
FN:23,_RINvMs6_NtNtNtCs9kcl9mimtFg_12orchestrator8database28___mock_MockDatabase_Database12___create_jobNtB6_11Expectation5withfNCNCNvNtNtNtBc_5tests7workers4snos16test_snos_worker0s1_0EBc_
FN:23,_RNvXs7_NtNtNtCs9kcl9mimtFg_12orchestrator8database28___mock_MockDatabase_Database12___create_jobNtB5_11ExpectationNtNtCsl82brYPINY5_4core7default7Default7default
FN:23,_RNvXs3_NtNtNtCs9kcl9mimtFg_12orchestrator8database28___mock_MockDatabase_Database12___create_jobNtB5_6CommonNtNtCsl82brYPINY5_4core7default7Default7default
FN:23,_RNvXs1_NtNtNtCs9kcl9mimtFg_12orchestrator8database28___mock_MockDatabase_Database12___create_jobNtB5_7MatcherNtNtCsl82brYPINY5_4core7default7Default7default
FN:23,_RNvXs_NtNtNtCs9kcl9mimtFg_12orchestrator8database28___mock_MockDatabase_Database12___create_jobNtB4_5RfuncNtNtCsl82brYPINY5_4core7default7Default7default
FN:23,_RNvMs8_NtNtNtCs9kcl9mimtFg_12orchestrator8database28___mock_MockDatabase_Database12___create_jobNtB5_12Expectations6expect
FN:23,_RNvMsa_NtNtNtCs9kcl9mimtFg_12orchestrator8database28___mock_MockDatabase_Database12___create_jobNtB5_12Expectations4call
FN:23,_RNCNvMsa_NtNtNtCs9kcl9mimtFg_12orchestrator8database28___mock_MockDatabase_Database12___create_jobNtB7_12Expectations4calls_0Bd_
FN:23,_RNCNvMsa_NtNtNtCs9kcl9mimtFg_12orchestrator8database28___mock_MockDatabase_Database12___create_jobNtB7_12Expectations4call0Bd_
FN:23,_RNvMNtNtNtCs9kcl9mimtFg_12orchestrator8database28___mock_MockDatabase_Database33___get_job_by_internal_id_and_typeNtB2_5Rfunc8call_mut
FN:23,_RNvMs0_NtNtNtCs9kcl9mimtFg_12orchestrator8database28___mock_MockDatabase_Database33___get_job_by_internal_id_and_typeNtB5_7Matcher7matches
FN:23,_RNCNvMs0_NtNtNtCs9kcl9mimtFg_12orchestrator8database28___mock_MockDatabase_Database33___get_job_by_internal_id_and_typeNtB7_7Matcher7matches0Bd_
FN:23,_RNvXs2_NtNtNtCs9kcl9mimtFg_12orchestrator8database28___mock_MockDatabase_Database33___get_job_by_internal_id_and_typeNtB5_7MatcherNtNtCsl82brYPINY5_4core3fmt7Display3fmt
FN:23,_RNvMs4_NtNtNtCs9kcl9mimtFg_12orchestrator8database28___mock_MockDatabase_Database33___get_job_by_internal_id_and_typeNtB5_6Common4call
FN:23,_RNvMs4_NtNtNtCs9kcl9mimtFg_12orchestrator8database28___mock_MockDatabase_Database33___get_job_by_internal_id_and_typeNtB5_6Common7is_done
FN:23,_RNvMs4_NtNtNtCs9kcl9mimtFg_12orchestrator8database28___mock_MockDatabase_Database33___get_job_by_internal_id_and_typeNtB5_6Common7matches
FN:23,_RNvMs4_NtNtNtCs9kcl9mimtFg_12orchestrator8database28___mock_MockDatabase_Database33___get_job_by_internal_id_and_typeNtB5_6Common16satisfy_sequence
FN:23,_RINvMs4_NtNtNtCs9kcl9mimtFg_12orchestrator8database28___mock_MockDatabase_Database33___get_job_by_internal_id_and_typeNtB6_6Common4withINtNtCshPsaE7IPXTr_10predicates3ord11EqPredicateNtNtCshB4XevuvN1H_5alloc6string6StringEIB2a_NtNtNtBc_4jobs5types7JobTypeEEBc_
FN:23,_RNvMs4_NtNtNtCs9kcl9mimtFg_12orchestrator8database28___mock_MockDatabase_Database33___get_job_by_internal_id_and_typeNtB5_6Common15verify_sequence
FN:23,_RNvXs5_NtNtNtCs9kcl9mimtFg_12orchestrator8database28___mock_MockDatabase_Database33___get_job_by_internal_id_and_typeNtB5_6CommonNtNtNtCsl82brYPINY5_4core3ops4drop4Drop4drop
FN:23,_RNvMs6_NtNtNtCs9kcl9mimtFg_12orchestrator8database28___mock_MockDatabase_Database33___get_job_by_internal_id_and_typeNtB5_11Expectation4call
FN:23,_RINvMs6_NtNtNtCs9kcl9mimtFg_12orchestrator8database28___mock_MockDatabase_Database33___get_job_by_internal_id_and_typeNtB6_11Expectation9returningNCNCNvNtNtNtBc_5tests7workers4snos16test_snos_worker0s0_0EBc_
FN:23,_RINvMs6_NtNtNtCs9kcl9mimtFg_12orchestrator8database28___mock_MockDatabase_Database33___get_job_by_internal_id_and_typeNtB6_11Expectation9returningNCNvNtNtNtBc_5tests7workers7proving9db_checks0EBc_
FN:23,_RNvMs6_NtNtNtCs9kcl9mimtFg_12orchestrator8database28___mock_MockDatabase_Database33___get_job_by_internal_id_and_typeNtB5_11Expectation7is_done
FN:23,_RNvMs6_NtNtNtCs9kcl9mimtFg_12orchestrator8database28___mock_MockDatabase_Database33___get_job_by_internal_id_and_typeNtB5_11Expectation7matches
FN:23,_RINvMs6_NtNtNtCs9kcl9mimtFg_12orchestrator8database28___mock_MockDatabase_Database33___get_job_by_internal_id_and_typeNtB6_11Expectation5timesjEBc_
FN:23,_RINvMs4_NtNtNtCs9kcl9mimtFg_12orchestrator8database28___mock_MockDatabase_Database33___get_job_by_internal_id_and_typeNtB6_6Common5timesjEBc_
FN:23,_RNvXs7_NtNtNtCs9kcl9mimtFg_12orchestrator8database28___mock_MockDatabase_Database33___get_job_by_internal_id_and_typeNtB5_11ExpectationNtNtCsl82brYPINY5_4core7default7Default7default
FN:23,_RNvXs3_NtNtNtCs9kcl9mimtFg_12orchestrator8database28___mock_MockDatabase_Database33___get_job_by_internal_id_and_typeNtB5_6CommonNtNtCsl82brYPINY5_4core7default7Default7default
FN:23,_RNvXs1_NtNtNtCs9kcl9mimtFg_12orchestrator8database28___mock_MockDatabase_Database33___get_job_by_internal_id_and_typeNtB5_7MatcherNtNtCsl82brYPINY5_4core7default7Default7default
FN:23,_RNvXs_NtNtNtCs9kcl9mimtFg_12orchestrator8database28___mock_MockDatabase_Database33___get_job_by_internal_id_and_typeNtB4_5RfuncNtNtCsl82brYPINY5_4core7default7Default7default
FN:23,_RNvMs8_NtNtNtCs9kcl9mimtFg_12orchestrator8database28___mock_MockDatabase_Database33___get_job_by_internal_id_and_typeNtB5_12Expectations6expect
FN:23,_RNvMsa_NtNtNtCs9kcl9mimtFg_12orchestrator8database28___mock_MockDatabase_Database33___get_job_by_internal_id_and_typeNtB5_12Expectations4call
FN:23,_RNCNvMsa_NtNtNtCs9kcl9mimtFg_12orchestrator8database28___mock_MockDatabase_Database33___get_job_by_internal_id_and_typeNtB7_12Expectations4calls_0Bd_
FN:23,_RNCNvMsa_NtNtNtCs9kcl9mimtFg_12orchestrator8database28___mock_MockDatabase_Database33___get_job_by_internal_id_and_typeNtB7_12Expectations4call0Bd_
FN:23,_RNvMNtNtNtCs9kcl9mimtFg_12orchestrator8database28___mock_MockDatabase_Database19___update_job_statusNtB2_5Rfunc8call_mut
FN:23,_RNvMs0_NtNtNtCs9kcl9mimtFg_12orchestrator8database28___mock_MockDatabase_Database19___update_job_statusNtB5_7Matcher7matches
FN:23,_RNCNvMs0_NtNtNtCs9kcl9mimtFg_12orchestrator8database28___mock_MockDatabase_Database19___update_job_statusNtB7_7Matcher7matches0Bd_
FN:23,_RNvXs2_NtNtNtCs9kcl9mimtFg_12orchestrator8database28___mock_MockDatabase_Database19___update_job_statusNtB5_7MatcherNtNtCsl82brYPINY5_4core3fmt7Display3fmt
FN:23,_RNvMs4_NtNtNtCs9kcl9mimtFg_12orchestrator8database28___mock_MockDatabase_Database19___update_job_statusNtB5_6Common4call
FN:23,_RNvMs4_NtNtNtCs9kcl9mimtFg_12orchestrator8database28___mock_MockDatabase_Database19___update_job_statusNtB5_6Common7is_done
FN:23,_RNvMs4_NtNtNtCs9kcl9mimtFg_12orchestrator8database28___mock_MockDatabase_Database19___update_job_statusNtB5_6Common7matches
FN:23,_RNvMs4_NtNtNtCs9kcl9mimtFg_12orchestrator8database28___mock_MockDatabase_Database19___update_job_statusNtB5_6Common16satisfy_sequence
FN:23,_RNvMs4_NtNtNtCs9kcl9mimtFg_12orchestrator8database28___mock_MockDatabase_Database19___update_job_statusNtB5_6Common15verify_sequence
FN:23,_RNvXs5_NtNtNtCs9kcl9mimtFg_12orchestrator8database28___mock_MockDatabase_Database19___update_job_statusNtB5_6CommonNtNtNtCsl82brYPINY5_4core3ops4drop4Drop4drop
FN:23,_RNvMs6_NtNtNtCs9kcl9mimtFg_12orchestrator8database28___mock_MockDatabase_Database19___update_job_statusNtB5_11Expectation4call
FN:23,_RNvMs6_NtNtNtCs9kcl9mimtFg_12orchestrator8database28___mock_MockDatabase_Database19___update_job_statusNtB5_11Expectation7is_done
FN:23,_RNvMs6_NtNtNtCs9kcl9mimtFg_12orchestrator8database28___mock_MockDatabase_Database19___update_job_statusNtB5_11Expectation7matches
FN:23,_RNvMsa_NtNtNtCs9kcl9mimtFg_12orchestrator8database28___mock_MockDatabase_Database19___update_job_statusNtB5_12Expectations4call
FN:23,_RNCNvMsa_NtNtNtCs9kcl9mimtFg_12orchestrator8database28___mock_MockDatabase_Database19___update_job_statusNtB7_12Expectations4calls_0Bd_
FN:23,_RNCNvMsa_NtNtNtCs9kcl9mimtFg_12orchestrator8database28___mock_MockDatabase_Database19___update_job_statusNtB7_12Expectations4call0Bd_
FN:23,_RNvMNtNtNtCs9kcl9mimtFg_12orchestrator8database28___mock_MockDatabase_Database44___update_external_id_and_status_and_metadataNtB2_5Rfunc8call_mut
FN:23,_RNvMs0_NtNtNtCs9kcl9mimtFg_12orchestrator8database28___mock_MockDatabase_Database44___update_external_id_and_status_and_metadataNtB5_7Matcher7matches
FN:23,_RNCNvMs0_NtNtNtCs9kcl9mimtFg_12orchestrator8database28___mock_MockDatabase_Database44___update_external_id_and_status_and_metadataNtB7_7Matcher7matches0Bd_
FN:23,_RNvXs2_NtNtNtCs9kcl9mimtFg_12orchestrator8database28___mock_MockDatabase_Database44___update_external_id_and_status_and_metadataNtB5_7MatcherNtNtCsl82brYPINY5_4core3fmt7Display3fmt
FN:23,_RNvMs4_NtNtNtCs9kcl9mimtFg_12orchestrator8database28___mock_MockDatabase_Database44___update_external_id_and_status_and_metadataNtB5_6Common4call
FN:23,_RNvMs4_NtNtNtCs9kcl9mimtFg_12orchestrator8database28___mock_MockDatabase_Database44___update_external_id_and_status_and_metadataNtB5_6Common7is_done
FN:23,_RNvMs4_NtNtNtCs9kcl9mimtFg_12orchestrator8database28___mock_MockDatabase_Database44___update_external_id_and_status_and_metadataNtB5_6Common7matches
FN:23,_RNvMs4_NtNtNtCs9kcl9mimtFg_12orchestrator8database28___mock_MockDatabase_Database44___update_external_id_and_status_and_metadataNtB5_6Common16satisfy_sequence
FN:23,_RNvMs4_NtNtNtCs9kcl9mimtFg_12orchestrator8database28___mock_MockDatabase_Database44___update_external_id_and_status_and_metadataNtB5_6Common15verify_sequence
FN:23,_RNvXs5_NtNtNtCs9kcl9mimtFg_12orchestrator8database28___mock_MockDatabase_Database44___update_external_id_and_status_and_metadataNtB5_6CommonNtNtNtCsl82brYPINY5_4core3ops4drop4Drop4drop
FN:23,_RNvMs6_NtNtNtCs9kcl9mimtFg_12orchestrator8database28___mock_MockDatabase_Database44___update_external_id_and_status_and_metadataNtB5_11Expectation4call
FN:23,_RNvMs6_NtNtNtCs9kcl9mimtFg_12orchestrator8database28___mock_MockDatabase_Database44___update_external_id_and_status_and_metadataNtB5_11Expectation7is_done
FN:23,_RNvMs6_NtNtNtCs9kcl9mimtFg_12orchestrator8database28___mock_MockDatabase_Database44___update_external_id_and_status_and_metadataNtB5_11Expectation7matches
FN:23,_RNvMsa_NtNtNtCs9kcl9mimtFg_12orchestrator8database28___mock_MockDatabase_Database44___update_external_id_and_status_and_metadataNtB5_12Expectations4call
FN:23,_RNCNvMsa_NtNtNtCs9kcl9mimtFg_12orchestrator8database28___mock_MockDatabase_Database44___update_external_id_and_status_and_metadataNtB7_12Expectations4calls_0Bd_
FN:23,_RNCNvMsa_NtNtNtCs9kcl9mimtFg_12orchestrator8database28___mock_MockDatabase_Database44___update_external_id_and_status_and_metadataNtB7_12Expectations4call0Bd_
FN:23,_RNvMNtNtNtCs9kcl9mimtFg_12orchestrator8database28___mock_MockDatabase_Database28___get_jobs_without_successorNtB2_5Rfunc8call_mut
FN:23,_RNvMs0_NtNtNtCs9kcl9mimtFg_12orchestrator8database28___mock_MockDatabase_Database28___get_jobs_without_successorNtB5_7Matcher7matches
FN:23,_RNCNvMs0_NtNtNtCs9kcl9mimtFg_12orchestrator8database28___mock_MockDatabase_Database28___get_jobs_without_successorNtB7_7Matcher7matches0Bd_
FN:23,_RNvXs2_NtNtNtCs9kcl9mimtFg_12orchestrator8database28___mock_MockDatabase_Database28___get_jobs_without_successorNtB5_7MatcherNtNtCsl82brYPINY5_4core3fmt7Display3fmt
FN:23,_RNvMs4_NtNtNtCs9kcl9mimtFg_12orchestrator8database28___mock_MockDatabase_Database28___get_jobs_without_successorNtB5_6Common4call
FN:23,_RNvMs4_NtNtNtCs9kcl9mimtFg_12orchestrator8database28___mock_MockDatabase_Database28___get_jobs_without_successorNtB5_6Common7is_done
FN:23,_RNvMs4_NtNtNtCs9kcl9mimtFg_12orchestrator8database28___mock_MockDatabase_Database28___get_jobs_without_successorNtB5_6Common7matches
FN:23,_RNvMs4_NtNtNtCs9kcl9mimtFg_12orchestrator8database28___mock_MockDatabase_Database28___get_jobs_without_successorNtB5_6Common16satisfy_sequence
FN:23,_RINvMs4_NtNtNtCs9kcl9mimtFg_12orchestrator8database28___mock_MockDatabase_Database28___get_jobs_without_successorNtB6_6Common5withfNCNCNvNtNtNtBc_5tests7workers7proving19test_proving_worker0s4_0EBc_
FN:23,_RINvMs4_NtNtNtCs9kcl9mimtFg_12orchestrator8database28___mock_MockDatabase_Database28___get_jobs_without_successorNtB6_6Common5withfNCNCNvNtNtNtBc_5tests7workers7proving19test_proving_worker0s_0EBc_
FN:23,_RNvMs4_NtNtNtCs9kcl9mimtFg_12orchestrator8database28___mock_MockDatabase_Database28___get_jobs_without_successorNtB5_6Common15verify_sequence
FN:23,_RNvXs5_NtNtNtCs9kcl9mimtFg_12orchestrator8database28___mock_MockDatabase_Database28___get_jobs_without_successorNtB5_6CommonNtNtNtCsl82brYPINY5_4core3ops4drop4Drop4drop
FN:23,_RNvMs6_NtNtNtCs9kcl9mimtFg_12orchestrator8database28___mock_MockDatabase_Database28___get_jobs_without_successorNtB5_11Expectation4call
FN:23,_RINvMs6_NtNtNtCs9kcl9mimtFg_12orchestrator8database28___mock_MockDatabase_Database28___get_jobs_without_successorNtB6_11Expectation9returningNCNCNvNtNtNtBc_5tests7workers7proving19test_proving_worker0s0_0EBc_
FN:23,_RINvMs6_NtNtNtCs9kcl9mimtFg_12orchestrator8database28___mock_MockDatabase_Database28___get_jobs_without_successorNtB6_11Expectation9returningNCNCNvNtNtNtBc_5tests7workers7proving19test_proving_worker0s5_0EBc_
FN:23,_RNvMs6_NtNtNtCs9kcl9mimtFg_12orchestrator8database28___mock_MockDatabase_Database28___get_jobs_without_successorNtB5_11Expectation7is_done
FN:23,_RNvMs6_NtNtNtCs9kcl9mimtFg_12orchestrator8database28___mock_MockDatabase_Database28___get_jobs_without_successorNtB5_11Expectation7matches
FN:23,_RINvMs6_NtNtNtCs9kcl9mimtFg_12orchestrator8database28___mock_MockDatabase_Database28___get_jobs_without_successorNtB6_11Expectation5timesjEBc_
FN:23,_RINvMs4_NtNtNtCs9kcl9mimtFg_12orchestrator8database28___mock_MockDatabase_Database28___get_jobs_without_successorNtB6_6Common5timesjEBc_
FN:23,_RINvMs6_NtNtNtCs9kcl9mimtFg_12orchestrator8database28___mock_MockDatabase_Database28___get_jobs_without_successorNtB6_11Expectation5withfNCNCNvNtNtNtBc_5tests7workers7proving19test_proving_worker0s4_0EBc_
FN:23,_RINvMs6_NtNtNtCs9kcl9mimtFg_12orchestrator8database28___mock_MockDatabase_Database28___get_jobs_without_successorNtB6_11Expectation5withfNCNCNvNtNtNtBc_5tests7workers7proving19test_proving_worker0s_0EBc_
FN:23,_RNvXs7_NtNtNtCs9kcl9mimtFg_12orchestrator8database28___mock_MockDatabase_Database28___get_jobs_without_successorNtB5_11ExpectationNtNtCsl82brYPINY5_4core7default7Default7default
FN:23,_RNvXs3_NtNtNtCs9kcl9mimtFg_12orchestrator8database28___mock_MockDatabase_Database28___get_jobs_without_successorNtB5_6CommonNtNtCsl82brYPINY5_4core7default7Default7default
FN:23,_RNvXs1_NtNtNtCs9kcl9mimtFg_12orchestrator8database28___mock_MockDatabase_Database28___get_jobs_without_successorNtB5_7MatcherNtNtCsl82brYPINY5_4core7default7Default7default
FN:23,_RNvXs_NtNtNtCs9kcl9mimtFg_12orchestrator8database28___mock_MockDatabase_Database28___get_jobs_without_successorNtB4_5RfuncNtNtCsl82brYPINY5_4core7default7Default7default
FN:23,_RNvMs8_NtNtNtCs9kcl9mimtFg_12orchestrator8database28___mock_MockDatabase_Database28___get_jobs_without_successorNtB5_12Expectations6expect
FN:23,_RNvMsa_NtNtNtCs9kcl9mimtFg_12orchestrator8database28___mock_MockDatabase_Database28___get_jobs_without_successorNtB5_12Expectations4call
FN:23,_RNCNvMsa_NtNtNtCs9kcl9mimtFg_12orchestrator8database28___mock_MockDatabase_Database28___get_jobs_without_successorNtB7_12Expectations4calls_0Bd_
FN:23,_RNCNvMsa_NtNtNtCs9kcl9mimtFg_12orchestrator8database28___mock_MockDatabase_Database28___get_jobs_without_successorNtB7_12Expectations4call0Bd_
FN:23,_RINvMs6_NtNtNtCs9kcl9mimtFg_12orchestrator8database28___mock_MockDatabase_Database12___create_jobNtB6_11Expectation5withfNCNvNtNtNtBc_5tests7workers7proving9db_checkss_0EBc_
FN:23,_RNvMNtNtNtCs9kcl9mimtFg_12orchestrator8database28___mock_MockDatabase_Database15___get_job_by_idNtB2_5Rfunc8call_mut
FN:23,_RNvMs0_NtNtNtCs9kcl9mimtFg_12orchestrator8database28___mock_MockDatabase_Database15___get_job_by_idNtB5_7Matcher7matches
FN:23,_RNCNvMs0_NtNtNtCs9kcl9mimtFg_12orchestrator8database28___mock_MockDatabase_Database15___get_job_by_idNtB7_7Matcher7matches0Bd_
FN:23,_RNvXs2_NtNtNtCs9kcl9mimtFg_12orchestrator8database28___mock_MockDatabase_Database15___get_job_by_idNtB5_7MatcherNtNtCsl82brYPINY5_4core3fmt7Display3fmt
FN:23,_RNvMs4_NtNtNtCs9kcl9mimtFg_12orchestrator8database28___mock_MockDatabase_Database15___get_job_by_idNtB5_6Common4call
FN:23,_RNvMs4_NtNtNtCs9kcl9mimtFg_12orchestrator8database28___mock_MockDatabase_Database15___get_job_by_idNtB5_6Common7is_done
FN:23,_RNvMs4_NtNtNtCs9kcl9mimtFg_12orchestrator8database28___mock_MockDatabase_Database15___get_job_by_idNtB5_6Common7matches
FN:23,_RNvMs4_NtNtNtCs9kcl9mimtFg_12orchestrator8database28___mock_MockDatabase_Database15___get_job_by_idNtB5_6Common16satisfy_sequence
FN:23,_RNvMs4_NtNtNtCs9kcl9mimtFg_12orchestrator8database28___mock_MockDatabase_Database15___get_job_by_idNtB5_6Common15verify_sequence
FN:23,_RNvXs5_NtNtNtCs9kcl9mimtFg_12orchestrator8database28___mock_MockDatabase_Database15___get_job_by_idNtB5_6CommonNtNtNtCsl82brYPINY5_4core3ops4drop4Drop4drop
FN:23,_RNvMs6_NtNtNtCs9kcl9mimtFg_12orchestrator8database28___mock_MockDatabase_Database15___get_job_by_idNtB5_11Expectation4call
FN:23,_RNvMs6_NtNtNtCs9kcl9mimtFg_12orchestrator8database28___mock_MockDatabase_Database15___get_job_by_idNtB5_11Expectation7is_done
FN:23,_RNvMs6_NtNtNtCs9kcl9mimtFg_12orchestrator8database28___mock_MockDatabase_Database15___get_job_by_idNtB5_11Expectation7matches
FN:23,_RNvMsa_NtNtNtCs9kcl9mimtFg_12orchestrator8database28___mock_MockDatabase_Database15___get_job_by_idNtB5_12Expectations4call
FN:23,_RNCNvMsa_NtNtNtCs9kcl9mimtFg_12orchestrator8database28___mock_MockDatabase_Database15___get_job_by_idNtB7_12Expectations4calls_0Bd_
FN:23,_RNCNvMsa_NtNtNtCs9kcl9mimtFg_12orchestrator8database28___mock_MockDatabase_Database15___get_job_by_idNtB7_12Expectations4call0Bd_
FN:23,_RNvMNtNtNtCs9kcl9mimtFg_12orchestrator8database28___mock_MockDatabase_Database17___update_metadataNtB2_5Rfunc8call_mut
FN:23,_RNvMs0_NtNtNtCs9kcl9mimtFg_12orchestrator8database28___mock_MockDatabase_Database17___update_metadataNtB5_7Matcher7matches
FN:23,_RNCNvMs0_NtNtNtCs9kcl9mimtFg_12orchestrator8database28___mock_MockDatabase_Database17___update_metadataNtB7_7Matcher7matches0Bd_
FN:23,_RNvXs2_NtNtNtCs9kcl9mimtFg_12orchestrator8database28___mock_MockDatabase_Database17___update_metadataNtB5_7MatcherNtNtCsl82brYPINY5_4core3fmt7Display3fmt
FN:23,_RNvMs4_NtNtNtCs9kcl9mimtFg_12orchestrator8database28___mock_MockDatabase_Database17___update_metadataNtB5_6Common4call
FN:23,_RNvMs4_NtNtNtCs9kcl9mimtFg_12orchestrator8database28___mock_MockDatabase_Database17___update_metadataNtB5_6Common7is_done
FN:23,_RNvMs4_NtNtNtCs9kcl9mimtFg_12orchestrator8database28___mock_MockDatabase_Database17___update_metadataNtB5_6Common7matches
FN:23,_RNvMs4_NtNtNtCs9kcl9mimtFg_12orchestrator8database28___mock_MockDatabase_Database17___update_metadataNtB5_6Common16satisfy_sequence
FN:23,_RNvMs4_NtNtNtCs9kcl9mimtFg_12orchestrator8database28___mock_MockDatabase_Database17___update_metadataNtB5_6Common15verify_sequence
FN:23,_RNvXs5_NtNtNtCs9kcl9mimtFg_12orchestrator8database28___mock_MockDatabase_Database17___update_metadataNtB5_6CommonNtNtNtCsl82brYPINY5_4core3ops4drop4Drop4drop
FN:23,_RNvMs6_NtNtNtCs9kcl9mimtFg_12orchestrator8database28___mock_MockDatabase_Database17___update_metadataNtB5_11Expectation4call
FN:23,_RNvMs6_NtNtNtCs9kcl9mimtFg_12orchestrator8database28___mock_MockDatabase_Database17___update_metadataNtB5_11Expectation7is_done
FN:23,_RNvMs6_NtNtNtCs9kcl9mimtFg_12orchestrator8database28___mock_MockDatabase_Database17___update_metadataNtB5_11Expectation7matches
FN:23,_RNvMsa_NtNtNtCs9kcl9mimtFg_12orchestrator8database28___mock_MockDatabase_Database17___update_metadataNtB5_12Expectations4call
FN:23,_RNCNvMsa_NtNtNtCs9kcl9mimtFg_12orchestrator8database28___mock_MockDatabase_Database17___update_metadataNtB7_12Expectations4calls_0Bd_
FN:23,_RNCNvMsa_NtNtNtCs9kcl9mimtFg_12orchestrator8database28___mock_MockDatabase_Database17___update_metadataNtB7_12Expectations4call0Bd_
FN:23,_RNvMNtNtNtCs9kcl9mimtFg_12orchestrator8database28___mock_MockDatabase_Database40___get_latest_job_by_type_and_internal_idNtB2_5Rfunc8call_mut
FN:23,_RNvMs0_NtNtNtCs9kcl9mimtFg_12orchestrator8database28___mock_MockDatabase_Database40___get_latest_job_by_type_and_internal_idNtB5_7Matcher7matches
FN:23,_RNCNvMs0_NtNtNtCs9kcl9mimtFg_12orchestrator8database28___mock_MockDatabase_Database40___get_latest_job_by_type_and_internal_idNtB7_7Matcher7matches0Bd_
FN:23,_RNvXs2_NtNtNtCs9kcl9mimtFg_12orchestrator8database28___mock_MockDatabase_Database40___get_latest_job_by_type_and_internal_idNtB5_7MatcherNtNtCsl82brYPINY5_4core3fmt7Display3fmt
FN:23,_RNvMs4_NtNtNtCs9kcl9mimtFg_12orchestrator8database28___mock_MockDatabase_Database40___get_latest_job_by_type_and_internal_idNtB5_6Common4call
FN:23,_RNvMs4_NtNtNtCs9kcl9mimtFg_12orchestrator8database28___mock_MockDatabase_Database40___get_latest_job_by_type_and_internal_idNtB5_6Common7is_done
FN:23,_RNvMs4_NtNtNtCs9kcl9mimtFg_12orchestrator8database28___mock_MockDatabase_Database40___get_latest_job_by_type_and_internal_idNtB5_6Common7matches
FN:23,_RNvMs4_NtNtNtCs9kcl9mimtFg_12orchestrator8database28___mock_MockDatabase_Database40___get_latest_job_by_type_and_internal_idNtB5_6Common16satisfy_sequence
FN:23,_RINvMs4_NtNtNtCs9kcl9mimtFg_12orchestrator8database28___mock_MockDatabase_Database40___get_latest_job_by_type_and_internal_idNtB6_6Common4withINtNtCshPsaE7IPXTr_10predicates3ord11EqPredicateNtNtNtBc_4jobs5types7JobTypeEEBc_
FN:23,_RNvMs4_NtNtNtCs9kcl9mimtFg_12orchestrator8database28___mock_MockDatabase_Database40___get_latest_job_by_type_and_internal_idNtB5_6Common15verify_sequence
FN:23,_RNvXs5_NtNtNtCs9kcl9mimtFg_12orchestrator8database28___mock_MockDatabase_Database40___get_latest_job_by_type_and_internal_idNtB5_6CommonNtNtNtCsl82brYPINY5_4core3ops4drop4Drop4drop
FN:23,_RNvMs6_NtNtNtCs9kcl9mimtFg_12orchestrator8database28___mock_MockDatabase_Database40___get_latest_job_by_type_and_internal_idNtB5_11Expectation4call
FN:23,_RINvMs6_NtNtNtCs9kcl9mimtFg_12orchestrator8database28___mock_MockDatabase_Database40___get_latest_job_by_type_and_internal_idNtB6_11Expectation9returningNCNCNvNtNtNtBc_5tests7workers4snos16test_snos_worker00EBc_
FN:23,_RINvMs6_NtNtNtCs9kcl9mimtFg_12orchestrator8database28___mock_MockDatabase_Database40___get_latest_job_by_type_and_internal_idNtB6_11Expectation9returningNCNCNvNtNtNtBc_5tests7workers4snos16test_snos_worker0s_0EBc_
FN:23,_RNvMs6_NtNtNtCs9kcl9mimtFg_12orchestrator8database28___mock_MockDatabase_Database40___get_latest_job_by_type_and_internal_idNtB5_11Expectation7is_done
FN:23,_RNvMs6_NtNtNtCs9kcl9mimtFg_12orchestrator8database28___mock_MockDatabase_Database40___get_latest_job_by_type_and_internal_idNtB5_11Expectation7matches
FN:23,_RINvMs6_NtNtNtCs9kcl9mimtFg_12orchestrator8database28___mock_MockDatabase_Database40___get_latest_job_by_type_and_internal_idNtB6_11Expectation5timesjEBc_
FN:23,_RINvMs4_NtNtNtCs9kcl9mimtFg_12orchestrator8database28___mock_MockDatabase_Database40___get_latest_job_by_type_and_internal_idNtB6_6Common5timesjEBc_
FN:23,_RINvMs6_NtNtNtCs9kcl9mimtFg_12orchestrator8database28___mock_MockDatabase_Database40___get_latest_job_by_type_and_internal_idNtB6_11Expectation4withINtNtCshPsaE7IPXTr_10predicates3ord11EqPredicateNtNtNtBc_4jobs5types7JobTypeEEBc_
FN:23,_RNvXs7_NtNtNtCs9kcl9mimtFg_12orchestrator8database28___mock_MockDatabase_Database40___get_latest_job_by_type_and_internal_idNtB5_11ExpectationNtNtCsl82brYPINY5_4core7default7Default7default
FN:23,_RNvXs3_NtNtNtCs9kcl9mimtFg_12orchestrator8database28___mock_MockDatabase_Database40___get_latest_job_by_type_and_internal_idNtB5_6CommonNtNtCsl82brYPINY5_4core7default7Default7default
FN:23,_RNvXs1_NtNtNtCs9kcl9mimtFg_12orchestrator8database28___mock_MockDatabase_Database40___get_latest_job_by_type_and_internal_idNtB5_7MatcherNtNtCsl82brYPINY5_4core7default7Default7default
FN:23,_RNvXs_NtNtNtCs9kcl9mimtFg_12orchestrator8database28___mock_MockDatabase_Database40___get_latest_job_by_type_and_internal_idNtB4_5RfuncNtNtCsl82brYPINY5_4core7default7Default7default
FN:23,_RNvMs8_NtNtNtCs9kcl9mimtFg_12orchestrator8database28___mock_MockDatabase_Database40___get_latest_job_by_type_and_internal_idNtB5_12Expectations6expect
FN:23,_RNvMsa_NtNtNtCs9kcl9mimtFg_12orchestrator8database28___mock_MockDatabase_Database40___get_latest_job_by_type_and_internal_idNtB5_12Expectations4call
FN:23,_RNCNvMsa_NtNtNtCs9kcl9mimtFg_12orchestrator8database28___mock_MockDatabase_Database40___get_latest_job_by_type_and_internal_idNtB7_12Expectations4calls_0Bd_
FN:23,_RNCNvMsa_NtNtNtCs9kcl9mimtFg_12orchestrator8database28___mock_MockDatabase_Database40___get_latest_job_by_type_and_internal_idNtB7_12Expectations4call0Bd_
FN:23,_RINvMs6_NtNtNtCs9kcl9mimtFg_12orchestrator8database28___mock_MockDatabase_Database33___get_job_by_internal_id_and_typeNtB6_11Expectation4withINtNtCshPsaE7IPXTr_10predicates3ord11EqPredicateNtNtCshB4XevuvN1H_5alloc6string6StringEIB2g_NtNtNtBc_4jobs5types7JobTypeEEBc_
FN:23,_RNvXNtCs9kcl9mimtFg_12orchestrator8databaseNtB2_12MockDatabaseNtNtCsl82brYPINY5_4core3fmt5Debug3fmt
FN:23,_RNvMs4_NtNtNtCs9kcl9mimtFg_12orchestrator8database28___mock_MockDatabase_Database12___create_jobNtB5_6Common11in_sequence
FN:23,_RNvMs4_NtNtNtCs9kcl9mimtFg_12orchestrator8database28___mock_MockDatabase_Database12___create_jobNtB5_6Common5never
FN:23,_RINvMs4_NtNtNtCs9kcl9mimtFg_12orchestrator8database28___mock_MockDatabase_Database12___create_jobNtB6_6Common4withpEBc_
FN:23,_RINvMs4_NtNtNtCs9kcl9mimtFg_12orchestrator8database28___mock_MockDatabase_Database12___create_jobNtB6_6Common8withf_stpEBc_
FN:23,_RINvMs6_NtNtNtCs9kcl9mimtFg_12orchestrator8database28___mock_MockDatabase_Database12___create_jobNtB6_11Expectation12return_constpEBc_
FN:23,_RNCINvMs6_NtNtNtCs9kcl9mimtFg_12orchestrator8database28___mock_MockDatabase_Database12___create_jobNtB8_11Expectation12return_constpE0Be_
FN:23,_RINvMs6_NtNtNtCs9kcl9mimtFg_12orchestrator8database28___mock_MockDatabase_Database12___create_jobNtB6_11Expectation15return_const_stpEBc_
FN:23,_RNCINvMs6_NtNtNtCs9kcl9mimtFg_12orchestrator8database28___mock_MockDatabase_Database12___create_jobNtB8_11Expectation15return_const_stpE0Be_
FN:23,_RINvMs6_NtNtNtCs9kcl9mimtFg_12orchestrator8database28___mock_MockDatabase_Database12___create_jobNtB6_11Expectation11return_oncepEBc_
FN:23,_RINvMs6_NtNtNtCs9kcl9mimtFg_12orchestrator8database28___mock_MockDatabase_Database12___create_jobNtB6_11Expectation14return_once_stpEBc_
FN:23,_RINvMs6_NtNtNtCs9kcl9mimtFg_12orchestrator8database28___mock_MockDatabase_Database12___create_jobNtB6_11Expectation12returning_stpEBc_
FN:23,_RNvMs6_NtNtNtCs9kcl9mimtFg_12orchestrator8database28___mock_MockDatabase_Database12___create_jobNtB5_11Expectation11in_sequence
FN:23,_RNvMs6_NtNtNtCs9kcl9mimtFg_12orchestrator8database28___mock_MockDatabase_Database12___create_jobNtB5_11Expectation5never
FN:23,_RNvMs6_NtNtNtCs9kcl9mimtFg_12orchestrator8database28___mock_MockDatabase_Database12___create_jobNtB5_11Expectation3new
FN:23,_RNvMs6_NtNtNtCs9kcl9mimtFg_12orchestrator8database28___mock_MockDatabase_Database12___create_jobNtB5_11Expectation4once
FN:23,_RINvMs6_NtNtNtCs9kcl9mimtFg_12orchestrator8database28___mock_MockDatabase_Database12___create_jobNtB6_11Expectation4withpEBc_
FN:23,_RINvMs6_NtNtNtCs9kcl9mimtFg_12orchestrator8database28___mock_MockDatabase_Database12___create_jobNtB6_11Expectation8withf_stpEBc_
FN:23,_RNvMs8_NtNtNtCs9kcl9mimtFg_12orchestrator8database28___mock_MockDatabase_Database12___create_jobNtB5_12Expectations10checkpoint
FN:23,_RNvMs8_NtNtNtCs9kcl9mimtFg_12orchestrator8database28___mock_MockDatabase_Database12___create_jobNtB5_12Expectations3new
FN:23,_RNvXs_NtNtNtCs9kcl9mimtFg_12orchestrator8database28___mock_MockDatabase_Database15___get_job_by_idNtB4_5RfuncNtNtCsl82brYPINY5_4core7default7Default7default
FN:23,_RNvXs1_NtNtNtCs9kcl9mimtFg_12orchestrator8database28___mock_MockDatabase_Database15___get_job_by_idNtB5_7MatcherNtNtCsl82brYPINY5_4core7default7Default7default
FN:23,_RNvXs3_NtNtNtCs9kcl9mimtFg_12orchestrator8database28___mock_MockDatabase_Database15___get_job_by_idNtB5_6CommonNtNtCsl82brYPINY5_4core7default7Default7default
FN:23,_RNvMs4_NtNtNtCs9kcl9mimtFg_12orchestrator8database28___mock_MockDatabase_Database15___get_job_by_idNtB5_6Common11in_sequence
FN:23,_RNvMs4_NtNtNtCs9kcl9mimtFg_12orchestrator8database28___mock_MockDatabase_Database15___get_job_by_idNtB5_6Common5never
FN:23,_RINvMs4_NtNtNtCs9kcl9mimtFg_12orchestrator8database28___mock_MockDatabase_Database15___get_job_by_idNtB6_6Common5timespEBc_
FN:23,_RINvMs4_NtNtNtCs9kcl9mimtFg_12orchestrator8database28___mock_MockDatabase_Database15___get_job_by_idNtB6_6Common4withpEBc_
FN:23,_RINvMs4_NtNtNtCs9kcl9mimtFg_12orchestrator8database28___mock_MockDatabase_Database15___get_job_by_idNtB6_6Common5withfpEBc_
FN:23,_RINvMs4_NtNtNtCs9kcl9mimtFg_12orchestrator8database28___mock_MockDatabase_Database15___get_job_by_idNtB6_6Common8withf_stpEBc_
FN:23,_RINvMs6_NtNtNtCs9kcl9mimtFg_12orchestrator8database28___mock_MockDatabase_Database15___get_job_by_idNtB6_11Expectation12return_constpEBc_
FN:23,_RNCINvMs6_NtNtNtCs9kcl9mimtFg_12orchestrator8database28___mock_MockDatabase_Database15___get_job_by_idNtB8_11Expectation12return_constpE0Be_
FN:23,_RINvMs6_NtNtNtCs9kcl9mimtFg_12orchestrator8database28___mock_MockDatabase_Database15___get_job_by_idNtB6_11Expectation15return_const_stpEBc_
FN:23,_RNCINvMs6_NtNtNtCs9kcl9mimtFg_12orchestrator8database28___mock_MockDatabase_Database15___get_job_by_idNtB8_11Expectation15return_const_stpE0Be_
FN:23,_RINvMs6_NtNtNtCs9kcl9mimtFg_12orchestrator8database28___mock_MockDatabase_Database15___get_job_by_idNtB6_11Expectation11return_oncepEBc_
FN:23,_RINvMs6_NtNtNtCs9kcl9mimtFg_12orchestrator8database28___mock_MockDatabase_Database15___get_job_by_idNtB6_11Expectation14return_once_stpEBc_
FN:23,_RINvMs6_NtNtNtCs9kcl9mimtFg_12orchestrator8database28___mock_MockDatabase_Database15___get_job_by_idNtB6_11Expectation9returningpEBc_
FN:23,_RINvMs6_NtNtNtCs9kcl9mimtFg_12orchestrator8database28___mock_MockDatabase_Database15___get_job_by_idNtB6_11Expectation12returning_stpEBc_
FN:23,_RNvMs6_NtNtNtCs9kcl9mimtFg_12orchestrator8database28___mock_MockDatabase_Database15___get_job_by_idNtB5_11Expectation11in_sequence
FN:23,_RNvMs6_NtNtNtCs9kcl9mimtFg_12orchestrator8database28___mock_MockDatabase_Database15___get_job_by_idNtB5_11Expectation5never
FN:23,_RNvMs6_NtNtNtCs9kcl9mimtFg_12orchestrator8database28___mock_MockDatabase_Database15___get_job_by_idNtB5_11Expectation3new
FN:23,_RNvMs6_NtNtNtCs9kcl9mimtFg_12orchestrator8database28___mock_MockDatabase_Database15___get_job_by_idNtB5_11Expectation4once
FN:23,_RINvMs6_NtNtNtCs9kcl9mimtFg_12orchestrator8database28___mock_MockDatabase_Database15___get_job_by_idNtB6_11Expectation5timespEBc_
FN:23,_RINvMs6_NtNtNtCs9kcl9mimtFg_12orchestrator8database28___mock_MockDatabase_Database15___get_job_by_idNtB6_11Expectation4withpEBc_
FN:23,_RINvMs6_NtNtNtCs9kcl9mimtFg_12orchestrator8database28___mock_MockDatabase_Database15___get_job_by_idNtB6_11Expectation5withfpEBc_
FN:23,_RINvMs6_NtNtNtCs9kcl9mimtFg_12orchestrator8database28___mock_MockDatabase_Database15___get_job_by_idNtB6_11Expectation8withf_stpEBc_
FN:23,_RNvXs7_NtNtNtCs9kcl9mimtFg_12orchestrator8database28___mock_MockDatabase_Database15___get_job_by_idNtB5_11ExpectationNtNtCsl82brYPINY5_4core7default7Default7default
FN:23,_RNvMs8_NtNtNtCs9kcl9mimtFg_12orchestrator8database28___mock_MockDatabase_Database15___get_job_by_idNtB5_12Expectations10checkpoint
FN:23,_RNvMs8_NtNtNtCs9kcl9mimtFg_12orchestrator8database28___mock_MockDatabase_Database15___get_job_by_idNtB5_12Expectations6expect
FN:23,_RNvMs8_NtNtNtCs9kcl9mimtFg_12orchestrator8database28___mock_MockDatabase_Database15___get_job_by_idNtB5_12Expectations3new
FN:23,_RNvMs4_NtNtNtCs9kcl9mimtFg_12orchestrator8database28___mock_MockDatabase_Database33___get_job_by_internal_id_and_typeNtB5_6Common11in_sequence
FN:23,_RNvMs4_NtNtNtCs9kcl9mimtFg_12orchestrator8database28___mock_MockDatabase_Database33___get_job_by_internal_id_and_typeNtB5_6Common5never
FN:23,_RINvMs4_NtNtNtCs9kcl9mimtFg_12orchestrator8database28___mock_MockDatabase_Database33___get_job_by_internal_id_and_typeNtB6_6Common5withfpEBc_
FN:23,_RINvMs4_NtNtNtCs9kcl9mimtFg_12orchestrator8database28___mock_MockDatabase_Database33___get_job_by_internal_id_and_typeNtB6_6Common8withf_stpEBc_
FN:23,_RINvMs6_NtNtNtCs9kcl9mimtFg_12orchestrator8database28___mock_MockDatabase_Database33___get_job_by_internal_id_and_typeNtB6_11Expectation12return_constpEBc_
FN:23,_RNCINvMs6_NtNtNtCs9kcl9mimtFg_12orchestrator8database28___mock_MockDatabase_Database33___get_job_by_internal_id_and_typeNtB8_11Expectation12return_constpE0Be_
FN:23,_RINvMs6_NtNtNtCs9kcl9mimtFg_12orchestrator8database28___mock_MockDatabase_Database33___get_job_by_internal_id_and_typeNtB6_11Expectation15return_const_stpEBc_
FN:23,_RNCINvMs6_NtNtNtCs9kcl9mimtFg_12orchestrator8database28___mock_MockDatabase_Database33___get_job_by_internal_id_and_typeNtB8_11Expectation15return_const_stpE0Be_
FN:23,_RINvMs6_NtNtNtCs9kcl9mimtFg_12orchestrator8database28___mock_MockDatabase_Database33___get_job_by_internal_id_and_typeNtB6_11Expectation11return_oncepEBc_
FN:23,_RINvMs6_NtNtNtCs9kcl9mimtFg_12orchestrator8database28___mock_MockDatabase_Database33___get_job_by_internal_id_and_typeNtB6_11Expectation14return_once_stpEBc_
FN:23,_RINvMs6_NtNtNtCs9kcl9mimtFg_12orchestrator8database28___mock_MockDatabase_Database33___get_job_by_internal_id_and_typeNtB6_11Expectation12returning_stpEBc_
FN:23,_RNvMs6_NtNtNtCs9kcl9mimtFg_12orchestrator8database28___mock_MockDatabase_Database33___get_job_by_internal_id_and_typeNtB5_11Expectation11in_sequence
FN:23,_RNvMs6_NtNtNtCs9kcl9mimtFg_12orchestrator8database28___mock_MockDatabase_Database33___get_job_by_internal_id_and_typeNtB5_11Expectation5never
FN:23,_RNvMs6_NtNtNtCs9kcl9mimtFg_12orchestrator8database28___mock_MockDatabase_Database33___get_job_by_internal_id_and_typeNtB5_11Expectation3new
FN:23,_RNvMs6_NtNtNtCs9kcl9mimtFg_12orchestrator8database28___mock_MockDatabase_Database33___get_job_by_internal_id_and_typeNtB5_11Expectation4once
FN:23,_RINvMs6_NtNtNtCs9kcl9mimtFg_12orchestrator8database28___mock_MockDatabase_Database33___get_job_by_internal_id_and_typeNtB6_11Expectation5withfpEBc_
FN:23,_RINvMs6_NtNtNtCs9kcl9mimtFg_12orchestrator8database28___mock_MockDatabase_Database33___get_job_by_internal_id_and_typeNtB6_11Expectation8withf_stpEBc_
FN:23,_RNvMs8_NtNtNtCs9kcl9mimtFg_12orchestrator8database28___mock_MockDatabase_Database33___get_job_by_internal_id_and_typeNtB5_12Expectations10checkpoint
FN:23,_RNvMs8_NtNtNtCs9kcl9mimtFg_12orchestrator8database28___mock_MockDatabase_Database33___get_job_by_internal_id_and_typeNtB5_12Expectations3new
FN:23,_RNvXs_NtNtNtCs9kcl9mimtFg_12orchestrator8database28___mock_MockDatabase_Database19___update_job_statusNtB4_5RfuncNtNtCsl82brYPINY5_4core7default7Default7default
FN:23,_RNvXs1_NtNtNtCs9kcl9mimtFg_12orchestrator8database28___mock_MockDatabase_Database19___update_job_statusNtB5_7MatcherNtNtCsl82brYPINY5_4core7default7Default7default
FN:23,_RNvXs3_NtNtNtCs9kcl9mimtFg_12orchestrator8database28___mock_MockDatabase_Database19___update_job_statusNtB5_6CommonNtNtCsl82brYPINY5_4core7default7Default7default
FN:23,_RNvMs4_NtNtNtCs9kcl9mimtFg_12orchestrator8database28___mock_MockDatabase_Database19___update_job_statusNtB5_6Common11in_sequence
FN:23,_RNvMs4_NtNtNtCs9kcl9mimtFg_12orchestrator8database28___mock_MockDatabase_Database19___update_job_statusNtB5_6Common5never
FN:23,_RINvMs4_NtNtNtCs9kcl9mimtFg_12orchestrator8database28___mock_MockDatabase_Database19___update_job_statusNtB6_6Common5timespEBc_
FN:23,_RINvMs4_NtNtNtCs9kcl9mimtFg_12orchestrator8database28___mock_MockDatabase_Database19___update_job_statusNtB6_6Common4withppEBc_
FN:23,_RINvMs4_NtNtNtCs9kcl9mimtFg_12orchestrator8database28___mock_MockDatabase_Database19___update_job_statusNtB6_6Common5withfpEBc_
FN:23,_RINvMs4_NtNtNtCs9kcl9mimtFg_12orchestrator8database28___mock_MockDatabase_Database19___update_job_statusNtB6_6Common8withf_stpEBc_
FN:23,_RINvMs6_NtNtNtCs9kcl9mimtFg_12orchestrator8database28___mock_MockDatabase_Database19___update_job_statusNtB6_11Expectation12return_constpEBc_
FN:23,_RNCINvMs6_NtNtNtCs9kcl9mimtFg_12orchestrator8database28___mock_MockDatabase_Database19___update_job_statusNtB8_11Expectation12return_constpE0Be_
FN:23,_RINvMs6_NtNtNtCs9kcl9mimtFg_12orchestrator8database28___mock_MockDatabase_Database19___update_job_statusNtB6_11Expectation15return_const_stpEBc_
FN:23,_RNCINvMs6_NtNtNtCs9kcl9mimtFg_12orchestrator8database28___mock_MockDatabase_Database19___update_job_statusNtB8_11Expectation15return_const_stpE0Be_
FN:23,_RINvMs6_NtNtNtCs9kcl9mimtFg_12orchestrator8database28___mock_MockDatabase_Database19___update_job_statusNtB6_11Expectation11return_oncepEBc_
FN:23,_RINvMs6_NtNtNtCs9kcl9mimtFg_12orchestrator8database28___mock_MockDatabase_Database19___update_job_statusNtB6_11Expectation14return_once_stpEBc_
FN:23,_RINvMs6_NtNtNtCs9kcl9mimtFg_12orchestrator8database28___mock_MockDatabase_Database19___update_job_statusNtB6_11Expectation9returningpEBc_
FN:23,_RINvMs6_NtNtNtCs9kcl9mimtFg_12orchestrator8database28___mock_MockDatabase_Database19___update_job_statusNtB6_11Expectation12returning_stpEBc_
FN:23,_RNvMs6_NtNtNtCs9kcl9mimtFg_12orchestrator8database28___mock_MockDatabase_Database19___update_job_statusNtB5_11Expectation11in_sequence
FN:23,_RNvMs6_NtNtNtCs9kcl9mimtFg_12orchestrator8database28___mock_MockDatabase_Database19___update_job_statusNtB5_11Expectation5never
FN:23,_RNvMs6_NtNtNtCs9kcl9mimtFg_12orchestrator8database28___mock_MockDatabase_Database19___update_job_statusNtB5_11Expectation3new
FN:23,_RNvMs6_NtNtNtCs9kcl9mimtFg_12orchestrator8database28___mock_MockDatabase_Database19___update_job_statusNtB5_11Expectation4once
FN:23,_RINvMs6_NtNtNtCs9kcl9mimtFg_12orchestrator8database28___mock_MockDatabase_Database19___update_job_statusNtB6_11Expectation5timespEBc_
FN:23,_RINvMs6_NtNtNtCs9kcl9mimtFg_12orchestrator8database28___mock_MockDatabase_Database19___update_job_statusNtB6_11Expectation4withppEBc_
FN:23,_RINvMs6_NtNtNtCs9kcl9mimtFg_12orchestrator8database28___mock_MockDatabase_Database19___update_job_statusNtB6_11Expectation5withfpEBc_
FN:23,_RINvMs6_NtNtNtCs9kcl9mimtFg_12orchestrator8database28___mock_MockDatabase_Database19___update_job_statusNtB6_11Expectation8withf_stpEBc_
FN:23,_RNvXs7_NtNtNtCs9kcl9mimtFg_12orchestrator8database28___mock_MockDatabase_Database19___update_job_statusNtB5_11ExpectationNtNtCsl82brYPINY5_4core7default7Default7default
FN:23,_RNvMs8_NtNtNtCs9kcl9mimtFg_12orchestrator8database28___mock_MockDatabase_Database19___update_job_statusNtB5_12Expectations10checkpoint
FN:23,_RNvMs8_NtNtNtCs9kcl9mimtFg_12orchestrator8database28___mock_MockDatabase_Database19___update_job_statusNtB5_12Expectations6expect
FN:23,_RNvMs8_NtNtNtCs9kcl9mimtFg_12orchestrator8database28___mock_MockDatabase_Database19___update_job_statusNtB5_12Expectations3new
FN:23,_RNvXs_NtNtNtCs9kcl9mimtFg_12orchestrator8database28___mock_MockDatabase_Database44___update_external_id_and_status_and_metadataNtB4_5RfuncNtNtCsl82brYPINY5_4core7default7Default7default
FN:23,_RNvXs1_NtNtNtCs9kcl9mimtFg_12orchestrator8database28___mock_MockDatabase_Database44___update_external_id_and_status_and_metadataNtB5_7MatcherNtNtCsl82brYPINY5_4core7default7Default7default
FN:23,_RNvXs3_NtNtNtCs9kcl9mimtFg_12orchestrator8database28___mock_MockDatabase_Database44___update_external_id_and_status_and_metadataNtB5_6CommonNtNtCsl82brYPINY5_4core7default7Default7default
FN:23,_RNvMs4_NtNtNtCs9kcl9mimtFg_12orchestrator8database28___mock_MockDatabase_Database44___update_external_id_and_status_and_metadataNtB5_6Common11in_sequence
FN:23,_RNvMs4_NtNtNtCs9kcl9mimtFg_12orchestrator8database28___mock_MockDatabase_Database44___update_external_id_and_status_and_metadataNtB5_6Common5never
FN:23,_RINvMs4_NtNtNtCs9kcl9mimtFg_12orchestrator8database28___mock_MockDatabase_Database44___update_external_id_and_status_and_metadataNtB6_6Common5timespEBc_
FN:23,_RINvMs4_NtNtNtCs9kcl9mimtFg_12orchestrator8database28___mock_MockDatabase_Database44___update_external_id_and_status_and_metadataNtB6_6Common4withppppEBc_
FN:23,_RINvMs4_NtNtNtCs9kcl9mimtFg_12orchestrator8database28___mock_MockDatabase_Database44___update_external_id_and_status_and_metadataNtB6_6Common5withfpEBc_
FN:23,_RINvMs4_NtNtNtCs9kcl9mimtFg_12orchestrator8database28___mock_MockDatabase_Database44___update_external_id_and_status_and_metadataNtB6_6Common8withf_stpEBc_
FN:23,_RINvMs6_NtNtNtCs9kcl9mimtFg_12orchestrator8database28___mock_MockDatabase_Database44___update_external_id_and_status_and_metadataNtB6_11Expectation12return_constpEBc_
FN:23,_RNCINvMs6_NtNtNtCs9kcl9mimtFg_12orchestrator8database28___mock_MockDatabase_Database44___update_external_id_and_status_and_metadataNtB8_11Expectation12return_constpE0Be_
FN:23,_RINvMs6_NtNtNtCs9kcl9mimtFg_12orchestrator8database28___mock_MockDatabase_Database44___update_external_id_and_status_and_metadataNtB6_11Expectation15return_const_stpEBc_
FN:23,_RNCINvMs6_NtNtNtCs9kcl9mimtFg_12orchestrator8database28___mock_MockDatabase_Database44___update_external_id_and_status_and_metadataNtB8_11Expectation15return_const_stpE0Be_
FN:23,_RINvMs6_NtNtNtCs9kcl9mimtFg_12orchestrator8database28___mock_MockDatabase_Database44___update_external_id_and_status_and_metadataNtB6_11Expectation11return_oncepEBc_
FN:23,_RINvMs6_NtNtNtCs9kcl9mimtFg_12orchestrator8database28___mock_MockDatabase_Database44___update_external_id_and_status_and_metadataNtB6_11Expectation14return_once_stpEBc_
FN:23,_RINvMs6_NtNtNtCs9kcl9mimtFg_12orchestrator8database28___mock_MockDatabase_Database44___update_external_id_and_status_and_metadataNtB6_11Expectation9returningpEBc_
FN:23,_RINvMs6_NtNtNtCs9kcl9mimtFg_12orchestrator8database28___mock_MockDatabase_Database44___update_external_id_and_status_and_metadataNtB6_11Expectation12returning_stpEBc_
FN:23,_RNvMs6_NtNtNtCs9kcl9mimtFg_12orchestrator8database28___mock_MockDatabase_Database44___update_external_id_and_status_and_metadataNtB5_11Expectation11in_sequence
FN:23,_RNvMs6_NtNtNtCs9kcl9mimtFg_12orchestrator8database28___mock_MockDatabase_Database44___update_external_id_and_status_and_metadataNtB5_11Expectation5never
FN:23,_RNvMs6_NtNtNtCs9kcl9mimtFg_12orchestrator8database28___mock_MockDatabase_Database44___update_external_id_and_status_and_metadataNtB5_11Expectation3new
FN:23,_RNvMs6_NtNtNtCs9kcl9mimtFg_12orchestrator8database28___mock_MockDatabase_Database44___update_external_id_and_status_and_metadataNtB5_11Expectation4once
FN:23,_RINvMs6_NtNtNtCs9kcl9mimtFg_12orchestrator8database28___mock_MockDatabase_Database44___update_external_id_and_status_and_metadataNtB6_11Expectation5timespEBc_
FN:23,_RINvMs6_NtNtNtCs9kcl9mimtFg_12orchestrator8database28___mock_MockDatabase_Database44___update_external_id_and_status_and_metadataNtB6_11Expectation4withppppEBc_
FN:23,_RINvMs6_NtNtNtCs9kcl9mimtFg_12orchestrator8database28___mock_MockDatabase_Database44___update_external_id_and_status_and_metadataNtB6_11Expectation5withfpEBc_
FN:23,_RINvMs6_NtNtNtCs9kcl9mimtFg_12orchestrator8database28___mock_MockDatabase_Database44___update_external_id_and_status_and_metadataNtB6_11Expectation8withf_stpEBc_
FN:23,_RNvXs7_NtNtNtCs9kcl9mimtFg_12orchestrator8database28___mock_MockDatabase_Database44___update_external_id_and_status_and_metadataNtB5_11ExpectationNtNtCsl82brYPINY5_4core7default7Default7default
FN:23,_RNvMs8_NtNtNtCs9kcl9mimtFg_12orchestrator8database28___mock_MockDatabase_Database44___update_external_id_and_status_and_metadataNtB5_12Expectations10checkpoint
FN:23,_RNvMs8_NtNtNtCs9kcl9mimtFg_12orchestrator8database28___mock_MockDatabase_Database44___update_external_id_and_status_and_metadataNtB5_12Expectations6expect
FN:23,_RNvMs8_NtNtNtCs9kcl9mimtFg_12orchestrator8database28___mock_MockDatabase_Database44___update_external_id_and_status_and_metadataNtB5_12Expectations3new
FN:23,_RNvXs_NtNtNtCs9kcl9mimtFg_12orchestrator8database28___mock_MockDatabase_Database17___update_metadataNtB4_5RfuncNtNtCsl82brYPINY5_4core7default7Default7default
FN:23,_RNvXs1_NtNtNtCs9kcl9mimtFg_12orchestrator8database28___mock_MockDatabase_Database17___update_metadataNtB5_7MatcherNtNtCsl82brYPINY5_4core7default7Default7default
FN:23,_RNvXs3_NtNtNtCs9kcl9mimtFg_12orchestrator8database28___mock_MockDatabase_Database17___update_metadataNtB5_6CommonNtNtCsl82brYPINY5_4core7default7Default7default
FN:23,_RNvMs4_NtNtNtCs9kcl9mimtFg_12orchestrator8database28___mock_MockDatabase_Database17___update_metadataNtB5_6Common11in_sequence
FN:23,_RNvMs4_NtNtNtCs9kcl9mimtFg_12orchestrator8database28___mock_MockDatabase_Database17___update_metadataNtB5_6Common5never
FN:23,_RINvMs4_NtNtNtCs9kcl9mimtFg_12orchestrator8database28___mock_MockDatabase_Database17___update_metadataNtB6_6Common5timespEBc_
FN:23,_RINvMs4_NtNtNtCs9kcl9mimtFg_12orchestrator8database28___mock_MockDatabase_Database17___update_metadataNtB6_6Common4withppEBc_
FN:23,_RINvMs4_NtNtNtCs9kcl9mimtFg_12orchestrator8database28___mock_MockDatabase_Database17___update_metadataNtB6_6Common5withfpEBc_
FN:23,_RINvMs4_NtNtNtCs9kcl9mimtFg_12orchestrator8database28___mock_MockDatabase_Database17___update_metadataNtB6_6Common8withf_stpEBc_
FN:23,_RINvMs6_NtNtNtCs9kcl9mimtFg_12orchestrator8database28___mock_MockDatabase_Database17___update_metadataNtB6_11Expectation12return_constpEBc_
FN:23,_RNCINvMs6_NtNtNtCs9kcl9mimtFg_12orchestrator8database28___mock_MockDatabase_Database17___update_metadataNtB8_11Expectation12return_constpE0Be_
FN:23,_RINvMs6_NtNtNtCs9kcl9mimtFg_12orchestrator8database28___mock_MockDatabase_Database17___update_metadataNtB6_11Expectation15return_const_stpEBc_
FN:23,_RNCINvMs6_NtNtNtCs9kcl9mimtFg_12orchestrator8database28___mock_MockDatabase_Database17___update_metadataNtB8_11Expectation15return_const_stpE0Be_
FN:23,_RINvMs6_NtNtNtCs9kcl9mimtFg_12orchestrator8database28___mock_MockDatabase_Database17___update_metadataNtB6_11Expectation11return_oncepEBc_
FN:23,_RINvMs6_NtNtNtCs9kcl9mimtFg_12orchestrator8database28___mock_MockDatabase_Database17___update_metadataNtB6_11Expectation14return_once_stpEBc_
FN:23,_RINvMs6_NtNtNtCs9kcl9mimtFg_12orchestrator8database28___mock_MockDatabase_Database17___update_metadataNtB6_11Expectation9returningpEBc_
FN:23,_RINvMs6_NtNtNtCs9kcl9mimtFg_12orchestrator8database28___mock_MockDatabase_Database17___update_metadataNtB6_11Expectation12returning_stpEBc_
FN:23,_RNvMs6_NtNtNtCs9kcl9mimtFg_12orchestrator8database28___mock_MockDatabase_Database17___update_metadataNtB5_11Expectation11in_sequence
FN:23,_RNvMs6_NtNtNtCs9kcl9mimtFg_12orchestrator8database28___mock_MockDatabase_Database17___update_metadataNtB5_11Expectation5never
FN:23,_RNvMs6_NtNtNtCs9kcl9mimtFg_12orchestrator8database28___mock_MockDatabase_Database17___update_metadataNtB5_11Expectation3new
FN:23,_RNvMs6_NtNtNtCs9kcl9mimtFg_12orchestrator8database28___mock_MockDatabase_Database17___update_metadataNtB5_11Expectation4once
FN:23,_RINvMs6_NtNtNtCs9kcl9mimtFg_12orchestrator8database28___mock_MockDatabase_Database17___update_metadataNtB6_11Expectation5timespEBc_
FN:23,_RINvMs6_NtNtNtCs9kcl9mimtFg_12orchestrator8database28___mock_MockDatabase_Database17___update_metadataNtB6_11Expectation4withppEBc_
FN:23,_RINvMs6_NtNtNtCs9kcl9mimtFg_12orchestrator8database28___mock_MockDatabase_Database17___update_metadataNtB6_11Expectation5withfpEBc_
FN:23,_RINvMs6_NtNtNtCs9kcl9mimtFg_12orchestrator8database28___mock_MockDatabase_Database17___update_metadataNtB6_11Expectation8withf_stpEBc_
FN:23,_RNvXs7_NtNtNtCs9kcl9mimtFg_12orchestrator8database28___mock_MockDatabase_Database17___update_metadataNtB5_11ExpectationNtNtCsl82brYPINY5_4core7default7Default7default
FN:23,_RNvMs8_NtNtNtCs9kcl9mimtFg_12orchestrator8database28___mock_MockDatabase_Database17___update_metadataNtB5_12Expectations10checkpoint
FN:23,_RNvMs8_NtNtNtCs9kcl9mimtFg_12orchestrator8database28___mock_MockDatabase_Database17___update_metadataNtB5_12Expectations6expect
FN:23,_RNvMs8_NtNtNtCs9kcl9mimtFg_12orchestrator8database28___mock_MockDatabase_Database17___update_metadataNtB5_12Expectations3new
FN:23,_RNvMs4_NtNtNtCs9kcl9mimtFg_12orchestrator8database28___mock_MockDatabase_Database40___get_latest_job_by_type_and_internal_idNtB5_6Common11in_sequence
FN:23,_RNvMs4_NtNtNtCs9kcl9mimtFg_12orchestrator8database28___mock_MockDatabase_Database40___get_latest_job_by_type_and_internal_idNtB5_6Common5never
FN:23,_RINvMs4_NtNtNtCs9kcl9mimtFg_12orchestrator8database28___mock_MockDatabase_Database40___get_latest_job_by_type_and_internal_idNtB6_6Common5withfpEBc_
FN:23,_RINvMs4_NtNtNtCs9kcl9mimtFg_12orchestrator8database28___mock_MockDatabase_Database40___get_latest_job_by_type_and_internal_idNtB6_6Common8withf_stpEBc_
FN:23,_RINvMs6_NtNtNtCs9kcl9mimtFg_12orchestrator8database28___mock_MockDatabase_Database40___get_latest_job_by_type_and_internal_idNtB6_11Expectation12return_constpEBc_
FN:23,_RNCINvMs6_NtNtNtCs9kcl9mimtFg_12orchestrator8database28___mock_MockDatabase_Database40___get_latest_job_by_type_and_internal_idNtB8_11Expectation12return_constpE0Be_
FN:23,_RINvMs6_NtNtNtCs9kcl9mimtFg_12orchestrator8database28___mock_MockDatabase_Database40___get_latest_job_by_type_and_internal_idNtB6_11Expectation15return_const_stpEBc_
FN:23,_RNCINvMs6_NtNtNtCs9kcl9mimtFg_12orchestrator8database28___mock_MockDatabase_Database40___get_latest_job_by_type_and_internal_idNtB8_11Expectation15return_const_stpE0Be_
FN:23,_RINvMs6_NtNtNtCs9kcl9mimtFg_12orchestrator8database28___mock_MockDatabase_Database40___get_latest_job_by_type_and_internal_idNtB6_11Expectation11return_oncepEBc_
FN:23,_RINvMs6_NtNtNtCs9kcl9mimtFg_12orchestrator8database28___mock_MockDatabase_Database40___get_latest_job_by_type_and_internal_idNtB6_11Expectation14return_once_stpEBc_
FN:23,_RINvMs6_NtNtNtCs9kcl9mimtFg_12orchestrator8database28___mock_MockDatabase_Database40___get_latest_job_by_type_and_internal_idNtB6_11Expectation12returning_stpEBc_
FN:23,_RNvMs6_NtNtNtCs9kcl9mimtFg_12orchestrator8database28___mock_MockDatabase_Database40___get_latest_job_by_type_and_internal_idNtB5_11Expectation11in_sequence
FN:23,_RNvMs6_NtNtNtCs9kcl9mimtFg_12orchestrator8database28___mock_MockDatabase_Database40___get_latest_job_by_type_and_internal_idNtB5_11Expectation5never
FN:23,_RNvMs6_NtNtNtCs9kcl9mimtFg_12orchestrator8database28___mock_MockDatabase_Database40___get_latest_job_by_type_and_internal_idNtB5_11Expectation3new
FN:23,_RNvMs6_NtNtNtCs9kcl9mimtFg_12orchestrator8database28___mock_MockDatabase_Database40___get_latest_job_by_type_and_internal_idNtB5_11Expectation4once
FN:23,_RINvMs6_NtNtNtCs9kcl9mimtFg_12orchestrator8database28___mock_MockDatabase_Database40___get_latest_job_by_type_and_internal_idNtB6_11Expectation5withfpEBc_
FN:23,_RINvMs6_NtNtNtCs9kcl9mimtFg_12orchestrator8database28___mock_MockDatabase_Database40___get_latest_job_by_type_and_internal_idNtB6_11Expectation8withf_stpEBc_
FN:23,_RNvMs8_NtNtNtCs9kcl9mimtFg_12orchestrator8database28___mock_MockDatabase_Database40___get_latest_job_by_type_and_internal_idNtB5_12Expectations10checkpoint
FN:23,_RNvMs8_NtNtNtCs9kcl9mimtFg_12orchestrator8database28___mock_MockDatabase_Database40___get_latest_job_by_type_and_internal_idNtB5_12Expectations3new
FN:23,_RNvMs4_NtNtNtCs9kcl9mimtFg_12orchestrator8database28___mock_MockDatabase_Database28___get_jobs_without_successorNtB5_6Common11in_sequence
FN:23,_RNvMs4_NtNtNtCs9kcl9mimtFg_12orchestrator8database28___mock_MockDatabase_Database28___get_jobs_without_successorNtB5_6Common5never
FN:23,_RINvMs4_NtNtNtCs9kcl9mimtFg_12orchestrator8database28___mock_MockDatabase_Database28___get_jobs_without_successorNtB6_6Common4withpppEBc_
FN:23,_RINvMs4_NtNtNtCs9kcl9mimtFg_12orchestrator8database28___mock_MockDatabase_Database28___get_jobs_without_successorNtB6_6Common8withf_stpEBc_
FN:23,_RINvMs6_NtNtNtCs9kcl9mimtFg_12orchestrator8database28___mock_MockDatabase_Database28___get_jobs_without_successorNtB6_11Expectation12return_constpEBc_
FN:23,_RNCINvMs6_NtNtNtCs9kcl9mimtFg_12orchestrator8database28___mock_MockDatabase_Database28___get_jobs_without_successorNtB8_11Expectation12return_constpE0Be_
FN:23,_RINvMs6_NtNtNtCs9kcl9mimtFg_12orchestrator8database28___mock_MockDatabase_Database28___get_jobs_without_successorNtB6_11Expectation15return_const_stpEBc_
FN:23,_RNCINvMs6_NtNtNtCs9kcl9mimtFg_12orchestrator8database28___mock_MockDatabase_Database28___get_jobs_without_successorNtB8_11Expectation15return_const_stpE0Be_
FN:23,_RINvMs6_NtNtNtCs9kcl9mimtFg_12orchestrator8database28___mock_MockDatabase_Database28___get_jobs_without_successorNtB6_11Expectation11return_oncepEBc_
FN:23,_RINvMs6_NtNtNtCs9kcl9mimtFg_12orchestrator8database28___mock_MockDatabase_Database28___get_jobs_without_successorNtB6_11Expectation14return_once_stpEBc_
FN:23,_RINvMs6_NtNtNtCs9kcl9mimtFg_12orchestrator8database28___mock_MockDatabase_Database28___get_jobs_without_successorNtB6_11Expectation12returning_stpEBc_
FN:23,_RNvMs6_NtNtNtCs9kcl9mimtFg_12orchestrator8database28___mock_MockDatabase_Database28___get_jobs_without_successorNtB5_11Expectation11in_sequence
FN:23,_RNvMs6_NtNtNtCs9kcl9mimtFg_12orchestrator8database28___mock_MockDatabase_Database28___get_jobs_without_successorNtB5_11Expectation5never
FN:23,_RNvMs6_NtNtNtCs9kcl9mimtFg_12orchestrator8database28___mock_MockDatabase_Database28___get_jobs_without_successorNtB5_11Expectation3new
FN:23,_RNvMs6_NtNtNtCs9kcl9mimtFg_12orchestrator8database28___mock_MockDatabase_Database28___get_jobs_without_successorNtB5_11Expectation4once
FN:23,_RINvMs6_NtNtNtCs9kcl9mimtFg_12orchestrator8database28___mock_MockDatabase_Database28___get_jobs_without_successorNtB6_11Expectation4withpppEBc_
FN:23,_RINvMs6_NtNtNtCs9kcl9mimtFg_12orchestrator8database28___mock_MockDatabase_Database28___get_jobs_without_successorNtB6_11Expectation8withf_stpEBc_
FN:23,_RNvMs8_NtNtNtCs9kcl9mimtFg_12orchestrator8database28___mock_MockDatabase_Database28___get_jobs_without_successorNtB5_12Expectations10checkpoint
FN:23,_RNvMs8_NtNtNtCs9kcl9mimtFg_12orchestrator8database28___mock_MockDatabase_Database28___get_jobs_without_successorNtB5_12Expectations3new
FN:23,_RNvMs1_NtCs9kcl9mimtFg_12orchestrator8databaseNtB5_21MockDatabase_Database10checkpoint
FN:23,_RNvMs2_NtCs9kcl9mimtFg_12orchestrator8databaseNtB5_12MockDatabase10checkpoint
FN:23,_RNvMs3_NtCs9kcl9mimtFg_12orchestrator8databaseNtB5_12MockDatabase20expect_get_job_by_id
FN:23,_RNvMs3_NtCs9kcl9mimtFg_12orchestrator8databaseNtB5_12MockDatabase24expect_update_job_status
FN:23,_RNvMs3_NtCs9kcl9mimtFg_12orchestrator8databaseNtB5_12MockDatabase49expect_update_external_id_and_status_and_metadata
FN:23,_RNvMs3_NtCs9kcl9mimtFg_12orchestrator8databaseNtB5_12MockDatabase22expect_update_metadata
FN:23,_RNvXs_NtCs9kcl9mimtFg_12orchestrator8databaseNtB4_12MockDatabaseNtNtCsl82brYPINY5_4core7default7Default7default
FN:23,_RNvXs0_NtCs9kcl9mimtFg_12orchestrator8databaseNtB5_21MockDatabase_DatabaseNtNtCsl82brYPINY5_4core7default7Default7default
FN:23,_RNvXs9_NtNtNtCs9kcl9mimtFg_12orchestrator8database28___mock_MockDatabase_Database12___create_jobNtB5_12ExpectationsNtNtCsl82brYPINY5_4core7default7Default7default
FN:23,_RNvXs9_NtNtNtCs9kcl9mimtFg_12orchestrator8database28___mock_MockDatabase_Database15___get_job_by_idNtB5_12ExpectationsNtNtCsl82brYPINY5_4core7default7Default7default
FN:23,_RNvXs9_NtNtNtCs9kcl9mimtFg_12orchestrator8database28___mock_MockDatabase_Database33___get_job_by_internal_id_and_typeNtB5_12ExpectationsNtNtCsl82brYPINY5_4core7default7Default7default
FN:23,_RNvXs9_NtNtNtCs9kcl9mimtFg_12orchestrator8database28___mock_MockDatabase_Database19___update_job_statusNtB5_12ExpectationsNtNtCsl82brYPINY5_4core7default7Default7default
FN:23,_RNvXs9_NtNtNtCs9kcl9mimtFg_12orchestrator8database28___mock_MockDatabase_Database44___update_external_id_and_status_and_metadataNtB5_12ExpectationsNtNtCsl82brYPINY5_4core7default7Default7default
FN:23,_RNvXs9_NtNtNtCs9kcl9mimtFg_12orchestrator8database28___mock_MockDatabase_Database17___update_metadataNtB5_12ExpectationsNtNtCsl82brYPINY5_4core7default7Default7default
FN:23,_RNvXs9_NtNtNtCs9kcl9mimtFg_12orchestrator8database28___mock_MockDatabase_Database40___get_latest_job_by_type_and_internal_idNtB5_12ExpectationsNtNtCsl82brYPINY5_4core7default7Default7default
FN:23,_RNvXs9_NtNtNtCs9kcl9mimtFg_12orchestrator8database28___mock_MockDatabase_Database28___get_jobs_without_successorNtB5_12ExpectationsNtNtCsl82brYPINY5_4core7default7Default7default
FN:23,_RNvMs2_NtCs9kcl9mimtFg_12orchestrator8databaseNtB5_12MockDatabase3new
FN:23,_RNvMs3_NtCs9kcl9mimtFg_12orchestrator8databaseNtB5_12MockDatabase17expect_create_job
FN:23,_RNvMs3_NtCs9kcl9mimtFg_12orchestrator8databaseNtB5_12MockDatabase38expect_get_job_by_internal_id_and_type
FN:23,_RNvMs3_NtCs9kcl9mimtFg_12orchestrator8databaseNtB5_12MockDatabase45expect_get_latest_job_by_type_and_internal_id
FN:23,_RNvMs3_NtCs9kcl9mimtFg_12orchestrator8databaseNtB5_12MockDatabase33expect_get_jobs_without_successor
FN:23,_RNvXs4_NtCs9kcl9mimtFg_12orchestrator8databaseNtB5_12MockDatabaseNtB5_8Database10create_job
FN:23,_RNCNvXs4_NtCs9kcl9mimtFg_12orchestrator8databaseNtB7_12MockDatabaseNtB7_8Database10create_job0B9_
FN:23,_RNvXs4_NtCs9kcl9mimtFg_12orchestrator8databaseNtB5_12MockDatabaseNtB5_8Database13get_job_by_id
FN:23,_RNCNvXs4_NtCs9kcl9mimtFg_12orchestrator8databaseNtB7_12MockDatabaseNtB7_8Database13get_job_by_id0B9_
FN:23,_RNvXs4_NtCs9kcl9mimtFg_12orchestrator8databaseNtB5_12MockDatabaseNtB5_8Database31get_job_by_internal_id_and_type
FN:23,_RNCNvXs4_NtCs9kcl9mimtFg_12orchestrator8databaseNtB7_12MockDatabaseNtB7_8Database31get_job_by_internal_id_and_type0B9_
FN:23,_RNvXs4_NtCs9kcl9mimtFg_12orchestrator8databaseNtB5_12MockDatabaseNtB5_8Database17update_job_status
FN:23,_RNCNvXs4_NtCs9kcl9mimtFg_12orchestrator8databaseNtB7_12MockDatabaseNtB7_8Database17update_job_status0B9_
FN:23,_RNvXs4_NtCs9kcl9mimtFg_12orchestrator8databaseNtB5_12MockDatabaseNtB5_8Database42update_external_id_and_status_and_metadata
FN:23,_RNCNvXs4_NtCs9kcl9mimtFg_12orchestrator8databaseNtB7_12MockDatabaseNtB7_8Database42update_external_id_and_status_and_metadata0B9_
FN:23,_RNvXs4_NtCs9kcl9mimtFg_12orchestrator8databaseNtB5_12MockDatabaseNtB5_8Database15update_metadata
FN:23,_RNCNvXs4_NtCs9kcl9mimtFg_12orchestrator8databaseNtB7_12MockDatabaseNtB7_8Database15update_metadata0B9_
FN:23,_RNvXs4_NtCs9kcl9mimtFg_12orchestrator8databaseNtB5_12MockDatabaseNtB5_8Database38get_latest_job_by_type_and_internal_id
FN:23,_RNCNvXs4_NtCs9kcl9mimtFg_12orchestrator8databaseNtB7_12MockDatabaseNtB7_8Database38get_latest_job_by_type_and_internal_id0B9_
FN:23,_RNvXs4_NtCs9kcl9mimtFg_12orchestrator8databaseNtB5_12MockDatabaseNtB5_8Database26get_jobs_without_successor
FN:23,_RNCNvXs4_NtCs9kcl9mimtFg_12orchestrator8databaseNtB7_12MockDatabaseNtB7_8Database26get_jobs_without_successor0B9_
FNDA:19,_RNvMNtNtNtCs9kcl9mimtFg_12orchestrator8database28___mock_MockDatabase_Database12___create_jobNtB2_5Rfunc8call_mut
FNDA:55,_RNvMs0_NtNtNtCs9kcl9mimtFg_12orchestrator8database28___mock_MockDatabase_Database12___create_jobNtB5_7Matcher7matches
FNDA:0,_RNCNvMs0_NtNtNtCs9kcl9mimtFg_12orchestrator8database28___mock_MockDatabase_Database12___create_jobNtB7_7Matcher7matches0Bd_
FNDA:0,_RNvXs2_NtNtNtCs9kcl9mimtFg_12orchestrator8database28___mock_MockDatabase_Database12___create_jobNtB5_7MatcherNtNtCsl82brYPINY5_4core3fmt7Display3fmt
FNDA:19,_RNvMs4_NtNtNtCs9kcl9mimtFg_12orchestrator8database28___mock_MockDatabase_Database12___create_jobNtB5_6Common4call
FNDA:19,_RNvMs4_NtNtNtCs9kcl9mimtFg_12orchestrator8database28___mock_MockDatabase_Database12___create_jobNtB5_6Common7is_done
FNDA:55,_RNvMs4_NtNtNtCs9kcl9mimtFg_12orchestrator8database28___mock_MockDatabase_Database12___create_jobNtB5_6Common7matches
FNDA:19,_RNvMs4_NtNtNtCs9kcl9mimtFg_12orchestrator8database28___mock_MockDatabase_Database12___create_jobNtB5_6Common16satisfy_sequence
FNDA:10,_RINvMs4_NtNtNtCs9kcl9mimtFg_12orchestrator8database28___mock_MockDatabase_Database12___create_jobNtB6_6Common5withfNCNCNvNtNtNtBc_5tests7workers4snos16test_snos_worker0s1_0EBc_
FNDA:9,_RINvMs4_NtNtNtCs9kcl9mimtFg_12orchestrator8database28___mock_MockDatabase_Database12___create_jobNtB6_6Common5withfNCNvNtNtNtBc_5tests7workers7proving9db_checkss_0EBc_
FNDA:19,_RNvMs4_NtNtNtCs9kcl9mimtFg_12orchestrator8database28___mock_MockDatabase_Database12___create_jobNtB5_6Common15verify_sequence
FNDA:0,_RNvXs5_NtNtNtCs9kcl9mimtFg_12orchestrator8database28___mock_MockDatabase_Database12___create_jobNtB5_6CommonNtNtNtCsl82brYPINY5_4core3ops4drop4Drop4drop
FNDA:19,_RNvMs6_NtNtNtCs9kcl9mimtFg_12orchestrator8database28___mock_MockDatabase_Database12___create_jobNtB5_11Expectation4call
FNDA:10,_RINvMs6_NtNtNtCs9kcl9mimtFg_12orchestrator8database28___mock_MockDatabase_Database12___create_jobNtB6_11Expectation9returningNCNCNvNtNtNtBc_5tests7workers4snos16test_snos_worker0s2_0EBc_
FNDA:9,_RINvMs6_NtNtNtCs9kcl9mimtFg_12orchestrator8database28___mock_MockDatabase_Database12___create_jobNtB6_11Expectation9returningNCNvNtNtNtBc_5tests7workers7proving9db_checkss0_0EBc_
FNDA:19,_RNvMs6_NtNtNtCs9kcl9mimtFg_12orchestrator8database28___mock_MockDatabase_Database12___create_jobNtB5_11Expectation7is_done
FNDA:55,_RNvMs6_NtNtNtCs9kcl9mimtFg_12orchestrator8database28___mock_MockDatabase_Database12___create_jobNtB5_11Expectation7matches
FNDA:19,_RINvMs6_NtNtNtCs9kcl9mimtFg_12orchestrator8database28___mock_MockDatabase_Database12___create_jobNtB6_11Expectation5timesjEBc_
FNDA:19,_RINvMs4_NtNtNtCs9kcl9mimtFg_12orchestrator8database28___mock_MockDatabase_Database12___create_jobNtB6_6Common5timesjEBc_
FNDA:10,_RINvMs6_NtNtNtCs9kcl9mimtFg_12orchestrator8database28___mock_MockDatabase_Database12___create_jobNtB6_11Expectation5withfNCNCNvNtNtNtBc_5tests7workers4snos16test_snos_worker0s1_0EBc_
FNDA:19,_RNvXs7_NtNtNtCs9kcl9mimtFg_12orchestrator8database28___mock_MockDatabase_Database12___create_jobNtB5_11ExpectationNtNtCsl82brYPINY5_4core7default7Default7default
FNDA:19,_RNvXs3_NtNtNtCs9kcl9mimtFg_12orchestrator8database28___mock_MockDatabase_Database12___create_jobNtB5_6CommonNtNtCsl82brYPINY5_4core7default7Default7default
FNDA:19,_RNvXs1_NtNtNtCs9kcl9mimtFg_12orchestrator8database28___mock_MockDatabase_Database12___create_jobNtB5_7MatcherNtNtCsl82brYPINY5_4core7default7Default7default
FNDA:19,_RNvXs_NtNtNtCs9kcl9mimtFg_12orchestrator8database28___mock_MockDatabase_Database12___create_jobNtB4_5RfuncNtNtCsl82brYPINY5_4core7default7Default7default
FNDA:19,_RNvMs8_NtNtNtCs9kcl9mimtFg_12orchestrator8database28___mock_MockDatabase_Database12___create_jobNtB5_12Expectations6expect
FNDA:19,_RNvMsa_NtNtNtCs9kcl9mimtFg_12orchestrator8database28___mock_MockDatabase_Database12___create_jobNtB5_12Expectations4call
FNDA:19,_RNCNvMsa_NtNtNtCs9kcl9mimtFg_12orchestrator8database28___mock_MockDatabase_Database12___create_jobNtB7_12Expectations4calls_0Bd_
FNDA:55,_RNCNvMsa_NtNtNtCs9kcl9mimtFg_12orchestrator8database28___mock_MockDatabase_Database12___create_jobNtB7_12Expectations4call0Bd_
FNDA:19,_RNvMNtNtNtCs9kcl9mimtFg_12orchestrator8database28___mock_MockDatabase_Database33___get_job_by_internal_id_and_typeNtB2_5Rfunc8call_mut
FNDA:55,_RNvMs0_NtNtNtCs9kcl9mimtFg_12orchestrator8database28___mock_MockDatabase_Database33___get_job_by_internal_id_and_typeNtB5_7Matcher7matches
FNDA:74,_RNCNvMs0_NtNtNtCs9kcl9mimtFg_12orchestrator8database28___mock_MockDatabase_Database33___get_job_by_internal_id_and_typeNtB7_7Matcher7matches0Bd_
FNDA:0,_RNvXs2_NtNtNtCs9kcl9mimtFg_12orchestrator8database28___mock_MockDatabase_Database33___get_job_by_internal_id_and_typeNtB5_7MatcherNtNtCsl82brYPINY5_4core3fmt7Display3fmt
FNDA:19,_RNvMs4_NtNtNtCs9kcl9mimtFg_12orchestrator8database28___mock_MockDatabase_Database33___get_job_by_internal_id_and_typeNtB5_6Common4call
FNDA:19,_RNvMs4_NtNtNtCs9kcl9mimtFg_12orchestrator8database28___mock_MockDatabase_Database33___get_job_by_internal_id_and_typeNtB5_6Common7is_done
FNDA:55,_RNvMs4_NtNtNtCs9kcl9mimtFg_12orchestrator8database28___mock_MockDatabase_Database33___get_job_by_internal_id_and_typeNtB5_6Common7matches
FNDA:19,_RNvMs4_NtNtNtCs9kcl9mimtFg_12orchestrator8database28___mock_MockDatabase_Database33___get_job_by_internal_id_and_typeNtB5_6Common16satisfy_sequence
FNDA:19,_RINvMs4_NtNtNtCs9kcl9mimtFg_12orchestrator8database28___mock_MockDatabase_Database33___get_job_by_internal_id_and_typeNtB6_6Common4withINtNtCshPsaE7IPXTr_10predicates3ord11EqPredicateNtNtCshB4XevuvN1H_5alloc6string6StringEIB2a_NtNtNtBc_4jobs5types7JobTypeEEBc_
FNDA:19,_RNvMs4_NtNtNtCs9kcl9mimtFg_12orchestrator8database28___mock_MockDatabase_Database33___get_job_by_internal_id_and_typeNtB5_6Common15verify_sequence
FNDA:0,_RNvXs5_NtNtNtCs9kcl9mimtFg_12orchestrator8database28___mock_MockDatabase_Database33___get_job_by_internal_id_and_typeNtB5_6CommonNtNtNtCsl82brYPINY5_4core3ops4drop4Drop4drop
FNDA:19,_RNvMs6_NtNtNtCs9kcl9mimtFg_12orchestrator8database28___mock_MockDatabase_Database33___get_job_by_internal_id_and_typeNtB5_11Expectation4call
FNDA:10,_RINvMs6_NtNtNtCs9kcl9mimtFg_12orchestrator8database28___mock_MockDatabase_Database33___get_job_by_internal_id_and_typeNtB6_11Expectation9returningNCNCNvNtNtNtBc_5tests7workers4snos16test_snos_worker0s0_0EBc_
FNDA:9,_RINvMs6_NtNtNtCs9kcl9mimtFg_12orchestrator8database28___mock_MockDatabase_Database33___get_job_by_internal_id_and_typeNtB6_11Expectation9returningNCNvNtNtNtBc_5tests7workers7proving9db_checks0EBc_
FNDA:19,_RNvMs6_NtNtNtCs9kcl9mimtFg_12orchestrator8database28___mock_MockDatabase_Database33___get_job_by_internal_id_and_typeNtB5_11Expectation7is_done
FNDA:55,_RNvMs6_NtNtNtCs9kcl9mimtFg_12orchestrator8database28___mock_MockDatabase_Database33___get_job_by_internal_id_and_typeNtB5_11Expectation7matches
FNDA:19,_RINvMs6_NtNtNtCs9kcl9mimtFg_12orchestrator8database28___mock_MockDatabase_Database33___get_job_by_internal_id_and_typeNtB6_11Expectation5timesjEBc_
FNDA:19,_RINvMs4_NtNtNtCs9kcl9mimtFg_12orchestrator8database28___mock_MockDatabase_Database33___get_job_by_internal_id_and_typeNtB6_6Common5timesjEBc_
FNDA:19,_RNvXs7_NtNtNtCs9kcl9mimtFg_12orchestrator8database28___mock_MockDatabase_Database33___get_job_by_internal_id_and_typeNtB5_11ExpectationNtNtCsl82brYPINY5_4core7default7Default7default
FNDA:19,_RNvXs3_NtNtNtCs9kcl9mimtFg_12orchestrator8database28___mock_MockDatabase_Database33___get_job_by_internal_id_and_typeNtB5_6CommonNtNtCsl82brYPINY5_4core7default7Default7default
FNDA:19,_RNvXs1_NtNtNtCs9kcl9mimtFg_12orchestrator8database28___mock_MockDatabase_Database33___get_job_by_internal_id_and_typeNtB5_7MatcherNtNtCsl82brYPINY5_4core7default7Default7default
FNDA:19,_RNvXs_NtNtNtCs9kcl9mimtFg_12orchestrator8database28___mock_MockDatabase_Database33___get_job_by_internal_id_and_typeNtB4_5RfuncNtNtCsl82brYPINY5_4core7default7Default7default
FNDA:19,_RNvMs8_NtNtNtCs9kcl9mimtFg_12orchestrator8database28___mock_MockDatabase_Database33___get_job_by_internal_id_and_typeNtB5_12Expectations6expect
FNDA:19,_RNvMsa_NtNtNtCs9kcl9mimtFg_12orchestrator8database28___mock_MockDatabase_Database33___get_job_by_internal_id_and_typeNtB5_12Expectations4call
FNDA:19,_RNCNvMsa_NtNtNtCs9kcl9mimtFg_12orchestrator8database28___mock_MockDatabase_Database33___get_job_by_internal_id_and_typeNtB7_12Expectations4calls_0Bd_
FNDA:55,_RNCNvMsa_NtNtNtCs9kcl9mimtFg_12orchestrator8database28___mock_MockDatabase_Database33___get_job_by_internal_id_and_typeNtB7_12Expectations4call0Bd_
FNDA:0,_RNvMNtNtNtCs9kcl9mimtFg_12orchestrator8database28___mock_MockDatabase_Database19___update_job_statusNtB2_5Rfunc8call_mut
FNDA:0,_RNvMs0_NtNtNtCs9kcl9mimtFg_12orchestrator8database28___mock_MockDatabase_Database19___update_job_statusNtB5_7Matcher7matches
FNDA:0,_RNCNvMs0_NtNtNtCs9kcl9mimtFg_12orchestrator8database28___mock_MockDatabase_Database19___update_job_statusNtB7_7Matcher7matches0Bd_
FNDA:0,_RNvXs2_NtNtNtCs9kcl9mimtFg_12orchestrator8database28___mock_MockDatabase_Database19___update_job_statusNtB5_7MatcherNtNtCsl82brYPINY5_4core3fmt7Display3fmt
FNDA:0,_RNvMs4_NtNtNtCs9kcl9mimtFg_12orchestrator8database28___mock_MockDatabase_Database19___update_job_statusNtB5_6Common4call
FNDA:0,_RNvMs4_NtNtNtCs9kcl9mimtFg_12orchestrator8database28___mock_MockDatabase_Database19___update_job_statusNtB5_6Common7is_done
FNDA:0,_RNvMs4_NtNtNtCs9kcl9mimtFg_12orchestrator8database28___mock_MockDatabase_Database19___update_job_statusNtB5_6Common7matches
FNDA:0,_RNvMs4_NtNtNtCs9kcl9mimtFg_12orchestrator8database28___mock_MockDatabase_Database19___update_job_statusNtB5_6Common16satisfy_sequence
FNDA:0,_RNvMs4_NtNtNtCs9kcl9mimtFg_12orchestrator8database28___mock_MockDatabase_Database19___update_job_statusNtB5_6Common15verify_sequence
FNDA:0,_RNvXs5_NtNtNtCs9kcl9mimtFg_12orchestrator8database28___mock_MockDatabase_Database19___update_job_statusNtB5_6CommonNtNtNtCsl82brYPINY5_4core3ops4drop4Drop4drop
FNDA:0,_RNvMs6_NtNtNtCs9kcl9mimtFg_12orchestrator8database28___mock_MockDatabase_Database19___update_job_statusNtB5_11Expectation4call
FNDA:0,_RNvMs6_NtNtNtCs9kcl9mimtFg_12orchestrator8database28___mock_MockDatabase_Database19___update_job_statusNtB5_11Expectation7is_done
FNDA:0,_RNvMs6_NtNtNtCs9kcl9mimtFg_12orchestrator8database28___mock_MockDatabase_Database19___update_job_statusNtB5_11Expectation7matches
FNDA:0,_RNvMsa_NtNtNtCs9kcl9mimtFg_12orchestrator8database28___mock_MockDatabase_Database19___update_job_statusNtB5_12Expectations4call
FNDA:0,_RNCNvMsa_NtNtNtCs9kcl9mimtFg_12orchestrator8database28___mock_MockDatabase_Database19___update_job_statusNtB7_12Expectations4calls_0Bd_
FNDA:0,_RNCNvMsa_NtNtNtCs9kcl9mimtFg_12orchestrator8database28___mock_MockDatabase_Database19___update_job_statusNtB7_12Expectations4call0Bd_
FNDA:0,_RNvMNtNtNtCs9kcl9mimtFg_12orchestrator8database28___mock_MockDatabase_Database44___update_external_id_and_status_and_metadataNtB2_5Rfunc8call_mut
FNDA:0,_RNvMs0_NtNtNtCs9kcl9mimtFg_12orchestrator8database28___mock_MockDatabase_Database44___update_external_id_and_status_and_metadataNtB5_7Matcher7matches
FNDA:0,_RNCNvMs0_NtNtNtCs9kcl9mimtFg_12orchestrator8database28___mock_MockDatabase_Database44___update_external_id_and_status_and_metadataNtB7_7Matcher7matches0Bd_
FNDA:0,_RNvXs2_NtNtNtCs9kcl9mimtFg_12orchestrator8database28___mock_MockDatabase_Database44___update_external_id_and_status_and_metadataNtB5_7MatcherNtNtCsl82brYPINY5_4core3fmt7Display3fmt
FNDA:0,_RNvMs4_NtNtNtCs9kcl9mimtFg_12orchestrator8database28___mock_MockDatabase_Database44___update_external_id_and_status_and_metadataNtB5_6Common4call
FNDA:0,_RNvMs4_NtNtNtCs9kcl9mimtFg_12orchestrator8database28___mock_MockDatabase_Database44___update_external_id_and_status_and_metadataNtB5_6Common7is_done
FNDA:0,_RNvMs4_NtNtNtCs9kcl9mimtFg_12orchestrator8database28___mock_MockDatabase_Database44___update_external_id_and_status_and_metadataNtB5_6Common7matches
FNDA:0,_RNvMs4_NtNtNtCs9kcl9mimtFg_12orchestrator8database28___mock_MockDatabase_Database44___update_external_id_and_status_and_metadataNtB5_6Common16satisfy_sequence
FNDA:0,_RNvMs4_NtNtNtCs9kcl9mimtFg_12orchestrator8database28___mock_MockDatabase_Database44___update_external_id_and_status_and_metadataNtB5_6Common15verify_sequence
FNDA:0,_RNvXs5_NtNtNtCs9kcl9mimtFg_12orchestrator8database28___mock_MockDatabase_Database44___update_external_id_and_status_and_metadataNtB5_6CommonNtNtNtCsl82brYPINY5_4core3ops4drop4Drop4drop
FNDA:0,_RNvMs6_NtNtNtCs9kcl9mimtFg_12orchestrator8database28___mock_MockDatabase_Database44___update_external_id_and_status_and_metadataNtB5_11Expectation4call
FNDA:0,_RNvMs6_NtNtNtCs9kcl9mimtFg_12orchestrator8database28___mock_MockDatabase_Database44___update_external_id_and_status_and_metadataNtB5_11Expectation7is_done
FNDA:0,_RNvMs6_NtNtNtCs9kcl9mimtFg_12orchestrator8database28___mock_MockDatabase_Database44___update_external_id_and_status_and_metadataNtB5_11Expectation7matches
FNDA:0,_RNvMsa_NtNtNtCs9kcl9mimtFg_12orchestrator8database28___mock_MockDatabase_Database44___update_external_id_and_status_and_metadataNtB5_12Expectations4call
FNDA:0,_RNCNvMsa_NtNtNtCs9kcl9mimtFg_12orchestrator8database28___mock_MockDatabase_Database44___update_external_id_and_status_and_metadataNtB7_12Expectations4calls_0Bd_
FNDA:0,_RNCNvMsa_NtNtNtCs9kcl9mimtFg_12orchestrator8database28___mock_MockDatabase_Database44___update_external_id_and_status_and_metadataNtB7_12Expectations4call0Bd_
FNDA:2,_RNvMNtNtNtCs9kcl9mimtFg_12orchestrator8database28___mock_MockDatabase_Database28___get_jobs_without_successorNtB2_5Rfunc8call_mut
FNDA:2,_RNvMs0_NtNtNtCs9kcl9mimtFg_12orchestrator8database28___mock_MockDatabase_Database28___get_jobs_without_successorNtB5_7Matcher7matches
FNDA:0,_RNCNvMs0_NtNtNtCs9kcl9mimtFg_12orchestrator8database28___mock_MockDatabase_Database28___get_jobs_without_successorNtB7_7Matcher7matches0Bd_
FNDA:0,_RNvXs2_NtNtNtCs9kcl9mimtFg_12orchestrator8database28___mock_MockDatabase_Database28___get_jobs_without_successorNtB5_7MatcherNtNtCsl82brYPINY5_4core3fmt7Display3fmt
FNDA:2,_RNvMs4_NtNtNtCs9kcl9mimtFg_12orchestrator8database28___mock_MockDatabase_Database28___get_jobs_without_successorNtB5_6Common4call
FNDA:2,_RNvMs4_NtNtNtCs9kcl9mimtFg_12orchestrator8database28___mock_MockDatabase_Database28___get_jobs_without_successorNtB5_6Common7is_done
FNDA:2,_RNvMs4_NtNtNtCs9kcl9mimtFg_12orchestrator8database28___mock_MockDatabase_Database28___get_jobs_without_successorNtB5_6Common7matches
FNDA:2,_RNvMs4_NtNtNtCs9kcl9mimtFg_12orchestrator8database28___mock_MockDatabase_Database28___get_jobs_without_successorNtB5_6Common16satisfy_sequence
FNDA:1,_RINvMs4_NtNtNtCs9kcl9mimtFg_12orchestrator8database28___mock_MockDatabase_Database28___get_jobs_without_successorNtB6_6Common5withfNCNCNvNtNtNtBc_5tests7workers7proving19test_proving_worker0s4_0EBc_
FNDA:1,_RINvMs4_NtNtNtCs9kcl9mimtFg_12orchestrator8database28___mock_MockDatabase_Database28___get_jobs_without_successorNtB6_6Common5withfNCNCNvNtNtNtBc_5tests7workers7proving19test_proving_worker0s_0EBc_
FNDA:2,_RNvMs4_NtNtNtCs9kcl9mimtFg_12orchestrator8database28___mock_MockDatabase_Database28___get_jobs_without_successorNtB5_6Common15verify_sequence
FNDA:0,_RNvXs5_NtNtNtCs9kcl9mimtFg_12orchestrator8database28___mock_MockDatabase_Database28___get_jobs_without_successorNtB5_6CommonNtNtNtCsl82brYPINY5_4core3ops4drop4Drop4drop
FNDA:2,_RNvMs6_NtNtNtCs9kcl9mimtFg_12orchestrator8database28___mock_MockDatabase_Database28___get_jobs_without_successorNtB5_11Expectation4call
FNDA:1,_RINvMs6_NtNtNtCs9kcl9mimtFg_12orchestrator8database28___mock_MockDatabase_Database28___get_jobs_without_successorNtB6_11Expectation9returningNCNCNvNtNtNtBc_5tests7workers7proving19test_proving_worker0s0_0EBc_
FNDA:1,_RINvMs6_NtNtNtCs9kcl9mimtFg_12orchestrator8database28___mock_MockDatabase_Database28___get_jobs_without_successorNtB6_11Expectation9returningNCNCNvNtNtNtBc_5tests7workers7proving19test_proving_worker0s5_0EBc_
FNDA:2,_RNvMs6_NtNtNtCs9kcl9mimtFg_12orchestrator8database28___mock_MockDatabase_Database28___get_jobs_without_successorNtB5_11Expectation7is_done
FNDA:2,_RNvMs6_NtNtNtCs9kcl9mimtFg_12orchestrator8database28___mock_MockDatabase_Database28___get_jobs_without_successorNtB5_11Expectation7matches
FNDA:2,_RINvMs6_NtNtNtCs9kcl9mimtFg_12orchestrator8database28___mock_MockDatabase_Database28___get_jobs_without_successorNtB6_11Expectation5timesjEBc_
FNDA:2,_RINvMs4_NtNtNtCs9kcl9mimtFg_12orchestrator8database28___mock_MockDatabase_Database28___get_jobs_without_successorNtB6_6Common5timesjEBc_
FNDA:1,_RINvMs6_NtNtNtCs9kcl9mimtFg_12orchestrator8database28___mock_MockDatabase_Database28___get_jobs_without_successorNtB6_11Expectation5withfNCNCNvNtNtNtBc_5tests7workers7proving19test_proving_worker0s4_0EBc_
FNDA:1,_RINvMs6_NtNtNtCs9kcl9mimtFg_12orchestrator8database28___mock_MockDatabase_Database28___get_jobs_without_successorNtB6_11Expectation5withfNCNCNvNtNtNtBc_5tests7workers7proving19test_proving_worker0s_0EBc_
FNDA:2,_RNvXs7_NtNtNtCs9kcl9mimtFg_12orchestrator8database28___mock_MockDatabase_Database28___get_jobs_without_successorNtB5_11ExpectationNtNtCsl82brYPINY5_4core7default7Default7default
FNDA:2,_RNvXs3_NtNtNtCs9kcl9mimtFg_12orchestrator8database28___mock_MockDatabase_Database28___get_jobs_without_successorNtB5_6CommonNtNtCsl82brYPINY5_4core7default7Default7default
FNDA:2,_RNvXs1_NtNtNtCs9kcl9mimtFg_12orchestrator8database28___mock_MockDatabase_Database28___get_jobs_without_successorNtB5_7MatcherNtNtCsl82brYPINY5_4core7default7Default7default
FNDA:2,_RNvXs_NtNtNtCs9kcl9mimtFg_12orchestrator8database28___mock_MockDatabase_Database28___get_jobs_without_successorNtB4_5RfuncNtNtCsl82brYPINY5_4core7default7Default7default
FNDA:2,_RNvMs8_NtNtNtCs9kcl9mimtFg_12orchestrator8database28___mock_MockDatabase_Database28___get_jobs_without_successorNtB5_12Expectations6expect
FNDA:2,_RNvMsa_NtNtNtCs9kcl9mimtFg_12orchestrator8database28___mock_MockDatabase_Database28___get_jobs_without_successorNtB5_12Expectations4call
FNDA:2,_RNCNvMsa_NtNtNtCs9kcl9mimtFg_12orchestrator8database28___mock_MockDatabase_Database28___get_jobs_without_successorNtB7_12Expectations4calls_0Bd_
FNDA:2,_RNCNvMsa_NtNtNtCs9kcl9mimtFg_12orchestrator8database28___mock_MockDatabase_Database28___get_jobs_without_successorNtB7_12Expectations4call0Bd_
FNDA:9,_RINvMs6_NtNtNtCs9kcl9mimtFg_12orchestrator8database28___mock_MockDatabase_Database12___create_jobNtB6_11Expectation5withfNCNvNtNtNtBc_5tests7workers7proving9db_checkss_0EBc_
FNDA:0,_RNvMNtNtNtCs9kcl9mimtFg_12orchestrator8database28___mock_MockDatabase_Database15___get_job_by_idNtB2_5Rfunc8call_mut
FNDA:0,_RNvMs0_NtNtNtCs9kcl9mimtFg_12orchestrator8database28___mock_MockDatabase_Database15___get_job_by_idNtB5_7Matcher7matches
FNDA:0,_RNCNvMs0_NtNtNtCs9kcl9mimtFg_12orchestrator8database28___mock_MockDatabase_Database15___get_job_by_idNtB7_7Matcher7matches0Bd_
FNDA:0,_RNvXs2_NtNtNtCs9kcl9mimtFg_12orchestrator8database28___mock_MockDatabase_Database15___get_job_by_idNtB5_7MatcherNtNtCsl82brYPINY5_4core3fmt7Display3fmt
FNDA:0,_RNvMs4_NtNtNtCs9kcl9mimtFg_12orchestrator8database28___mock_MockDatabase_Database15___get_job_by_idNtB5_6Common4call
FNDA:0,_RNvMs4_NtNtNtCs9kcl9mimtFg_12orchestrator8database28___mock_MockDatabase_Database15___get_job_by_idNtB5_6Common7is_done
FNDA:0,_RNvMs4_NtNtNtCs9kcl9mimtFg_12orchestrator8database28___mock_MockDatabase_Database15___get_job_by_idNtB5_6Common7matches
FNDA:0,_RNvMs4_NtNtNtCs9kcl9mimtFg_12orchestrator8database28___mock_MockDatabase_Database15___get_job_by_idNtB5_6Common16satisfy_sequence
FNDA:0,_RNvMs4_NtNtNtCs9kcl9mimtFg_12orchestrator8database28___mock_MockDatabase_Database15___get_job_by_idNtB5_6Common15verify_sequence
FNDA:0,_RNvXs5_NtNtNtCs9kcl9mimtFg_12orchestrator8database28___mock_MockDatabase_Database15___get_job_by_idNtB5_6CommonNtNtNtCsl82brYPINY5_4core3ops4drop4Drop4drop
FNDA:0,_RNvMs6_NtNtNtCs9kcl9mimtFg_12orchestrator8database28___mock_MockDatabase_Database15___get_job_by_idNtB5_11Expectation4call
FNDA:0,_RNvMs6_NtNtNtCs9kcl9mimtFg_12orchestrator8database28___mock_MockDatabase_Database15___get_job_by_idNtB5_11Expectation7is_done
FNDA:0,_RNvMs6_NtNtNtCs9kcl9mimtFg_12orchestrator8database28___mock_MockDatabase_Database15___get_job_by_idNtB5_11Expectation7matches
FNDA:0,_RNvMsa_NtNtNtCs9kcl9mimtFg_12orchestrator8database28___mock_MockDatabase_Database15___get_job_by_idNtB5_12Expectations4call
FNDA:0,_RNCNvMsa_NtNtNtCs9kcl9mimtFg_12orchestrator8database28___mock_MockDatabase_Database15___get_job_by_idNtB7_12Expectations4calls_0Bd_
FNDA:0,_RNCNvMsa_NtNtNtCs9kcl9mimtFg_12orchestrator8database28___mock_MockDatabase_Database15___get_job_by_idNtB7_12Expectations4call0Bd_
FNDA:0,_RNvMNtNtNtCs9kcl9mimtFg_12orchestrator8database28___mock_MockDatabase_Database17___update_metadataNtB2_5Rfunc8call_mut
FNDA:0,_RNvMs0_NtNtNtCs9kcl9mimtFg_12orchestrator8database28___mock_MockDatabase_Database17___update_metadataNtB5_7Matcher7matches
FNDA:0,_RNCNvMs0_NtNtNtCs9kcl9mimtFg_12orchestrator8database28___mock_MockDatabase_Database17___update_metadataNtB7_7Matcher7matches0Bd_
FNDA:0,_RNvXs2_NtNtNtCs9kcl9mimtFg_12orchestrator8database28___mock_MockDatabase_Database17___update_metadataNtB5_7MatcherNtNtCsl82brYPINY5_4core3fmt7Display3fmt
FNDA:0,_RNvMs4_NtNtNtCs9kcl9mimtFg_12orchestrator8database28___mock_MockDatabase_Database17___update_metadataNtB5_6Common4call
FNDA:0,_RNvMs4_NtNtNtCs9kcl9mimtFg_12orchestrator8database28___mock_MockDatabase_Database17___update_metadataNtB5_6Common7is_done
FNDA:0,_RNvMs4_NtNtNtCs9kcl9mimtFg_12orchestrator8database28___mock_MockDatabase_Database17___update_metadataNtB5_6Common7matches
FNDA:0,_RNvMs4_NtNtNtCs9kcl9mimtFg_12orchestrator8database28___mock_MockDatabase_Database17___update_metadataNtB5_6Common16satisfy_sequence
FNDA:0,_RNvMs4_NtNtNtCs9kcl9mimtFg_12orchestrator8database28___mock_MockDatabase_Database17___update_metadataNtB5_6Common15verify_sequence
FNDA:0,_RNvXs5_NtNtNtCs9kcl9mimtFg_12orchestrator8database28___mock_MockDatabase_Database17___update_metadataNtB5_6CommonNtNtNtCsl82brYPINY5_4core3ops4drop4Drop4drop
FNDA:0,_RNvMs6_NtNtNtCs9kcl9mimtFg_12orchestrator8database28___mock_MockDatabase_Database17___update_metadataNtB5_11Expectation4call
FNDA:0,_RNvMs6_NtNtNtCs9kcl9mimtFg_12orchestrator8database28___mock_MockDatabase_Database17___update_metadataNtB5_11Expectation7is_done
FNDA:0,_RNvMs6_NtNtNtCs9kcl9mimtFg_12orchestrator8database28___mock_MockDatabase_Database17___update_metadataNtB5_11Expectation7matches
FNDA:0,_RNvMsa_NtNtNtCs9kcl9mimtFg_12orchestrator8database28___mock_MockDatabase_Database17___update_metadataNtB5_12Expectations4call
FNDA:0,_RNCNvMsa_NtNtNtCs9kcl9mimtFg_12orchestrator8database28___mock_MockDatabase_Database17___update_metadataNtB7_12Expectations4calls_0Bd_
FNDA:0,_RNCNvMsa_NtNtNtCs9kcl9mimtFg_12orchestrator8database28___mock_MockDatabase_Database17___update_metadataNtB7_12Expectations4call0Bd_
FNDA:2,_RNvMNtNtNtCs9kcl9mimtFg_12orchestrator8database28___mock_MockDatabase_Database40___get_latest_job_by_type_and_internal_idNtB2_5Rfunc8call_mut
FNDA:2,_RNvMs0_NtNtNtCs9kcl9mimtFg_12orchestrator8database28___mock_MockDatabase_Database40___get_latest_job_by_type_and_internal_idNtB5_7Matcher7matches
FNDA:2,_RNCNvMs0_NtNtNtCs9kcl9mimtFg_12orchestrator8database28___mock_MockDatabase_Database40___get_latest_job_by_type_and_internal_idNtB7_7Matcher7matches0Bd_
FNDA:0,_RNvXs2_NtNtNtCs9kcl9mimtFg_12orchestrator8database28___mock_MockDatabase_Database40___get_latest_job_by_type_and_internal_idNtB5_7MatcherNtNtCsl82brYPINY5_4core3fmt7Display3fmt
FNDA:2,_RNvMs4_NtNtNtCs9kcl9mimtFg_12orchestrator8database28___mock_MockDatabase_Database40___get_latest_job_by_type_and_internal_idNtB5_6Common4call
FNDA:2,_RNvMs4_NtNtNtCs9kcl9mimtFg_12orchestrator8database28___mock_MockDatabase_Database40___get_latest_job_by_type_and_internal_idNtB5_6Common7is_done
FNDA:2,_RNvMs4_NtNtNtCs9kcl9mimtFg_12orchestrator8database28___mock_MockDatabase_Database40___get_latest_job_by_type_and_internal_idNtB5_6Common7matches
FNDA:2,_RNvMs4_NtNtNtCs9kcl9mimtFg_12orchestrator8database28___mock_MockDatabase_Database40___get_latest_job_by_type_and_internal_idNtB5_6Common16satisfy_sequence
FNDA:2,_RINvMs4_NtNtNtCs9kcl9mimtFg_12orchestrator8database28___mock_MockDatabase_Database40___get_latest_job_by_type_and_internal_idNtB6_6Common4withINtNtCshPsaE7IPXTr_10predicates3ord11EqPredicateNtNtNtBc_4jobs5types7JobTypeEEBc_
FNDA:2,_RNvMs4_NtNtNtCs9kcl9mimtFg_12orchestrator8database28___mock_MockDatabase_Database40___get_latest_job_by_type_and_internal_idNtB5_6Common15verify_sequence
FNDA:0,_RNvXs5_NtNtNtCs9kcl9mimtFg_12orchestrator8database28___mock_MockDatabase_Database40___get_latest_job_by_type_and_internal_idNtB5_6CommonNtNtNtCsl82brYPINY5_4core3ops4drop4Drop4drop
FNDA:2,_RNvMs6_NtNtNtCs9kcl9mimtFg_12orchestrator8database28___mock_MockDatabase_Database40___get_latest_job_by_type_and_internal_idNtB5_11Expectation4call
FNDA:1,_RINvMs6_NtNtNtCs9kcl9mimtFg_12orchestrator8database28___mock_MockDatabase_Database40___get_latest_job_by_type_and_internal_idNtB6_11Expectation9returningNCNCNvNtNtNtBc_5tests7workers4snos16test_snos_worker00EBc_
FNDA:1,_RINvMs6_NtNtNtCs9kcl9mimtFg_12orchestrator8database28___mock_MockDatabase_Database40___get_latest_job_by_type_and_internal_idNtB6_11Expectation9returningNCNCNvNtNtNtBc_5tests7workers4snos16test_snos_worker0s_0EBc_
FNDA:2,_RNvMs6_NtNtNtCs9kcl9mimtFg_12orchestrator8database28___mock_MockDatabase_Database40___get_latest_job_by_type_and_internal_idNtB5_11Expectation7is_done
FNDA:2,_RNvMs6_NtNtNtCs9kcl9mimtFg_12orchestrator8database28___mock_MockDatabase_Database40___get_latest_job_by_type_and_internal_idNtB5_11Expectation7matches
FNDA:1,_RINvMs6_NtNtNtCs9kcl9mimtFg_12orchestrator8database28___mock_MockDatabase_Database40___get_latest_job_by_type_and_internal_idNtB6_11Expectation5timesjEBc_
FNDA:1,_RINvMs4_NtNtNtCs9kcl9mimtFg_12orchestrator8database28___mock_MockDatabase_Database40___get_latest_job_by_type_and_internal_idNtB6_6Common5timesjEBc_
FNDA:2,_RINvMs6_NtNtNtCs9kcl9mimtFg_12orchestrator8database28___mock_MockDatabase_Database40___get_latest_job_by_type_and_internal_idNtB6_11Expectation4withINtNtCshPsaE7IPXTr_10predicates3ord11EqPredicateNtNtNtBc_4jobs5types7JobTypeEEBc_
FNDA:2,_RNvXs7_NtNtNtCs9kcl9mimtFg_12orchestrator8database28___mock_MockDatabase_Database40___get_latest_job_by_type_and_internal_idNtB5_11ExpectationNtNtCsl82brYPINY5_4core7default7Default7default
FNDA:2,_RNvXs3_NtNtNtCs9kcl9mimtFg_12orchestrator8database28___mock_MockDatabase_Database40___get_latest_job_by_type_and_internal_idNtB5_6CommonNtNtCsl82brYPINY5_4core7default7Default7default
FNDA:2,_RNvXs1_NtNtNtCs9kcl9mimtFg_12orchestrator8database28___mock_MockDatabase_Database40___get_latest_job_by_type_and_internal_idNtB5_7MatcherNtNtCsl82brYPINY5_4core7default7Default7default
FNDA:2,_RNvXs_NtNtNtCs9kcl9mimtFg_12orchestrator8database28___mock_MockDatabase_Database40___get_latest_job_by_type_and_internal_idNtB4_5RfuncNtNtCsl82brYPINY5_4core7default7Default7default
FNDA:2,_RNvMs8_NtNtNtCs9kcl9mimtFg_12orchestrator8database28___mock_MockDatabase_Database40___get_latest_job_by_type_and_internal_idNtB5_12Expectations6expect
FNDA:2,_RNvMsa_NtNtNtCs9kcl9mimtFg_12orchestrator8database28___mock_MockDatabase_Database40___get_latest_job_by_type_and_internal_idNtB5_12Expectations4call
FNDA:2,_RNCNvMsa_NtNtNtCs9kcl9mimtFg_12orchestrator8database28___mock_MockDatabase_Database40___get_latest_job_by_type_and_internal_idNtB7_12Expectations4calls_0Bd_
FNDA:2,_RNCNvMsa_NtNtNtCs9kcl9mimtFg_12orchestrator8database28___mock_MockDatabase_Database40___get_latest_job_by_type_and_internal_idNtB7_12Expectations4call0Bd_
FNDA:19,_RINvMs6_NtNtNtCs9kcl9mimtFg_12orchestrator8database28___mock_MockDatabase_Database33___get_job_by_internal_id_and_typeNtB6_11Expectation4withINtNtCshPsaE7IPXTr_10predicates3ord11EqPredicateNtNtCshB4XevuvN1H_5alloc6string6StringEIB2g_NtNtNtBc_4jobs5types7JobTypeEEBc_
FNDA:0,_RNvXNtCs9kcl9mimtFg_12orchestrator8databaseNtB2_12MockDatabaseNtNtCsl82brYPINY5_4core3fmt5Debug3fmt
FNDA:0,_RNvMs4_NtNtNtCs9kcl9mimtFg_12orchestrator8database28___mock_MockDatabase_Database12___create_jobNtB5_6Common11in_sequence
FNDA:0,_RNvMs4_NtNtNtCs9kcl9mimtFg_12orchestrator8database28___mock_MockDatabase_Database12___create_jobNtB5_6Common5never
FNDA:0,_RINvMs4_NtNtNtCs9kcl9mimtFg_12orchestrator8database28___mock_MockDatabase_Database12___create_jobNtB6_6Common4withpEBc_
FNDA:0,_RINvMs4_NtNtNtCs9kcl9mimtFg_12orchestrator8database28___mock_MockDatabase_Database12___create_jobNtB6_6Common8withf_stpEBc_
FNDA:0,_RINvMs6_NtNtNtCs9kcl9mimtFg_12orchestrator8database28___mock_MockDatabase_Database12___create_jobNtB6_11Expectation12return_constpEBc_
FNDA:0,_RNCINvMs6_NtNtNtCs9kcl9mimtFg_12orchestrator8database28___mock_MockDatabase_Database12___create_jobNtB8_11Expectation12return_constpE0Be_
FNDA:0,_RINvMs6_NtNtNtCs9kcl9mimtFg_12orchestrator8database28___mock_MockDatabase_Database12___create_jobNtB6_11Expectation15return_const_stpEBc_
FNDA:0,_RNCINvMs6_NtNtNtCs9kcl9mimtFg_12orchestrator8database28___mock_MockDatabase_Database12___create_jobNtB8_11Expectation15return_const_stpE0Be_
FNDA:0,_RINvMs6_NtNtNtCs9kcl9mimtFg_12orchestrator8database28___mock_MockDatabase_Database12___create_jobNtB6_11Expectation11return_oncepEBc_
FNDA:0,_RINvMs6_NtNtNtCs9kcl9mimtFg_12orchestrator8database28___mock_MockDatabase_Database12___create_jobNtB6_11Expectation14return_once_stpEBc_
FNDA:0,_RINvMs6_NtNtNtCs9kcl9mimtFg_12orchestrator8database28___mock_MockDatabase_Database12___create_jobNtB6_11Expectation12returning_stpEBc_
FNDA:0,_RNvMs6_NtNtNtCs9kcl9mimtFg_12orchestrator8database28___mock_MockDatabase_Database12___create_jobNtB5_11Expectation11in_sequence
FNDA:0,_RNvMs6_NtNtNtCs9kcl9mimtFg_12orchestrator8database28___mock_MockDatabase_Database12___create_jobNtB5_11Expectation5never
FNDA:0,_RNvMs6_NtNtNtCs9kcl9mimtFg_12orchestrator8database28___mock_MockDatabase_Database12___create_jobNtB5_11Expectation3new
FNDA:0,_RNvMs6_NtNtNtCs9kcl9mimtFg_12orchestrator8database28___mock_MockDatabase_Database12___create_jobNtB5_11Expectation4once
FNDA:0,_RINvMs6_NtNtNtCs9kcl9mimtFg_12orchestrator8database28___mock_MockDatabase_Database12___create_jobNtB6_11Expectation4withpEBc_
FNDA:0,_RINvMs6_NtNtNtCs9kcl9mimtFg_12orchestrator8database28___mock_MockDatabase_Database12___create_jobNtB6_11Expectation8withf_stpEBc_
FNDA:0,_RNvMs8_NtNtNtCs9kcl9mimtFg_12orchestrator8database28___mock_MockDatabase_Database12___create_jobNtB5_12Expectations10checkpoint
FNDA:0,_RNvMs8_NtNtNtCs9kcl9mimtFg_12orchestrator8database28___mock_MockDatabase_Database12___create_jobNtB5_12Expectations3new
FNDA:0,_RNvXs_NtNtNtCs9kcl9mimtFg_12orchestrator8database28___mock_MockDatabase_Database15___get_job_by_idNtB4_5RfuncNtNtCsl82brYPINY5_4core7default7Default7default
FNDA:0,_RNvXs1_NtNtNtCs9kcl9mimtFg_12orchestrator8database28___mock_MockDatabase_Database15___get_job_by_idNtB5_7MatcherNtNtCsl82brYPINY5_4core7default7Default7default
FNDA:0,_RNvXs3_NtNtNtCs9kcl9mimtFg_12orchestrator8database28___mock_MockDatabase_Database15___get_job_by_idNtB5_6CommonNtNtCsl82brYPINY5_4core7default7Default7default
FNDA:0,_RNvMs4_NtNtNtCs9kcl9mimtFg_12orchestrator8database28___mock_MockDatabase_Database15___get_job_by_idNtB5_6Common11in_sequence
FNDA:0,_RNvMs4_NtNtNtCs9kcl9mimtFg_12orchestrator8database28___mock_MockDatabase_Database15___get_job_by_idNtB5_6Common5never
FNDA:0,_RINvMs4_NtNtNtCs9kcl9mimtFg_12orchestrator8database28___mock_MockDatabase_Database15___get_job_by_idNtB6_6Common5timespEBc_
FNDA:0,_RINvMs4_NtNtNtCs9kcl9mimtFg_12orchestrator8database28___mock_MockDatabase_Database15___get_job_by_idNtB6_6Common4withpEBc_
FNDA:0,_RINvMs4_NtNtNtCs9kcl9mimtFg_12orchestrator8database28___mock_MockDatabase_Database15___get_job_by_idNtB6_6Common5withfpEBc_
FNDA:0,_RINvMs4_NtNtNtCs9kcl9mimtFg_12orchestrator8database28___mock_MockDatabase_Database15___get_job_by_idNtB6_6Common8withf_stpEBc_
FNDA:0,_RINvMs6_NtNtNtCs9kcl9mimtFg_12orchestrator8database28___mock_MockDatabase_Database15___get_job_by_idNtB6_11Expectation12return_constpEBc_
FNDA:0,_RNCINvMs6_NtNtNtCs9kcl9mimtFg_12orchestrator8database28___mock_MockDatabase_Database15___get_job_by_idNtB8_11Expectation12return_constpE0Be_
FNDA:0,_RINvMs6_NtNtNtCs9kcl9mimtFg_12orchestrator8database28___mock_MockDatabase_Database15___get_job_by_idNtB6_11Expectation15return_const_stpEBc_
FNDA:0,_RNCINvMs6_NtNtNtCs9kcl9mimtFg_12orchestrator8database28___mock_MockDatabase_Database15___get_job_by_idNtB8_11Expectation15return_const_stpE0Be_
FNDA:0,_RINvMs6_NtNtNtCs9kcl9mimtFg_12orchestrator8database28___mock_MockDatabase_Database15___get_job_by_idNtB6_11Expectation11return_oncepEBc_
FNDA:0,_RINvMs6_NtNtNtCs9kcl9mimtFg_12orchestrator8database28___mock_MockDatabase_Database15___get_job_by_idNtB6_11Expectation14return_once_stpEBc_
FNDA:0,_RINvMs6_NtNtNtCs9kcl9mimtFg_12orchestrator8database28___mock_MockDatabase_Database15___get_job_by_idNtB6_11Expectation9returningpEBc_
FNDA:0,_RINvMs6_NtNtNtCs9kcl9mimtFg_12orchestrator8database28___mock_MockDatabase_Database15___get_job_by_idNtB6_11Expectation12returning_stpEBc_
FNDA:0,_RNvMs6_NtNtNtCs9kcl9mimtFg_12orchestrator8database28___mock_MockDatabase_Database15___get_job_by_idNtB5_11Expectation11in_sequence
FNDA:0,_RNvMs6_NtNtNtCs9kcl9mimtFg_12orchestrator8database28___mock_MockDatabase_Database15___get_job_by_idNtB5_11Expectation5never
FNDA:0,_RNvMs6_NtNtNtCs9kcl9mimtFg_12orchestrator8database28___mock_MockDatabase_Database15___get_job_by_idNtB5_11Expectation3new
FNDA:0,_RNvMs6_NtNtNtCs9kcl9mimtFg_12orchestrator8database28___mock_MockDatabase_Database15___get_job_by_idNtB5_11Expectation4once
FNDA:0,_RINvMs6_NtNtNtCs9kcl9mimtFg_12orchestrator8database28___mock_MockDatabase_Database15___get_job_by_idNtB6_11Expectation5timespEBc_
FNDA:0,_RINvMs6_NtNtNtCs9kcl9mimtFg_12orchestrator8database28___mock_MockDatabase_Database15___get_job_by_idNtB6_11Expectation4withpEBc_
FNDA:0,_RINvMs6_NtNtNtCs9kcl9mimtFg_12orchestrator8database28___mock_MockDatabase_Database15___get_job_by_idNtB6_11Expectation5withfpEBc_
FNDA:0,_RINvMs6_NtNtNtCs9kcl9mimtFg_12orchestrator8database28___mock_MockDatabase_Database15___get_job_by_idNtB6_11Expectation8withf_stpEBc_
FNDA:0,_RNvXs7_NtNtNtCs9kcl9mimtFg_12orchestrator8database28___mock_MockDatabase_Database15___get_job_by_idNtB5_11ExpectationNtNtCsl82brYPINY5_4core7default7Default7default
FNDA:0,_RNvMs8_NtNtNtCs9kcl9mimtFg_12orchestrator8database28___mock_MockDatabase_Database15___get_job_by_idNtB5_12Expectations10checkpoint
FNDA:0,_RNvMs8_NtNtNtCs9kcl9mimtFg_12orchestrator8database28___mock_MockDatabase_Database15___get_job_by_idNtB5_12Expectations6expect
FNDA:0,_RNvMs8_NtNtNtCs9kcl9mimtFg_12orchestrator8database28___mock_MockDatabase_Database15___get_job_by_idNtB5_12Expectations3new
FNDA:0,_RNvMs4_NtNtNtCs9kcl9mimtFg_12orchestrator8database28___mock_MockDatabase_Database33___get_job_by_internal_id_and_typeNtB5_6Common11in_sequence
FNDA:0,_RNvMs4_NtNtNtCs9kcl9mimtFg_12orchestrator8database28___mock_MockDatabase_Database33___get_job_by_internal_id_and_typeNtB5_6Common5never
FNDA:0,_RINvMs4_NtNtNtCs9kcl9mimtFg_12orchestrator8database28___mock_MockDatabase_Database33___get_job_by_internal_id_and_typeNtB6_6Common5withfpEBc_
FNDA:0,_RINvMs4_NtNtNtCs9kcl9mimtFg_12orchestrator8database28___mock_MockDatabase_Database33___get_job_by_internal_id_and_typeNtB6_6Common8withf_stpEBc_
FNDA:0,_RINvMs6_NtNtNtCs9kcl9mimtFg_12orchestrator8database28___mock_MockDatabase_Database33___get_job_by_internal_id_and_typeNtB6_11Expectation12return_constpEBc_
FNDA:0,_RNCINvMs6_NtNtNtCs9kcl9mimtFg_12orchestrator8database28___mock_MockDatabase_Database33___get_job_by_internal_id_and_typeNtB8_11Expectation12return_constpE0Be_
FNDA:0,_RINvMs6_NtNtNtCs9kcl9mimtFg_12orchestrator8database28___mock_MockDatabase_Database33___get_job_by_internal_id_and_typeNtB6_11Expectation15return_const_stpEBc_
FNDA:0,_RNCINvMs6_NtNtNtCs9kcl9mimtFg_12orchestrator8database28___mock_MockDatabase_Database33___get_job_by_internal_id_and_typeNtB8_11Expectation15return_const_stpE0Be_
FNDA:0,_RINvMs6_NtNtNtCs9kcl9mimtFg_12orchestrator8database28___mock_MockDatabase_Database33___get_job_by_internal_id_and_typeNtB6_11Expectation11return_oncepEBc_
FNDA:0,_RINvMs6_NtNtNtCs9kcl9mimtFg_12orchestrator8database28___mock_MockDatabase_Database33___get_job_by_internal_id_and_typeNtB6_11Expectation14return_once_stpEBc_
FNDA:0,_RINvMs6_NtNtNtCs9kcl9mimtFg_12orchestrator8database28___mock_MockDatabase_Database33___get_job_by_internal_id_and_typeNtB6_11Expectation12returning_stpEBc_
FNDA:0,_RNvMs6_NtNtNtCs9kcl9mimtFg_12orchestrator8database28___mock_MockDatabase_Database33___get_job_by_internal_id_and_typeNtB5_11Expectation11in_sequence
FNDA:0,_RNvMs6_NtNtNtCs9kcl9mimtFg_12orchestrator8database28___mock_MockDatabase_Database33___get_job_by_internal_id_and_typeNtB5_11Expectation5never
FNDA:0,_RNvMs6_NtNtNtCs9kcl9mimtFg_12orchestrator8database28___mock_MockDatabase_Database33___get_job_by_internal_id_and_typeNtB5_11Expectation3new
FNDA:0,_RNvMs6_NtNtNtCs9kcl9mimtFg_12orchestrator8database28___mock_MockDatabase_Database33___get_job_by_internal_id_and_typeNtB5_11Expectation4once
FNDA:0,_RINvMs6_NtNtNtCs9kcl9mimtFg_12orchestrator8database28___mock_MockDatabase_Database33___get_job_by_internal_id_and_typeNtB6_11Expectation5withfpEBc_
FNDA:0,_RINvMs6_NtNtNtCs9kcl9mimtFg_12orchestrator8database28___mock_MockDatabase_Database33___get_job_by_internal_id_and_typeNtB6_11Expectation8withf_stpEBc_
FNDA:0,_RNvMs8_NtNtNtCs9kcl9mimtFg_12orchestrator8database28___mock_MockDatabase_Database33___get_job_by_internal_id_and_typeNtB5_12Expectations10checkpoint
FNDA:0,_RNvMs8_NtNtNtCs9kcl9mimtFg_12orchestrator8database28___mock_MockDatabase_Database33___get_job_by_internal_id_and_typeNtB5_12Expectations3new
FNDA:0,_RNvXs_NtNtNtCs9kcl9mimtFg_12orchestrator8database28___mock_MockDatabase_Database19___update_job_statusNtB4_5RfuncNtNtCsl82brYPINY5_4core7default7Default7default
FNDA:0,_RNvXs1_NtNtNtCs9kcl9mimtFg_12orchestrator8database28___mock_MockDatabase_Database19___update_job_statusNtB5_7MatcherNtNtCsl82brYPINY5_4core7default7Default7default
FNDA:0,_RNvXs3_NtNtNtCs9kcl9mimtFg_12orchestrator8database28___mock_MockDatabase_Database19___update_job_statusNtB5_6CommonNtNtCsl82brYPINY5_4core7default7Default7default
FNDA:0,_RNvMs4_NtNtNtCs9kcl9mimtFg_12orchestrator8database28___mock_MockDatabase_Database19___update_job_statusNtB5_6Common11in_sequence
FNDA:0,_RNvMs4_NtNtNtCs9kcl9mimtFg_12orchestrator8database28___mock_MockDatabase_Database19___update_job_statusNtB5_6Common5never
FNDA:0,_RINvMs4_NtNtNtCs9kcl9mimtFg_12orchestrator8database28___mock_MockDatabase_Database19___update_job_statusNtB6_6Common5timespEBc_
FNDA:0,_RINvMs4_NtNtNtCs9kcl9mimtFg_12orchestrator8database28___mock_MockDatabase_Database19___update_job_statusNtB6_6Common4withppEBc_
FNDA:0,_RINvMs4_NtNtNtCs9kcl9mimtFg_12orchestrator8database28___mock_MockDatabase_Database19___update_job_statusNtB6_6Common5withfpEBc_
FNDA:0,_RINvMs4_NtNtNtCs9kcl9mimtFg_12orchestrator8database28___mock_MockDatabase_Database19___update_job_statusNtB6_6Common8withf_stpEBc_
FNDA:0,_RINvMs6_NtNtNtCs9kcl9mimtFg_12orchestrator8database28___mock_MockDatabase_Database19___update_job_statusNtB6_11Expectation12return_constpEBc_
FNDA:0,_RNCINvMs6_NtNtNtCs9kcl9mimtFg_12orchestrator8database28___mock_MockDatabase_Database19___update_job_statusNtB8_11Expectation12return_constpE0Be_
FNDA:0,_RINvMs6_NtNtNtCs9kcl9mimtFg_12orchestrator8database28___mock_MockDatabase_Database19___update_job_statusNtB6_11Expectation15return_const_stpEBc_
FNDA:0,_RNCINvMs6_NtNtNtCs9kcl9mimtFg_12orchestrator8database28___mock_MockDatabase_Database19___update_job_statusNtB8_11Expectation15return_const_stpE0Be_
FNDA:0,_RINvMs6_NtNtNtCs9kcl9mimtFg_12orchestrator8database28___mock_MockDatabase_Database19___update_job_statusNtB6_11Expectation11return_oncepEBc_
FNDA:0,_RINvMs6_NtNtNtCs9kcl9mimtFg_12orchestrator8database28___mock_MockDatabase_Database19___update_job_statusNtB6_11Expectation14return_once_stpEBc_
FNDA:0,_RINvMs6_NtNtNtCs9kcl9mimtFg_12orchestrator8database28___mock_MockDatabase_Database19___update_job_statusNtB6_11Expectation9returningpEBc_
FNDA:0,_RINvMs6_NtNtNtCs9kcl9mimtFg_12orchestrator8database28___mock_MockDatabase_Database19___update_job_statusNtB6_11Expectation12returning_stpEBc_
FNDA:0,_RNvMs6_NtNtNtCs9kcl9mimtFg_12orchestrator8database28___mock_MockDatabase_Database19___update_job_statusNtB5_11Expectation11in_sequence
FNDA:0,_RNvMs6_NtNtNtCs9kcl9mimtFg_12orchestrator8database28___mock_MockDatabase_Database19___update_job_statusNtB5_11Expectation5never
FNDA:0,_RNvMs6_NtNtNtCs9kcl9mimtFg_12orchestrator8database28___mock_MockDatabase_Database19___update_job_statusNtB5_11Expectation3new
FNDA:0,_RNvMs6_NtNtNtCs9kcl9mimtFg_12orchestrator8database28___mock_MockDatabase_Database19___update_job_statusNtB5_11Expectation4once
FNDA:0,_RINvMs6_NtNtNtCs9kcl9mimtFg_12orchestrator8database28___mock_MockDatabase_Database19___update_job_statusNtB6_11Expectation5timespEBc_
FNDA:0,_RINvMs6_NtNtNtCs9kcl9mimtFg_12orchestrator8database28___mock_MockDatabase_Database19___update_job_statusNtB6_11Expectation4withppEBc_
FNDA:0,_RINvMs6_NtNtNtCs9kcl9mimtFg_12orchestrator8database28___mock_MockDatabase_Database19___update_job_statusNtB6_11Expectation5withfpEBc_
FNDA:0,_RINvMs6_NtNtNtCs9kcl9mimtFg_12orchestrator8database28___mock_MockDatabase_Database19___update_job_statusNtB6_11Expectation8withf_stpEBc_
FNDA:0,_RNvXs7_NtNtNtCs9kcl9mimtFg_12orchestrator8database28___mock_MockDatabase_Database19___update_job_statusNtB5_11ExpectationNtNtCsl82brYPINY5_4core7default7Default7default
FNDA:0,_RNvMs8_NtNtNtCs9kcl9mimtFg_12orchestrator8database28___mock_MockDatabase_Database19___update_job_statusNtB5_12Expectations10checkpoint
FNDA:0,_RNvMs8_NtNtNtCs9kcl9mimtFg_12orchestrator8database28___mock_MockDatabase_Database19___update_job_statusNtB5_12Expectations6expect
FNDA:0,_RNvMs8_NtNtNtCs9kcl9mimtFg_12orchestrator8database28___mock_MockDatabase_Database19___update_job_statusNtB5_12Expectations3new
FNDA:0,_RNvXs_NtNtNtCs9kcl9mimtFg_12orchestrator8database28___mock_MockDatabase_Database44___update_external_id_and_status_and_metadataNtB4_5RfuncNtNtCsl82brYPINY5_4core7default7Default7default
FNDA:0,_RNvXs1_NtNtNtCs9kcl9mimtFg_12orchestrator8database28___mock_MockDatabase_Database44___update_external_id_and_status_and_metadataNtB5_7MatcherNtNtCsl82brYPINY5_4core7default7Default7default
FNDA:0,_RNvXs3_NtNtNtCs9kcl9mimtFg_12orchestrator8database28___mock_MockDatabase_Database44___update_external_id_and_status_and_metadataNtB5_6CommonNtNtCsl82brYPINY5_4core7default7Default7default
FNDA:0,_RNvMs4_NtNtNtCs9kcl9mimtFg_12orchestrator8database28___mock_MockDatabase_Database44___update_external_id_and_status_and_metadataNtB5_6Common11in_sequence
FNDA:0,_RNvMs4_NtNtNtCs9kcl9mimtFg_12orchestrator8database28___mock_MockDatabase_Database44___update_external_id_and_status_and_metadataNtB5_6Common5never
FNDA:0,_RINvMs4_NtNtNtCs9kcl9mimtFg_12orchestrator8database28___mock_MockDatabase_Database44___update_external_id_and_status_and_metadataNtB6_6Common5timespEBc_
FNDA:0,_RINvMs4_NtNtNtCs9kcl9mimtFg_12orchestrator8database28___mock_MockDatabase_Database44___update_external_id_and_status_and_metadataNtB6_6Common4withppppEBc_
FNDA:0,_RINvMs4_NtNtNtCs9kcl9mimtFg_12orchestrator8database28___mock_MockDatabase_Database44___update_external_id_and_status_and_metadataNtB6_6Common5withfpEBc_
FNDA:0,_RINvMs4_NtNtNtCs9kcl9mimtFg_12orchestrator8database28___mock_MockDatabase_Database44___update_external_id_and_status_and_metadataNtB6_6Common8withf_stpEBc_
FNDA:0,_RINvMs6_NtNtNtCs9kcl9mimtFg_12orchestrator8database28___mock_MockDatabase_Database44___update_external_id_and_status_and_metadataNtB6_11Expectation12return_constpEBc_
FNDA:0,_RNCINvMs6_NtNtNtCs9kcl9mimtFg_12orchestrator8database28___mock_MockDatabase_Database44___update_external_id_and_status_and_metadataNtB8_11Expectation12return_constpE0Be_
FNDA:0,_RINvMs6_NtNtNtCs9kcl9mimtFg_12orchestrator8database28___mock_MockDatabase_Database44___update_external_id_and_status_and_metadataNtB6_11Expectation15return_const_stpEBc_
FNDA:0,_RNCINvMs6_NtNtNtCs9kcl9mimtFg_12orchestrator8database28___mock_MockDatabase_Database44___update_external_id_and_status_and_metadataNtB8_11Expectation15return_const_stpE0Be_
FNDA:0,_RINvMs6_NtNtNtCs9kcl9mimtFg_12orchestrator8database28___mock_MockDatabase_Database44___update_external_id_and_status_and_metadataNtB6_11Expectation11return_oncepEBc_
FNDA:0,_RINvMs6_NtNtNtCs9kcl9mimtFg_12orchestrator8database28___mock_MockDatabase_Database44___update_external_id_and_status_and_metadataNtB6_11Expectation14return_once_stpEBc_
FNDA:0,_RINvMs6_NtNtNtCs9kcl9mimtFg_12orchestrator8database28___mock_MockDatabase_Database44___update_external_id_and_status_and_metadataNtB6_11Expectation9returningpEBc_
FNDA:0,_RINvMs6_NtNtNtCs9kcl9mimtFg_12orchestrator8database28___mock_MockDatabase_Database44___update_external_id_and_status_and_metadataNtB6_11Expectation12returning_stpEBc_
FNDA:0,_RNvMs6_NtNtNtCs9kcl9mimtFg_12orchestrator8database28___mock_MockDatabase_Database44___update_external_id_and_status_and_metadataNtB5_11Expectation11in_sequence
FNDA:0,_RNvMs6_NtNtNtCs9kcl9mimtFg_12orchestrator8database28___mock_MockDatabase_Database44___update_external_id_and_status_and_metadataNtB5_11Expectation5never
FNDA:0,_RNvMs6_NtNtNtCs9kcl9mimtFg_12orchestrator8database28___mock_MockDatabase_Database44___update_external_id_and_status_and_metadataNtB5_11Expectation3new
FNDA:0,_RNvMs6_NtNtNtCs9kcl9mimtFg_12orchestrator8database28___mock_MockDatabase_Database44___update_external_id_and_status_and_metadataNtB5_11Expectation4once
FNDA:0,_RINvMs6_NtNtNtCs9kcl9mimtFg_12orchestrator8database28___mock_MockDatabase_Database44___update_external_id_and_status_and_metadataNtB6_11Expectation5timespEBc_
FNDA:0,_RINvMs6_NtNtNtCs9kcl9mimtFg_12orchestrator8database28___mock_MockDatabase_Database44___update_external_id_and_status_and_metadataNtB6_11Expectation4withppppEBc_
FNDA:0,_RINvMs6_NtNtNtCs9kcl9mimtFg_12orchestrator8database28___mock_MockDatabase_Database44___update_external_id_and_status_and_metadataNtB6_11Expectation5withfpEBc_
FNDA:0,_RINvMs6_NtNtNtCs9kcl9mimtFg_12orchestrator8database28___mock_MockDatabase_Database44___update_external_id_and_status_and_metadataNtB6_11Expectation8withf_stpEBc_
FNDA:0,_RNvXs7_NtNtNtCs9kcl9mimtFg_12orchestrator8database28___mock_MockDatabase_Database44___update_external_id_and_status_and_metadataNtB5_11ExpectationNtNtCsl82brYPINY5_4core7default7Default7default
FNDA:0,_RNvMs8_NtNtNtCs9kcl9mimtFg_12orchestrator8database28___mock_MockDatabase_Database44___update_external_id_and_status_and_metadataNtB5_12Expectations10checkpoint
FNDA:0,_RNvMs8_NtNtNtCs9kcl9mimtFg_12orchestrator8database28___mock_MockDatabase_Database44___update_external_id_and_status_and_metadataNtB5_12Expectations6expect
FNDA:0,_RNvMs8_NtNtNtCs9kcl9mimtFg_12orchestrator8database28___mock_MockDatabase_Database44___update_external_id_and_status_and_metadataNtB5_12Expectations3new
FNDA:0,_RNvXs_NtNtNtCs9kcl9mimtFg_12orchestrator8database28___mock_MockDatabase_Database17___update_metadataNtB4_5RfuncNtNtCsl82brYPINY5_4core7default7Default7default
FNDA:0,_RNvXs1_NtNtNtCs9kcl9mimtFg_12orchestrator8database28___mock_MockDatabase_Database17___update_metadataNtB5_7MatcherNtNtCsl82brYPINY5_4core7default7Default7default
FNDA:0,_RNvXs3_NtNtNtCs9kcl9mimtFg_12orchestrator8database28___mock_MockDatabase_Database17___update_metadataNtB5_6CommonNtNtCsl82brYPINY5_4core7default7Default7default
FNDA:0,_RNvMs4_NtNtNtCs9kcl9mimtFg_12orchestrator8database28___mock_MockDatabase_Database17___update_metadataNtB5_6Common11in_sequence
FNDA:0,_RNvMs4_NtNtNtCs9kcl9mimtFg_12orchestrator8database28___mock_MockDatabase_Database17___update_metadataNtB5_6Common5never
FNDA:0,_RINvMs4_NtNtNtCs9kcl9mimtFg_12orchestrator8database28___mock_MockDatabase_Database17___update_metadataNtB6_6Common5timespEBc_
FNDA:0,_RINvMs4_NtNtNtCs9kcl9mimtFg_12orchestrator8database28___mock_MockDatabase_Database17___update_metadataNtB6_6Common4withppEBc_
FNDA:0,_RINvMs4_NtNtNtCs9kcl9mimtFg_12orchestrator8database28___mock_MockDatabase_Database17___update_metadataNtB6_6Common5withfpEBc_
FNDA:0,_RINvMs4_NtNtNtCs9kcl9mimtFg_12orchestrator8database28___mock_MockDatabase_Database17___update_metadataNtB6_6Common8withf_stpEBc_
FNDA:0,_RINvMs6_NtNtNtCs9kcl9mimtFg_12orchestrator8database28___mock_MockDatabase_Database17___update_metadataNtB6_11Expectation12return_constpEBc_
FNDA:0,_RNCINvMs6_NtNtNtCs9kcl9mimtFg_12orchestrator8database28___mock_MockDatabase_Database17___update_metadataNtB8_11Expectation12return_constpE0Be_
FNDA:0,_RINvMs6_NtNtNtCs9kcl9mimtFg_12orchestrator8database28___mock_MockDatabase_Database17___update_metadataNtB6_11Expectation15return_const_stpEBc_
FNDA:0,_RNCINvMs6_NtNtNtCs9kcl9mimtFg_12orchestrator8database28___mock_MockDatabase_Database17___update_metadataNtB8_11Expectation15return_const_stpE0Be_
FNDA:0,_RINvMs6_NtNtNtCs9kcl9mimtFg_12orchestrator8database28___mock_MockDatabase_Database17___update_metadataNtB6_11Expectation11return_oncepEBc_
FNDA:0,_RINvMs6_NtNtNtCs9kcl9mimtFg_12orchestrator8database28___mock_MockDatabase_Database17___update_metadataNtB6_11Expectation14return_once_stpEBc_
FNDA:0,_RINvMs6_NtNtNtCs9kcl9mimtFg_12orchestrator8database28___mock_MockDatabase_Database17___update_metadataNtB6_11Expectation9returningpEBc_
FNDA:0,_RINvMs6_NtNtNtCs9kcl9mimtFg_12orchestrator8database28___mock_MockDatabase_Database17___update_metadataNtB6_11Expectation12returning_stpEBc_
FNDA:0,_RNvMs6_NtNtNtCs9kcl9mimtFg_12orchestrator8database28___mock_MockDatabase_Database17___update_metadataNtB5_11Expectation11in_sequence
FNDA:0,_RNvMs6_NtNtNtCs9kcl9mimtFg_12orchestrator8database28___mock_MockDatabase_Database17___update_metadataNtB5_11Expectation5never
FNDA:0,_RNvMs6_NtNtNtCs9kcl9mimtFg_12orchestrator8database28___mock_MockDatabase_Database17___update_metadataNtB5_11Expectation3new
FNDA:0,_RNvMs6_NtNtNtCs9kcl9mimtFg_12orchestrator8database28___mock_MockDatabase_Database17___update_metadataNtB5_11Expectation4once
FNDA:0,_RINvMs6_NtNtNtCs9kcl9mimtFg_12orchestrator8database28___mock_MockDatabase_Database17___update_metadataNtB6_11Expectation5timespEBc_
FNDA:0,_RINvMs6_NtNtNtCs9kcl9mimtFg_12orchestrator8database28___mock_MockDatabase_Database17___update_metadataNtB6_11Expectation4withppEBc_
FNDA:0,_RINvMs6_NtNtNtCs9kcl9mimtFg_12orchestrator8database28___mock_MockDatabase_Database17___update_metadataNtB6_11Expectation5withfpEBc_
FNDA:0,_RINvMs6_NtNtNtCs9kcl9mimtFg_12orchestrator8database28___mock_MockDatabase_Database17___update_metadataNtB6_11Expectation8withf_stpEBc_
FNDA:0,_RNvXs7_NtNtNtCs9kcl9mimtFg_12orchestrator8database28___mock_MockDatabase_Database17___update_metadataNtB5_11ExpectationNtNtCsl82brYPINY5_4core7default7Default7default
FNDA:0,_RNvMs8_NtNtNtCs9kcl9mimtFg_12orchestrator8database28___mock_MockDatabase_Database17___update_metadataNtB5_12Expectations10checkpoint
FNDA:0,_RNvMs8_NtNtNtCs9kcl9mimtFg_12orchestrator8database28___mock_MockDatabase_Database17___update_metadataNtB5_12Expectations6expect
FNDA:0,_RNvMs8_NtNtNtCs9kcl9mimtFg_12orchestrator8database28___mock_MockDatabase_Database17___update_metadataNtB5_12Expectations3new
FNDA:0,_RNvMs4_NtNtNtCs9kcl9mimtFg_12orchestrator8database28___mock_MockDatabase_Database40___get_latest_job_by_type_and_internal_idNtB5_6Common11in_sequence
FNDA:0,_RNvMs4_NtNtNtCs9kcl9mimtFg_12orchestrator8database28___mock_MockDatabase_Database40___get_latest_job_by_type_and_internal_idNtB5_6Common5never
FNDA:0,_RINvMs4_NtNtNtCs9kcl9mimtFg_12orchestrator8database28___mock_MockDatabase_Database40___get_latest_job_by_type_and_internal_idNtB6_6Common5withfpEBc_
FNDA:0,_RINvMs4_NtNtNtCs9kcl9mimtFg_12orchestrator8database28___mock_MockDatabase_Database40___get_latest_job_by_type_and_internal_idNtB6_6Common8withf_stpEBc_
FNDA:0,_RINvMs6_NtNtNtCs9kcl9mimtFg_12orchestrator8database28___mock_MockDatabase_Database40___get_latest_job_by_type_and_internal_idNtB6_11Expectation12return_constpEBc_
FNDA:0,_RNCINvMs6_NtNtNtCs9kcl9mimtFg_12orchestrator8database28___mock_MockDatabase_Database40___get_latest_job_by_type_and_internal_idNtB8_11Expectation12return_constpE0Be_
FNDA:0,_RINvMs6_NtNtNtCs9kcl9mimtFg_12orchestrator8database28___mock_MockDatabase_Database40___get_latest_job_by_type_and_internal_idNtB6_11Expectation15return_const_stpEBc_
FNDA:0,_RNCINvMs6_NtNtNtCs9kcl9mimtFg_12orchestrator8database28___mock_MockDatabase_Database40___get_latest_job_by_type_and_internal_idNtB8_11Expectation15return_const_stpE0Be_
FNDA:0,_RINvMs6_NtNtNtCs9kcl9mimtFg_12orchestrator8database28___mock_MockDatabase_Database40___get_latest_job_by_type_and_internal_idNtB6_11Expectation11return_oncepEBc_
FNDA:0,_RINvMs6_NtNtNtCs9kcl9mimtFg_12orchestrator8database28___mock_MockDatabase_Database40___get_latest_job_by_type_and_internal_idNtB6_11Expectation14return_once_stpEBc_
FNDA:0,_RINvMs6_NtNtNtCs9kcl9mimtFg_12orchestrator8database28___mock_MockDatabase_Database40___get_latest_job_by_type_and_internal_idNtB6_11Expectation12returning_stpEBc_
FNDA:0,_RNvMs6_NtNtNtCs9kcl9mimtFg_12orchestrator8database28___mock_MockDatabase_Database40___get_latest_job_by_type_and_internal_idNtB5_11Expectation11in_sequence
FNDA:0,_RNvMs6_NtNtNtCs9kcl9mimtFg_12orchestrator8database28___mock_MockDatabase_Database40___get_latest_job_by_type_and_internal_idNtB5_11Expectation5never
FNDA:0,_RNvMs6_NtNtNtCs9kcl9mimtFg_12orchestrator8database28___mock_MockDatabase_Database40___get_latest_job_by_type_and_internal_idNtB5_11Expectation3new
FNDA:0,_RNvMs6_NtNtNtCs9kcl9mimtFg_12orchestrator8database28___mock_MockDatabase_Database40___get_latest_job_by_type_and_internal_idNtB5_11Expectation4once
FNDA:0,_RINvMs6_NtNtNtCs9kcl9mimtFg_12orchestrator8database28___mock_MockDatabase_Database40___get_latest_job_by_type_and_internal_idNtB6_11Expectation5withfpEBc_
FNDA:0,_RINvMs6_NtNtNtCs9kcl9mimtFg_12orchestrator8database28___mock_MockDatabase_Database40___get_latest_job_by_type_and_internal_idNtB6_11Expectation8withf_stpEBc_
FNDA:0,_RNvMs8_NtNtNtCs9kcl9mimtFg_12orchestrator8database28___mock_MockDatabase_Database40___get_latest_job_by_type_and_internal_idNtB5_12Expectations10checkpoint
FNDA:0,_RNvMs8_NtNtNtCs9kcl9mimtFg_12orchestrator8database28___mock_MockDatabase_Database40___get_latest_job_by_type_and_internal_idNtB5_12Expectations3new
FNDA:0,_RNvMs4_NtNtNtCs9kcl9mimtFg_12orchestrator8database28___mock_MockDatabase_Database28___get_jobs_without_successorNtB5_6Common11in_sequence
FNDA:0,_RNvMs4_NtNtNtCs9kcl9mimtFg_12orchestrator8database28___mock_MockDatabase_Database28___get_jobs_without_successorNtB5_6Common5never
FNDA:0,_RINvMs4_NtNtNtCs9kcl9mimtFg_12orchestrator8database28___mock_MockDatabase_Database28___get_jobs_without_successorNtB6_6Common4withpppEBc_
FNDA:0,_RINvMs4_NtNtNtCs9kcl9mimtFg_12orchestrator8database28___mock_MockDatabase_Database28___get_jobs_without_successorNtB6_6Common8withf_stpEBc_
FNDA:0,_RINvMs6_NtNtNtCs9kcl9mimtFg_12orchestrator8database28___mock_MockDatabase_Database28___get_jobs_without_successorNtB6_11Expectation12return_constpEBc_
FNDA:0,_RNCINvMs6_NtNtNtCs9kcl9mimtFg_12orchestrator8database28___mock_MockDatabase_Database28___get_jobs_without_successorNtB8_11Expectation12return_constpE0Be_
FNDA:0,_RINvMs6_NtNtNtCs9kcl9mimtFg_12orchestrator8database28___mock_MockDatabase_Database28___get_jobs_without_successorNtB6_11Expectation15return_const_stpEBc_
FNDA:0,_RNCINvMs6_NtNtNtCs9kcl9mimtFg_12orchestrator8database28___mock_MockDatabase_Database28___get_jobs_without_successorNtB8_11Expectation15return_const_stpE0Be_
FNDA:0,_RINvMs6_NtNtNtCs9kcl9mimtFg_12orchestrator8database28___mock_MockDatabase_Database28___get_jobs_without_successorNtB6_11Expectation11return_oncepEBc_
FNDA:0,_RINvMs6_NtNtNtCs9kcl9mimtFg_12orchestrator8database28___mock_MockDatabase_Database28___get_jobs_without_successorNtB6_11Expectation14return_once_stpEBc_
FNDA:0,_RINvMs6_NtNtNtCs9kcl9mimtFg_12orchestrator8database28___mock_MockDatabase_Database28___get_jobs_without_successorNtB6_11Expectation12returning_stpEBc_
FNDA:0,_RNvMs6_NtNtNtCs9kcl9mimtFg_12orchestrator8database28___mock_MockDatabase_Database28___get_jobs_without_successorNtB5_11Expectation11in_sequence
FNDA:0,_RNvMs6_NtNtNtCs9kcl9mimtFg_12orchestrator8database28___mock_MockDatabase_Database28___get_jobs_without_successorNtB5_11Expectation5never
FNDA:0,_RNvMs6_NtNtNtCs9kcl9mimtFg_12orchestrator8database28___mock_MockDatabase_Database28___get_jobs_without_successorNtB5_11Expectation3new
FNDA:0,_RNvMs6_NtNtNtCs9kcl9mimtFg_12orchestrator8database28___mock_MockDatabase_Database28___get_jobs_without_successorNtB5_11Expectation4once
FNDA:0,_RINvMs6_NtNtNtCs9kcl9mimtFg_12orchestrator8database28___mock_MockDatabase_Database28___get_jobs_without_successorNtB6_11Expectation4withpppEBc_
FNDA:0,_RINvMs6_NtNtNtCs9kcl9mimtFg_12orchestrator8database28___mock_MockDatabase_Database28___get_jobs_without_successorNtB6_11Expectation8withf_stpEBc_
FNDA:0,_RNvMs8_NtNtNtCs9kcl9mimtFg_12orchestrator8database28___mock_MockDatabase_Database28___get_jobs_without_successorNtB5_12Expectations10checkpoint
FNDA:0,_RNvMs8_NtNtNtCs9kcl9mimtFg_12orchestrator8database28___mock_MockDatabase_Database28___get_jobs_without_successorNtB5_12Expectations3new
FNDA:0,_RNvMs1_NtCs9kcl9mimtFg_12orchestrator8databaseNtB5_21MockDatabase_Database10checkpoint
FNDA:0,_RNvMs2_NtCs9kcl9mimtFg_12orchestrator8databaseNtB5_12MockDatabase10checkpoint
FNDA:0,_RNvMs3_NtCs9kcl9mimtFg_12orchestrator8databaseNtB5_12MockDatabase20expect_get_job_by_id
FNDA:0,_RNvMs3_NtCs9kcl9mimtFg_12orchestrator8databaseNtB5_12MockDatabase24expect_update_job_status
FNDA:0,_RNvMs3_NtCs9kcl9mimtFg_12orchestrator8databaseNtB5_12MockDatabase49expect_update_external_id_and_status_and_metadata
FNDA:0,_RNvMs3_NtCs9kcl9mimtFg_12orchestrator8databaseNtB5_12MockDatabase22expect_update_metadata
FNDA:14,_RNvXs_NtCs9kcl9mimtFg_12orchestrator8databaseNtB4_12MockDatabaseNtNtCsl82brYPINY5_4core7default7Default7default
FNDA:14,_RNvXs0_NtCs9kcl9mimtFg_12orchestrator8databaseNtB5_21MockDatabase_DatabaseNtNtCsl82brYPINY5_4core7default7Default7default
FNDA:14,_RNvXs9_NtNtNtCs9kcl9mimtFg_12orchestrator8database28___mock_MockDatabase_Database12___create_jobNtB5_12ExpectationsNtNtCsl82brYPINY5_4core7default7Default7default
FNDA:14,_RNvXs9_NtNtNtCs9kcl9mimtFg_12orchestrator8database28___mock_MockDatabase_Database15___get_job_by_idNtB5_12ExpectationsNtNtCsl82brYPINY5_4core7default7Default7default
FNDA:14,_RNvXs9_NtNtNtCs9kcl9mimtFg_12orchestrator8database28___mock_MockDatabase_Database33___get_job_by_internal_id_and_typeNtB5_12ExpectationsNtNtCsl82brYPINY5_4core7default7Default7default
FNDA:14,_RNvXs9_NtNtNtCs9kcl9mimtFg_12orchestrator8database28___mock_MockDatabase_Database19___update_job_statusNtB5_12ExpectationsNtNtCsl82brYPINY5_4core7default7Default7default
FNDA:14,_RNvXs9_NtNtNtCs9kcl9mimtFg_12orchestrator8database28___mock_MockDatabase_Database44___update_external_id_and_status_and_metadataNtB5_12ExpectationsNtNtCsl82brYPINY5_4core7default7Default7default
FNDA:14,_RNvXs9_NtNtNtCs9kcl9mimtFg_12orchestrator8database28___mock_MockDatabase_Database17___update_metadataNtB5_12ExpectationsNtNtCsl82brYPINY5_4core7default7Default7default
FNDA:14,_RNvXs9_NtNtNtCs9kcl9mimtFg_12orchestrator8database28___mock_MockDatabase_Database40___get_latest_job_by_type_and_internal_idNtB5_12ExpectationsNtNtCsl82brYPINY5_4core7default7Default7default
FNDA:14,_RNvXs9_NtNtNtCs9kcl9mimtFg_12orchestrator8database28___mock_MockDatabase_Database28___get_jobs_without_successorNtB5_12ExpectationsNtNtCsl82brYPINY5_4core7default7Default7default
FNDA:4,_RNvMs2_NtCs9kcl9mimtFg_12orchestrator8databaseNtB5_12MockDatabase3new
FNDA:19,_RNvMs3_NtCs9kcl9mimtFg_12orchestrator8databaseNtB5_12MockDatabase17expect_create_job
FNDA:19,_RNvMs3_NtCs9kcl9mimtFg_12orchestrator8databaseNtB5_12MockDatabase38expect_get_job_by_internal_id_and_type
FNDA:2,_RNvMs3_NtCs9kcl9mimtFg_12orchestrator8databaseNtB5_12MockDatabase45expect_get_latest_job_by_type_and_internal_id
FNDA:2,_RNvMs3_NtCs9kcl9mimtFg_12orchestrator8databaseNtB5_12MockDatabase33expect_get_jobs_without_successor
FNDA:19,_RNvXs4_NtCs9kcl9mimtFg_12orchestrator8databaseNtB5_12MockDatabaseNtB5_8Database10create_job
FNDA:19,_RNCNvXs4_NtCs9kcl9mimtFg_12orchestrator8databaseNtB7_12MockDatabaseNtB7_8Database10create_job0B9_
FNDA:0,_RNvXs4_NtCs9kcl9mimtFg_12orchestrator8databaseNtB5_12MockDatabaseNtB5_8Database13get_job_by_id
FNDA:0,_RNCNvXs4_NtCs9kcl9mimtFg_12orchestrator8databaseNtB7_12MockDatabaseNtB7_8Database13get_job_by_id0B9_
FNDA:19,_RNvXs4_NtCs9kcl9mimtFg_12orchestrator8databaseNtB5_12MockDatabaseNtB5_8Database31get_job_by_internal_id_and_type
FNDA:19,_RNCNvXs4_NtCs9kcl9mimtFg_12orchestrator8databaseNtB7_12MockDatabaseNtB7_8Database31get_job_by_internal_id_and_type0B9_
FNDA:0,_RNvXs4_NtCs9kcl9mimtFg_12orchestrator8databaseNtB5_12MockDatabaseNtB5_8Database17update_job_status
FNDA:0,_RNCNvXs4_NtCs9kcl9mimtFg_12orchestrator8databaseNtB7_12MockDatabaseNtB7_8Database17update_job_status0B9_
FNDA:0,_RNvXs4_NtCs9kcl9mimtFg_12orchestrator8databaseNtB5_12MockDatabaseNtB5_8Database42update_external_id_and_status_and_metadata
FNDA:0,_RNCNvXs4_NtCs9kcl9mimtFg_12orchestrator8databaseNtB7_12MockDatabaseNtB7_8Database42update_external_id_and_status_and_metadata0B9_
FNDA:0,_RNvXs4_NtCs9kcl9mimtFg_12orchestrator8databaseNtB5_12MockDatabaseNtB5_8Database15update_metadata
FNDA:0,_RNCNvXs4_NtCs9kcl9mimtFg_12orchestrator8databaseNtB7_12MockDatabaseNtB7_8Database15update_metadata0B9_
FNDA:2,_RNvXs4_NtCs9kcl9mimtFg_12orchestrator8databaseNtB5_12MockDatabaseNtB5_8Database38get_latest_job_by_type_and_internal_id
FNDA:2,_RNCNvXs4_NtCs9kcl9mimtFg_12orchestrator8databaseNtB7_12MockDatabaseNtB7_8Database38get_latest_job_by_type_and_internal_id0B9_
FNDA:2,_RNvXs4_NtCs9kcl9mimtFg_12orchestrator8databaseNtB5_12MockDatabaseNtB5_8Database26get_jobs_without_successor
FNDA:2,_RNCNvXs4_NtCs9kcl9mimtFg_12orchestrator8databaseNtB7_12MockDatabaseNtB7_8Database26get_jobs_without_successor0B9_
FNF:1
FNH:1
DA:23,438
BRF:0
BRH:0
LF:1
LH:1
end_of_record
SF:/Users/ocdbytes/Karnot/madara-orchestrator/crates/orchestrator/src/database/mongodb/config.rs
FN:10,_RNvXNtNtNtCs9kcl9mimtFg_12orchestrator8database7mongodb6configNtB2_13MongoDbConfigNtB6_14DatabaseConfig12new_from_env
FNDA:0,_RNvXNtNtNtCs9kcl9mimtFg_12orchestrator8database7mongodb6configNtB2_13MongoDbConfigNtB6_14DatabaseConfig12new_from_env
FNF:1
FNH:0
DA:10,0
DA:11,0
DA:12,0
BRF:0
BRH:0
LF:3
LH:0
end_of_record
SF:/Users/ocdbytes/Karnot/madara-orchestrator/crates/orchestrator/src/database/mongodb/mod.rs
FN:28,_RNvMNtNtCs9kcl9mimtFg_12orchestrator8database7mongodbNtB2_7MongoDb3new
FN:28,_RNCNvMNtNtCs9kcl9mimtFg_12orchestrator8database7mongodbNtB4_7MongoDb3new0B8_
FN:43,_RNvMNtNtCs9kcl9mimtFg_12orchestrator8database7mongodbNtB2_7MongoDb18get_job_collection
FN:50,_RNvMNtNtCs9kcl9mimtFg_12orchestrator8database7mongodbNtB2_7MongoDb25update_job_optimistically
FN:50,_RNCNvMNtNtCs9kcl9mimtFg_12orchestrator8database7mongodbNtB4_7MongoDb25update_job_optimistically0B8_
FN:66,_RNvXs_NtNtCs9kcl9mimtFg_12orchestrator8database7mongodbNtB4_7MongoDbNtB6_8Database10create_job
FN:66,_RNCNvXs_NtNtCs9kcl9mimtFg_12orchestrator8database7mongodbNtB6_7MongoDbNtB8_8Database10create_job0Ba_
FN:71,_RNvXs_NtNtCs9kcl9mimtFg_12orchestrator8database7mongodbNtB4_7MongoDbNtB6_8Database13get_job_by_id
FN:71,_RNCNvXs_NtNtCs9kcl9mimtFg_12orchestrator8database7mongodbNtB6_7MongoDbNtB8_8Database13get_job_by_id0Ba_
FN:78,_RNvXs_NtNtCs9kcl9mimtFg_12orchestrator8database7mongodbNtB4_7MongoDbNtB6_8Database31get_job_by_internal_id_and_type
FN:78,_RNCNvXs_NtNtCs9kcl9mimtFg_12orchestrator8database7mongodbNtB6_7MongoDbNtB8_8Database31get_job_by_internal_id_and_type0Ba_
FN:86,_RNvXs_NtNtCs9kcl9mimtFg_12orchestrator8database7mongodbNtB4_7MongoDbNtB6_8Database17update_job_status
FN:86,_RNCNvXs_NtNtCs9kcl9mimtFg_12orchestrator8database7mongodbNtB6_7MongoDbNtB8_8Database17update_job_status0Ba_
FN:102,_RNvXs_NtNtCs9kcl9mimtFg_12orchestrator8database7mongodbNtB4_7MongoDbNtB6_8Database42update_external_id_and_status_and_metadata
FN:102,_RNCNvXs_NtNtCs9kcl9mimtFg_12orchestrator8database7mongodbNtB6_7MongoDbNtB8_8Database42update_external_id_and_status_and_metadata0Ba_
FN:114,_RNvXs_NtNtCs9kcl9mimtFg_12orchestrator8database7mongodbNtB4_7MongoDbNtB6_8Database15update_metadata
FN:114,_RNCNvXs_NtNtCs9kcl9mimtFg_12orchestrator8database7mongodbNtB6_7MongoDbNtB8_8Database15update_metadata0Ba_
FN:124,_RNvXs_NtNtCs9kcl9mimtFg_12orchestrator8database7mongodbNtB4_7MongoDbNtB6_8Database38get_latest_job_by_type_and_internal_id
FN:124,_RNCNvXs_NtNtCs9kcl9mimtFg_12orchestrator8database7mongodbNtB6_7MongoDbNtB8_8Database38get_latest_job_by_type_and_internal_id0Ba_
FN:162,_RNvXs_NtNtCs9kcl9mimtFg_12orchestrator8database7mongodbNtB4_7MongoDbNtB6_8Database26get_jobs_without_successor
FN:162,_RNCNvXs_NtNtCs9kcl9mimtFg_12orchestrator8database7mongodbNtB6_7MongoDbNtB8_8Database26get_jobs_without_successor0Ba_
FNDA:0,_RNvMNtNtCs9kcl9mimtFg_12orchestrator8database7mongodbNtB2_7MongoDb3new
FNDA:0,_RNCNvMNtNtCs9kcl9mimtFg_12orchestrator8database7mongodbNtB4_7MongoDb3new0B8_
FNDA:0,_RNvMNtNtCs9kcl9mimtFg_12orchestrator8database7mongodbNtB2_7MongoDb18get_job_collection
FNDA:0,_RNvMNtNtCs9kcl9mimtFg_12orchestrator8database7mongodbNtB2_7MongoDb25update_job_optimistically
FNDA:0,_RNCNvMNtNtCs9kcl9mimtFg_12orchestrator8database7mongodbNtB4_7MongoDb25update_job_optimistically0B8_
FNDA:0,_RNvXs_NtNtCs9kcl9mimtFg_12orchestrator8database7mongodbNtB4_7MongoDbNtB6_8Database10create_job
FNDA:0,_RNCNvXs_NtNtCs9kcl9mimtFg_12orchestrator8database7mongodbNtB6_7MongoDbNtB8_8Database10create_job0Ba_
FNDA:0,_RNvXs_NtNtCs9kcl9mimtFg_12orchestrator8database7mongodbNtB4_7MongoDbNtB6_8Database13get_job_by_id
FNDA:0,_RNCNvXs_NtNtCs9kcl9mimtFg_12orchestrator8database7mongodbNtB6_7MongoDbNtB8_8Database13get_job_by_id0Ba_
FNDA:0,_RNvXs_NtNtCs9kcl9mimtFg_12orchestrator8database7mongodbNtB4_7MongoDbNtB6_8Database31get_job_by_internal_id_and_type
FNDA:0,_RNCNvXs_NtNtCs9kcl9mimtFg_12orchestrator8database7mongodbNtB6_7MongoDbNtB8_8Database31get_job_by_internal_id_and_type0Ba_
FNDA:0,_RNvXs_NtNtCs9kcl9mimtFg_12orchestrator8database7mongodbNtB4_7MongoDbNtB6_8Database17update_job_status
FNDA:0,_RNCNvXs_NtNtCs9kcl9mimtFg_12orchestrator8database7mongodbNtB6_7MongoDbNtB8_8Database17update_job_status0Ba_
FNDA:0,_RNvXs_NtNtCs9kcl9mimtFg_12orchestrator8database7mongodbNtB4_7MongoDbNtB6_8Database42update_external_id_and_status_and_metadata
FNDA:0,_RNCNvXs_NtNtCs9kcl9mimtFg_12orchestrator8database7mongodbNtB6_7MongoDbNtB8_8Database42update_external_id_and_status_and_metadata0Ba_
FNDA:0,_RNvXs_NtNtCs9kcl9mimtFg_12orchestrator8database7mongodbNtB4_7MongoDbNtB6_8Database15update_metadata
FNDA:0,_RNCNvXs_NtNtCs9kcl9mimtFg_12orchestrator8database7mongodbNtB6_7MongoDbNtB8_8Database15update_metadata0Ba_
FNDA:0,_RNvXs_NtNtCs9kcl9mimtFg_12orchestrator8database7mongodbNtB4_7MongoDbNtB6_8Database38get_latest_job_by_type_and_internal_id
FNDA:0,_RNCNvXs_NtNtCs9kcl9mimtFg_12orchestrator8database7mongodbNtB6_7MongoDbNtB8_8Database38get_latest_job_by_type_and_internal_id0Ba_
FNDA:0,_RNvXs_NtNtCs9kcl9mimtFg_12orchestrator8database7mongodbNtB4_7MongoDbNtB6_8Database26get_jobs_without_successor
FNDA:0,_RNCNvXs_NtNtCs9kcl9mimtFg_12orchestrator8database7mongodbNtB6_7MongoDbNtB8_8Database26get_jobs_without_successor0Ba_
FNF:13
FNH:0
DA:28,0
DA:29,0
DA:30,0
DA:31,0
DA:32,0
DA:33,0
DA:34,0
DA:35,0
DA:36,0
DA:37,0
DA:38,0
DA:39,0
DA:40,0
DA:41,0
DA:43,0
DA:44,0
DA:45,0
DA:50,0
DA:51,0
DA:52,0
DA:53,0
DA:54,0
DA:55,0
DA:56,0
DA:57,0
DA:58,0
DA:59,0
DA:60,0
DA:61,0
DA:66,0
DA:67,0
DA:68,0
DA:69,0
DA:71,0
DA:72,0
DA:73,0
DA:74,0
DA:75,0
DA:76,0
DA:78,0
DA:79,0
DA:80,0
DA:81,0
DA:82,0
DA:83,0
DA:84,0
DA:86,0
DA:87,0
DA:88,0
DA:89,0
DA:90,0
DA:91,0
DA:92,0
DA:93,0
DA:94,0
DA:102,0
DA:103,0
DA:104,0
DA:105,0
DA:106,0
DA:107,0
DA:108,0
DA:109,0
DA:110,0
DA:111,0
DA:112,0
DA:114,0
DA:115,0
DA:116,0
DA:117,0
DA:118,0
DA:119,0
DA:120,0
DA:121,0
DA:122,0
DA:124,0
DA:125,0
DA:126,0
DA:127,0
DA:128,0
DA:129,0
DA:130,0
DA:131,0
DA:132,0
DA:133,0
DA:134,0
DA:162,0
DA:163,0
DA:164,0
DA:165,0
DA:166,0
DA:167,0
DA:168,0
DA:169,0
DA:170,0
DA:171,0
DA:172,0
DA:173,0
DA:174,0
DA:175,0
DA:176,0
DA:177,0
DA:178,0
DA:179,0
DA:180,0
DA:181,0
DA:182,0
DA:183,0
DA:184,0
DA:185,0
DA:186,0
DA:187,0
DA:188,0
DA:189,0
DA:190,0
DA:191,0
DA:192,0
DA:193,0
DA:194,0
DA:195,0
DA:196,0
DA:197,0
DA:198,0
DA:199,0
DA:200,0
DA:201,0
DA:202,0
DA:203,0
DA:204,0
DA:205,0
DA:206,0
DA:207,0
DA:208,0
DA:209,0
DA:210,0
DA:211,0
DA:212,0
DA:213,0
DA:214,0
DA:215,0
DA:216,0
DA:217,0
DA:218,0
DA:219,0
DA:220,0
DA:221,0
DA:222,0
DA:223,0
DA:224,0
DA:225,0
DA:226,0
DA:227,0
DA:228,0
DA:229,0
DA:230,0
DA:231,0
DA:232,0
DA:233,0
DA:234,0
DA:235,0
DA:236,0
DA:237,0
DA:238,0
DA:239,0
DA:240,0
DA:241,0
DA:242,0
DA:243,0
DA:244,0
DA:245,0
DA:246,0
DA:247,0
DA:248,0
DA:249,0
DA:250,0
DA:251,0
DA:252,0
DA:253,0
DA:254,0
DA:255,0
BRF:0
BRH:0
LF:182
LH:0
end_of_record
SF:/Users/ocdbytes/Karnot/madara-orchestrator/crates/orchestrator/src/jobs/da_job/mod.rs
FN:420,_RNvNtNtNtCs9kcl9mimtFg_12orchestrator4jobs6da_job5tests27read_state_update_from_file
FN:435,_RNvNtNtNtCs9kcl9mimtFg_12orchestrator4jobs6da_job5tests18get_nonce_attached
FN:459,_RNvNtNtNtCs9kcl9mimtFg_12orchestrator4jobs6da_job5tests20vec_u8_to_hex_string
FN:116,_RNvXs6_NtNtCs9kcl9mimtFg_12orchestrator4jobs6da_jobNtB5_5DaJobNtB7_3Job20max_process_attempts
FN:120,_RNvXs6_NtNtCs9kcl9mimtFg_12orchestrator4jobs6da_jobNtB5_5DaJobNtB7_3Job25max_verification_attempts
FN:124,_RNvXs6_NtNtCs9kcl9mimtFg_12orchestrator4jobs6da_jobNtB5_5DaJobNtB7_3Job34verification_polling_delay_seconds
FN:334,_RNvNtNtNtCs9kcl9mimtFg_12orchestrator4jobs6da_job5tests13da_word_works
FN:400,_RNvNtNtNtCs9kcl9mimtFg_12orchestrator4jobs6da_job5tests23test_fft_transformation
FN:429,_RINvXNvXNvNtNtNtCs9kcl9mimtFg_12orchestrator4jobs6da_job5testss_1__NtB8_12NonceAddressNtNtCs6LpWrqowvw4_5serde2de11Deserialize11deserializeNtB3_14___FieldVisitorNtB1o_7Visitor9visit_strNtNtCs7GeGMEtFxdc_10serde_json5error5ErrorEBe_
FN:429,_RNvXs0_NvXNvNtNtNtCs9kcl9mimtFg_12orchestrator4jobs6da_job5testss_1__NtBa_12NonceAddressNtNtCs6LpWrqowvw4_5serde2de11Deserialize11deserializeNtB5_9___VisitorNtB1q_7Visitor9expecting
FN:131,_RNCNvNtNtCs9kcl9mimtFg_12orchestrator4jobs6da_job18fft_transformation0B7_
FN:216,_RNCNCNvNtNtCs9kcl9mimtFg_12orchestrator4jobs6da_job25state_update_to_blob_data00B9_
FN:218,_RNCNCNvNtNtCs9kcl9mimtFg_12orchestrator4jobs6da_job25state_update_to_blob_data0s_0B9_
FN:220,_RNCNCNvNtNtCs9kcl9mimtFg_12orchestrator4jobs6da_job25state_update_to_blob_data0s0_0B9_
FN:222,_RNCNCNvNtNtCs9kcl9mimtFg_12orchestrator4jobs6da_job25state_update_to_blob_data0s1_0B9_
FN:224,_RNCNCNvNtNtCs9kcl9mimtFg_12orchestrator4jobs6da_job25state_update_to_blob_data0s2_0B9_
FN:460,_RNCNvNtNtNtCs9kcl9mimtFg_12orchestrator4jobs6da_job5tests20vec_u8_to_hex_string0B9_
FN:400,_RNvNtNtNtNtCs9kcl9mimtFg_12orchestrator4jobs6da_job5tests23test_fft_transformations_6case_1
FN:400,_RNvNtNtNtNtCs9kcl9mimtFg_12orchestrator4jobs6da_job5tests23test_fft_transformations_6case_2
FN:400,_RNvNtNtNtNtCs9kcl9mimtFg_12orchestrator4jobs6da_job5tests23test_fft_transformations_6case_3
FN:400,_RNvNtNtNtNtCs9kcl9mimtFg_12orchestrator4jobs6da_job5tests23test_fft_transformations_6case_4
FN:400,_RNvNtNtNtNtCs9kcl9mimtFg_12orchestrator4jobs6da_job5tests23test_fft_transformations_6case_5
FN:400,_RNvNtNtNtNtCs9kcl9mimtFg_12orchestrator4jobs6da_job5tests23test_fft_transformations_6case_6
FN:400,_RNvNtNtNtNtCs9kcl9mimtFg_12orchestrator4jobs6da_job5tests23test_fft_transformations_6case_7
FN:429,_RNvXNvXNvNtNtNtCs9kcl9mimtFg_12orchestrator4jobs6da_job5testss_1__NtB7_12NonceAddressNtNtCs6LpWrqowvw4_5serde2de11Deserialize11deserializeNtB2_14___FieldVisitorNtB1n_7Visitor9expecting
FN:429,_RINvXNvXNvNtNtNtCs9kcl9mimtFg_12orchestrator4jobs6da_job5testss_1__NtB8_12NonceAddressNtNtCs6LpWrqowvw4_5serde2de11Deserialize11deserializeNtB3_14___FieldVisitorNtB1o_7Visitor9visit_u64pEBe_
FN:429,_RINvXNvXNvNtNtNtCs9kcl9mimtFg_12orchestrator4jobs6da_job5testss_1__NtB8_12NonceAddressNtNtCs6LpWrqowvw4_5serde2de11Deserialize11deserializeNtB3_14___FieldVisitorNtB1o_7Visitor11visit_bytespEBe_
FN:129,_RNvNtNtCs9kcl9mimtFg_12orchestrator4jobs6da_job18fft_transformation
FN:148,_RNvNtNtCs9kcl9mimtFg_12orchestrator4jobs6da_job18convert_to_biguint
FN:167,_RNvNtNtCs9kcl9mimtFg_12orchestrator4jobs6da_job13data_to_blobs
FN:179,_RNCNvNtNtCs9kcl9mimtFg_12orchestrator4jobs6da_job13data_to_blobs0B7_
FN:199,_RNvNtNtCs9kcl9mimtFg_12orchestrator4jobs6da_job25state_update_to_blob_data
FN:203,_RNCNvNtNtCs9kcl9mimtFg_12orchestrator4jobs6da_job25state_update_to_blob_data0B7_
FN:228,_RNCNCNvNtNtCs9kcl9mimtFg_12orchestrator4jobs6da_job25state_update_to_blob_data0s3_0B9_
FN:281,_RNvNtNtCs9kcl9mimtFg_12orchestrator4jobs6da_job7da_word
FN:452,_RNCNvNtNtNtCs9kcl9mimtFg_12orchestrator4jobs6da_job5tests18get_nonce_attached0B9_
FN:51,_RNvXs6_NtNtCs9kcl9mimtFg_12orchestrator4jobs6da_jobNtB5_5DaJobNtB7_3Job10create_job
FN:51,_RNCNvXs6_NtNtCs9kcl9mimtFg_12orchestrator4jobs6da_jobNtB7_5DaJobNtB9_3Job10create_job0Bb_
FN:63,_RNvXs6_NtNtCs9kcl9mimtFg_12orchestrator4jobs6da_jobNtB5_5DaJobNtB7_3Job11process_job
FN:63,_RNCNvXs6_NtNtCs9kcl9mimtFg_12orchestrator4jobs6da_jobNtB7_5DaJobNtB9_3Job11process_job0Bb_
FN:112,_RNvXs6_NtNtCs9kcl9mimtFg_12orchestrator4jobs6da_jobNtB5_5DaJobNtB7_3Job10verify_job
FN:112,_RNCNvXs6_NtNtCs9kcl9mimtFg_12orchestrator4jobs6da_jobNtB7_5DaJobNtB9_3Job10verify_job0Bb_
FN:351,_RNCNvNtNtNtCs9kcl9mimtFg_12orchestrator4jobs6da_job5tests30test_state_update_to_blob_data0B9_
FN:351,_RNvNtNtNtNtCs9kcl9mimtFg_12orchestrator4jobs6da_job5tests30test_state_update_to_blob_datas_6case_1
FN:351,_RNvNtNtNtNtCs9kcl9mimtFg_12orchestrator4jobs6da_job5tests30test_state_update_to_blob_datas_6case_2
FN:351,_RNvNtNtNtNtCs9kcl9mimtFg_12orchestrator4jobs6da_job5tests30test_state_update_to_blob_datas_6case_3
FN:429,_RINvXs_NvXNvNtNtNtCs9kcl9mimtFg_12orchestrator4jobs6da_job5testss_1__NtBa_12NonceAddressNtNtCs6LpWrqowvw4_5serde2de11Deserialize11deserializeNtB5_7___FieldB1o_11deserializeINtNtCs7GeGMEtFxdc_10serde_json2de6MapKeyNtNtB2P_4read7StrReadEEBg_
FN:429,_RINvXs0_NvXNvNtNtNtCs9kcl9mimtFg_12orchestrator4jobs6da_job5testss_1__NtBb_12NonceAddressNtNtCs6LpWrqowvw4_5serde2de11Deserialize11deserializeNtB6_9___VisitorNtB1r_7Visitor9visit_seqINtNtCs7GeGMEtFxdc_10serde_json2de9SeqAccessNtNtB2Z_4read7StrReadEEBh_
FN:429,_RINvXs0_NvXNvNtNtNtCs9kcl9mimtFg_12orchestrator4jobs6da_job5testss_1__NtBb_12NonceAddressNtNtCs6LpWrqowvw4_5serde2de11Deserialize11deserializeNtB6_9___VisitorNtB1r_7Visitor9visit_mapINtNtCs7GeGMEtFxdc_10serde_json2de9MapAccessNtNtB2Z_4read7StrReadEEBh_
FN:334,_RNvNtNtNtNtCs9kcl9mimtFg_12orchestrator4jobs6da_job5tests13da_word_workss_6case_1
FN:334,_RNvNtNtNtNtCs9kcl9mimtFg_12orchestrator4jobs6da_job5tests13da_word_workss_6case_2
FN:334,_RNvNtNtNtNtCs9kcl9mimtFg_12orchestrator4jobs6da_job5tests13da_word_workss_6case_3
FN:334,_RNvNtNtNtNtCs9kcl9mimtFg_12orchestrator4jobs6da_job5tests13da_word_workss_6case_4
FNDA:3,_RNvNtNtNtCs9kcl9mimtFg_12orchestrator4jobs6da_job5tests27read_state_update_from_file
FNDA:3,_RNvNtNtNtCs9kcl9mimtFg_12orchestrator4jobs6da_job5tests18get_nonce_attached
FNDA:278,_RNvNtNtNtCs9kcl9mimtFg_12orchestrator4jobs6da_job5tests20vec_u8_to_hex_string
FNDA:0,_RNvXs6_NtNtCs9kcl9mimtFg_12orchestrator4jobs6da_jobNtB5_5DaJobNtB7_3Job20max_process_attempts
FNDA:0,_RNvXs6_NtNtCs9kcl9mimtFg_12orchestrator4jobs6da_jobNtB5_5DaJobNtB7_3Job25max_verification_attempts
FNDA:0,_RNvXs6_NtNtCs9kcl9mimtFg_12orchestrator4jobs6da_jobNtB5_5DaJobNtB7_3Job34verification_polling_delay_seconds
FNDA:4,_RNvNtNtNtCs9kcl9mimtFg_12orchestrator4jobs6da_job5tests13da_word_works
FNDA:7,_RNvNtNtNtCs9kcl9mimtFg_12orchestrator4jobs6da_job5tests23test_fft_transformation
FNDA:556,_RINvXNvXNvNtNtNtCs9kcl9mimtFg_12orchestrator4jobs6da_job5testss_1__NtB8_12NonceAddressNtNtCs6LpWrqowvw4_5serde2de11Deserialize11deserializeNtB3_14___FieldVisitorNtB1o_7Visitor9visit_strNtNtCs7GeGMEtFxdc_10serde_json5error5ErrorEBe_
FNDA:0,_RNvXs0_NvXNvNtNtNtCs9kcl9mimtFg_12orchestrator4jobs6da_job5testss_1__NtBa_12NonceAddressNtNtCs6LpWrqowvw4_5serde2de11Deserialize11deserializeNtB5_9___VisitorNtB1q_7Visitor9expecting
FNDA:32768,_RNCNvNtNtCs9kcl9mimtFg_12orchestrator4jobs6da_job18fft_transformation0B7_
FNDA:1073,_RNCNCNvNtNtCs9kcl9mimtFg_12orchestrator4jobs6da_job25state_update_to_blob_data00B9_
FNDA:4,_RNCNCNvNtNtCs9kcl9mimtFg_12orchestrator4jobs6da_job25state_update_to_blob_data0s_0B9_
FNDA:20,_RNCNCNvNtNtCs9kcl9mimtFg_12orchestrator4jobs6da_job25state_update_to_blob_data0s0_0B9_
FNDA:2,_RNCNCNvNtNtCs9kcl9mimtFg_12orchestrator4jobs6da_job25state_update_to_blob_data0s1_0B9_
FNDA:792,_RNCNCNvNtNtCs9kcl9mimtFg_12orchestrator4jobs6da_job25state_update_to_blob_data0s2_0B9_
FNDA:8896,_RNCNvNtNtNtCs9kcl9mimtFg_12orchestrator4jobs6da_job5tests20vec_u8_to_hex_string0B9_
FNDA:1,_RNvNtNtNtNtCs9kcl9mimtFg_12orchestrator4jobs6da_job5tests23test_fft_transformations_6case_1
FNDA:1,_RNvNtNtNtNtCs9kcl9mimtFg_12orchestrator4jobs6da_job5tests23test_fft_transformations_6case_2
FNDA:1,_RNvNtNtNtNtCs9kcl9mimtFg_12orchestrator4jobs6da_job5tests23test_fft_transformations_6case_3
FNDA:1,_RNvNtNtNtNtCs9kcl9mimtFg_12orchestrator4jobs6da_job5tests23test_fft_transformations_6case_4
FNDA:1,_RNvNtNtNtNtCs9kcl9mimtFg_12orchestrator4jobs6da_job5tests23test_fft_transformations_6case_5
FNDA:1,_RNvNtNtNtNtCs9kcl9mimtFg_12orchestrator4jobs6da_job5tests23test_fft_transformations_6case_6
FNDA:1,_RNvNtNtNtNtCs9kcl9mimtFg_12orchestrator4jobs6da_job5tests23test_fft_transformations_6case_7
FNDA:0,_RNvXNvXNvNtNtNtCs9kcl9mimtFg_12orchestrator4jobs6da_job5testss_1__NtB7_12NonceAddressNtNtCs6LpWrqowvw4_5serde2de11Deserialize11deserializeNtB2_14___FieldVisitorNtB1n_7Visitor9expecting
FNDA:0,_RINvXNvXNvNtNtNtCs9kcl9mimtFg_12orchestrator4jobs6da_job5testss_1__NtB8_12NonceAddressNtNtCs6LpWrqowvw4_5serde2de11Deserialize11deserializeNtB3_14___FieldVisitorNtB1o_7Visitor9visit_u64pEBe_
FNDA:0,_RINvXNvXNvNtNtNtCs9kcl9mimtFg_12orchestrator4jobs6da_job5testss_1__NtB8_12NonceAddressNtNtCs6LpWrqowvw4_5serde2de11Deserialize11deserializeNtB3_14___FieldVisitorNtB1o_7Visitor11visit_bytespEBe_
FNDA:8,_RNvNtNtCs9kcl9mimtFg_12orchestrator4jobs6da_job18fft_transformation
FNDA:4,_RNvNtNtCs9kcl9mimtFg_12orchestrator4jobs6da_job18convert_to_biguint
FNDA:1,_RNvNtNtCs9kcl9mimtFg_12orchestrator4jobs6da_job13data_to_blobs
FNDA:4096,_RNCNvNtNtCs9kcl9mimtFg_12orchestrator4jobs6da_job13data_to_blobs0B7_
FNDA:4,_RNvNtNtCs9kcl9mimtFg_12orchestrator4jobs6da_job25state_update_to_blob_data
FNDA:4,_RNCNvNtNtCs9kcl9mimtFg_12orchestrator4jobs6da_job25state_update_to_blob_data0B7_
FNDA:1053,_RNCNCNvNtNtCs9kcl9mimtFg_12orchestrator4jobs6da_job25state_update_to_blob_data0s3_0B9_
FNDA:1077,_RNvNtNtCs9kcl9mimtFg_12orchestrator4jobs6da_job7da_word
FNDA:278,_RNCNvNtNtNtCs9kcl9mimtFg_12orchestrator4jobs6da_job5tests18get_nonce_attached0B9_
FNDA:1,_RNvXs6_NtNtCs9kcl9mimtFg_12orchestrator4jobs6da_jobNtB5_5DaJobNtB7_3Job10create_job
FNDA:1,_RNCNvXs6_NtNtCs9kcl9mimtFg_12orchestrator4jobs6da_jobNtB7_5DaJobNtB9_3Job10create_job0Bb_
FNDA:1,_RNvXs6_NtNtCs9kcl9mimtFg_12orchestrator4jobs6da_jobNtB5_5DaJobNtB7_3Job11process_job
FNDA:1,_RNCNvXs6_NtNtCs9kcl9mimtFg_12orchestrator4jobs6da_jobNtB7_5DaJobNtB9_3Job11process_job0Bb_
FNDA:1,_RNvXs6_NtNtCs9kcl9mimtFg_12orchestrator4jobs6da_jobNtB5_5DaJobNtB7_3Job10verify_job
FNDA:1,_RNCNvXs6_NtNtCs9kcl9mimtFg_12orchestrator4jobs6da_jobNtB7_5DaJobNtB9_3Job10verify_job0Bb_
FNDA:3,_RNCNvNtNtNtCs9kcl9mimtFg_12orchestrator4jobs6da_job5tests30test_state_update_to_blob_data0B9_
FNDA:1,_RNvNtNtNtNtCs9kcl9mimtFg_12orchestrator4jobs6da_job5tests30test_state_update_to_blob_datas_6case_1
FNDA:1,_RNvNtNtNtNtCs9kcl9mimtFg_12orchestrator4jobs6da_job5tests30test_state_update_to_blob_datas_6case_2
FNDA:1,_RNvNtNtNtNtCs9kcl9mimtFg_12orchestrator4jobs6da_job5tests30test_state_update_to_blob_datas_6case_3
FNDA:556,_RINvXs_NvXNvNtNtNtCs9kcl9mimtFg_12orchestrator4jobs6da_job5testss_1__NtBa_12NonceAddressNtNtCs6LpWrqowvw4_5serde2de11Deserialize11deserializeNtB5_7___FieldB1o_11deserializeINtNtCs7GeGMEtFxdc_10serde_json2de6MapKeyNtNtB2P_4read7StrReadEEBg_
FNDA:0,_RINvXs0_NvXNvNtNtNtCs9kcl9mimtFg_12orchestrator4jobs6da_job5testss_1__NtBb_12NonceAddressNtNtCs6LpWrqowvw4_5serde2de11Deserialize11deserializeNtB6_9___VisitorNtB1r_7Visitor9visit_seqINtNtCs7GeGMEtFxdc_10serde_json2de9SeqAccessNtNtB2Z_4read7StrReadEEBh_
FNDA:278,_RINvXs0_NvXNvNtNtNtCs9kcl9mimtFg_12orchestrator4jobs6da_job5testss_1__NtBb_12NonceAddressNtNtCs6LpWrqowvw4_5serde2de11Deserialize11deserializeNtB6_9___VisitorNtB1r_7Visitor9visit_mapINtNtCs7GeGMEtFxdc_10serde_json2de9MapAccessNtNtB2Z_4read7StrReadEEBh_
FNDA:1,_RNvNtNtNtNtCs9kcl9mimtFg_12orchestrator4jobs6da_job5tests13da_word_workss_6case_1
FNDA:1,_RNvNtNtNtNtCs9kcl9mimtFg_12orchestrator4jobs6da_job5tests13da_word_workss_6case_2
FNDA:1,_RNvNtNtNtNtCs9kcl9mimtFg_12orchestrator4jobs6da_job5tests13da_word_workss_6case_3
FNDA:1,_RNvNtNtNtNtCs9kcl9mimtFg_12orchestrator4jobs6da_job5tests13da_word_workss_6case_4
FNF:29
FNH:26
DA:51,1
DA:52,1
DA:53,1
DA:54,1
DA:55,1
DA:56,1
DA:57,1
DA:58,1
DA:59,1
DA:60,1
DA:61,1
DA:63,1
DA:64,1
DA:65,5
DA:66,1
DA:67,1
DA:68,1
DA:69,1
DA:70,1
DA:71,0
DA:72,0
DA:73,0
DA:74,0
DA:75,1
DA:76,1
DA:77,1
DA:78,1
DA:79,1
DA:80,1
DA:81,1
DA:82,1
DA:83,1
DA:84,1
DA:85,1
DA:86,1
DA:87,1
DA:88,1
DA:89,1
DA:90,1
DA:91,1
DA:92,1
DA:93,1
DA:94,1
DA:95,1
DA:96,1
DA:97,0
DA:98,0
DA:99,0
DA:100,0
DA:101,0
DA:102,0
DA:103,1
DA:104,1
DA:105,1
DA:106,1
DA:107,1
DA:108,1
DA:109,1
DA:110,1
DA:112,1
DA:113,1
DA:114,1
DA:116,0
DA:117,0
DA:118,0
DA:120,0
DA:121,0
DA:122,0
DA:124,0
DA:125,0
DA:126,0
DA:129,8
DA:130,8
DA:131,32768
DA:132,32768
DA:133,32768
DA:134,32768
DA:135,32768
DA:136,8
DA:137,8
DA:138,8
DA:140,32768
DA:141,134217728
DA:142,134217728
DA:143,134217728
DA:145,8
DA:146,8
DA:148,4
DA:149,4
DA:150,4
DA:153,10998
DA:154,10998
DA:155,10998
DA:156,10998
DA:157,10998
DA:158,10998
DA:159,10998
DA:160,10998
DA:161,10998
DA:162,10998
DA:164,4
DA:165,4
DA:167,1
DA:168,1
DA:169,1
DA:170,0
DA:171,0
DA:172,0
DA:173,0
DA:174,1
DA:175,1
DA:176,1
DA:177,1
DA:178,1
DA:179,4096
DA:182,1
DA:183,0
DA:184,0
DA:185,0
DA:188,1
DA:189,1
DA:190,1
DA:191,1
DA:192,1
DA:193,1
DA:194,1
DA:196,1
DA:197,1
DA:199,4
DA:200,4
DA:201,4
DA:202,4
DA:203,4
DA:204,4
DA:205,4
DA:206,4
DA:207,4
DA:208,4
DA:209,4
DA:210,4
DA:211,4
DA:212,4
DA:213,4
DA:214,4
DA:215,4
DA:216,1073
DA:217,4
DA:218,4
DA:219,4
DA:220,20
DA:221,4
DA:222,4
DA:223,4
DA:224,792
DA:227,1077
DA:228,1073
DA:229,1073
DA:230,1073
DA:231,1073
DA:232,1073
DA:233,1073
DA:234,1073
DA:235,1073
DA:236,290
DA:238,278
DA:239,278
DA:240,0
DA:241,0
DA:242,0
DA:245,795
DA:246,1073
DA:247,1073
DA:248,1073
DA:249,1073
DA:250,1073
DA:251,1073
DA:252,1073
DA:253,3
DA:254,1070
DA:255,1070
DA:256,1070
DA:258,1070
DA:259,22
DA:260,1048
DA:262,5472
DA:263,4402
DA:264,4402
DA:265,4402
DA:268,4
DA:270,8
DA:271,4
DA:272,4
DA:273,4
DA:275,4
DA:276,4
DA:281,1077
DA:282,1077
DA:283,1077
DA:284,1077
DA:285,1077
DA:286,1077
DA:287,23
DA:289,1054
DA:293,1077
DA:294,1073
DA:295,1073
DA:296,1073
DA:297,1073
DA:298,1073
DA:299,1073
DA:300,4
DA:301,4
DA:302,4
DA:304,1077
DA:305,1077
DA:306,1077
DA:307,1077
DA:308,1077
DA:309,1077
DA:310,1077
DA:311,1077
DA:312,1077
DA:313,1077
DA:314,1077
DA:334,4
DA:351,3
DA:400,7
DA:420,3
DA:422,3
DA:423,3
DA:424,3
DA:425,3
DA:426,3
DA:427,3
DA:429,834
DA:435,3
DA:436,3
DA:437,3
DA:438,3
DA:439,3
DA:440,3
DA:441,3
DA:444,281
DA:445,278
DA:446,278
DA:447,278
DA:448,278
DA:449,278
DA:450,278
DA:451,278
DA:452,278
DA:453,278
DA:454,278
DA:455,278
DA:456,278
DA:457,3
DA:459,278
DA:460,8896
DA:461,278
DA:462,278
DA:463,278
DA:464,278
DA:465,278
DA:466,278
DA:467,0
DA:469,278
DA:471,278
BRF:0
BRH:0
LF:280
LH:260
end_of_record
SF:/Users/ocdbytes/Karnot/madara-orchestrator/crates/orchestrator/src/jobs/mod.rs
FN:175,_RNvNtCs9kcl9mimtFg_12orchestrator4jobs15get_job_handler
FN:196,_RNvNtCs9kcl9mimtFg_12orchestrator4jobs25increment_key_in_metadata
FN:207,_RNvNtCs9kcl9mimtFg_12orchestrator4jobs21get_u64_from_metadata
FN:219,_RNvNtNtNtCs9kcl9mimtFg_12orchestrator4jobs5tests32test_incremement_key_in_metadatas_18key_does_not_exist
FN:227,_RNvNtNtNtCs9kcl9mimtFg_12orchestrator4jobs5tests32test_incremement_key_in_metadatas_29key_exists_with_numeric_value
FN:236,_RNvNtNtNtCs9kcl9mimtFg_12orchestrator4jobs5tests32test_incremement_key_in_metadatas_33key_exists_with_non_numeric_value
FN:245,_RNvNtNtNtCs9kcl9mimtFg_12orchestrator4jobs5tests32test_incremement_key_in_metadatas_29key_exists_with_max_u64_value
FN:54,_RNvNtCs9kcl9mimtFg_12orchestrator4jobs10create_job
FN:54,_RNCNvNtCs9kcl9mimtFg_12orchestrator4jobs10create_job0B5_
FN:76,_RNvNtCs9kcl9mimtFg_12orchestrator4jobs11process_job
FN:76,_RNCNvNtCs9kcl9mimtFg_12orchestrator4jobs11process_job0B5_
FN:115,_RNvNtCs9kcl9mimtFg_12orchestrator4jobs10verify_job
FN:115,_RNCNvNtCs9kcl9mimtFg_12orchestrator4jobs10verify_job0B5_
FN:184,_RNvNtCs9kcl9mimtFg_12orchestrator4jobs7get_job
FN:184,_RNCNvNtCs9kcl9mimtFg_12orchestrator4jobs7get_job0B5_
FN:258,_RNvNtNtNtCs9kcl9mimtFg_12orchestrator4jobs5tests26test_get_u64_from_metadatas_31key_exists_with_valid_u64_value
FN:266,_RNvNtNtNtCs9kcl9mimtFg_12orchestrator4jobs5tests26test_get_u64_from_metadatas_29key_exists_with_invalid_value
FN:274,_RNvNtNtNtCs9kcl9mimtFg_12orchestrator4jobs5tests26test_get_u64_from_metadatas_18key_does_not_exist
FNDA:19,_RNvNtCs9kcl9mimtFg_12orchestrator4jobs15get_job_handler
FNDA:4,_RNvNtCs9kcl9mimtFg_12orchestrator4jobs25increment_key_in_metadata
FNDA:7,_RNvNtCs9kcl9mimtFg_12orchestrator4jobs21get_u64_from_metadata
FNDA:1,_RNvNtNtNtCs9kcl9mimtFg_12orchestrator4jobs5tests32test_incremement_key_in_metadatas_18key_does_not_exist
FNDA:1,_RNvNtNtNtCs9kcl9mimtFg_12orchestrator4jobs5tests32test_incremement_key_in_metadatas_29key_exists_with_numeric_value
FNDA:1,_RNvNtNtNtCs9kcl9mimtFg_12orchestrator4jobs5tests32test_incremement_key_in_metadatas_33key_exists_with_non_numeric_value
FNDA:1,_RNvNtNtNtCs9kcl9mimtFg_12orchestrator4jobs5tests32test_incremement_key_in_metadatas_29key_exists_with_max_u64_value
FNDA:19,_RNvNtCs9kcl9mimtFg_12orchestrator4jobs10create_job
FNDA:19,_RNCNvNtCs9kcl9mimtFg_12orchestrator4jobs10create_job0B5_
FNDA:0,_RNvNtCs9kcl9mimtFg_12orchestrator4jobs11process_job
FNDA:0,_RNCNvNtCs9kcl9mimtFg_12orchestrator4jobs11process_job0B5_
FNDA:0,_RNvNtCs9kcl9mimtFg_12orchestrator4jobs10verify_job
FNDA:0,_RNCNvNtCs9kcl9mimtFg_12orchestrator4jobs10verify_job0B5_
FNDA:0,_RNvNtCs9kcl9mimtFg_12orchestrator4jobs7get_job
FNDA:0,_RNCNvNtCs9kcl9mimtFg_12orchestrator4jobs7get_job0B5_
FNDA:1,_RNvNtNtNtCs9kcl9mimtFg_12orchestrator4jobs5tests26test_get_u64_from_metadatas_31key_exists_with_valid_u64_value
FNDA:1,_RNvNtNtNtCs9kcl9mimtFg_12orchestrator4jobs5tests26test_get_u64_from_metadatas_29key_exists_with_invalid_value
FNDA:1,_RNvNtNtNtCs9kcl9mimtFg_12orchestrator4jobs5tests26test_get_u64_from_metadatas_18key_does_not_exist
FNF:18
FNH:12
DA:54,19
DA:55,19
DA:56,19
DA:57,19
DA:58,0
DA:59,0
DA:60,0
DA:61,0
DA:62,0
DA:63,0
DA:64,19
DA:65,19
DA:66,19
DA:67,19
DA:68,19
DA:70,19
DA:71,19
DA:72,19
DA:76,0
DA:77,0
DA:78,0
DA:80,0
DA:84,0
DA:87,0
DA:88,0
DA:94,0
DA:96,0
DA:97,0
DA:99,0
DA:100,0
DA:101,0
DA:102,0
DA:103,0
DA:105,0
DA:106,0
DA:108,0
DA:109,0
DA:115,0
DA:116,0
DA:117,0
DA:119,0
DA:121,0
DA:124,0
DA:125,0
DA:129,0
DA:130,0
DA:132,0
DA:134,0
DA:137,0
DA:140,0
DA:141,0
DA:142,0
DA:143,0
DA:144,0
DA:145,0
DA:147,0
DA:148,0
DA:149,0
DA:150,0
DA:151,0
DA:154,0
DA:155,0
DA:156,0
DA:158,0
DA:159,0
DA:160,0
DA:161,0
DA:162,0
DA:163,0
DA:164,0
DA:165,0
DA:166,0
DA:167,0
DA:168,0
DA:172,0
DA:173,0
DA:175,19
DA:176,19
DA:177,0
DA:178,10
DA:179,9
DA:180,0
DA:182,19
DA:184,0
DA:185,0
DA:186,0
DA:187,0
DA:188,0
DA:190,0
DA:191,0
DA:194,0
DA:196,4
DA:197,4
DA:198,4
DA:199,3
DA:200,3
DA:201,1
DA:202,2
DA:203,2
DA:204,2
DA:205,4
DA:207,7
DA:208,7
DA:209,7
DA:219,1
DA:220,1
DA:221,1
DA:222,1
DA:223,1
DA:224,1
DA:227,1
DA:228,1
DA:229,1
DA:230,1
DA:231,1
DA:232,1
DA:233,1
DA:236,1
DA:237,1
DA:238,1
DA:239,1
DA:240,1
DA:241,1
DA:242,1
DA:245,1
DA:246,1
DA:247,1
DA:248,1
DA:249,1
DA:250,1
DA:251,1
DA:258,1
DA:259,1
DA:260,1
DA:261,1
DA:262,1
DA:263,1
DA:266,1
DA:267,1
DA:268,1
DA:269,1
DA:270,1
DA:271,1
DA:274,1
DA:275,1
DA:276,1
DA:277,1
DA:278,1
BRF:0
BRH:0
LF:152
LH:75
end_of_record
SF:/Users/ocdbytes/Karnot/madara-orchestrator/crates/orchestrator/src/jobs/proving_job/mod.rs
FN:28,_RNvXNtNtCs9kcl9mimtFg_12orchestrator4jobs11proving_jobNtB2_10ProvingJobNtB4_3Job10create_job
FN:28,_RNCNvXNtNtCs9kcl9mimtFg_12orchestrator4jobs11proving_jobNtB4_10ProvingJobNtB6_3Job10create_job0B8_
FN:43,_RNvXNtNtCs9kcl9mimtFg_12orchestrator4jobs11proving_jobNtB2_10ProvingJobNtB4_3Job11process_job
FN:43,_RNCNvXNtNtCs9kcl9mimtFg_12orchestrator4jobs11proving_jobNtB4_10ProvingJobNtB6_3Job11process_job0B8_
FN:48,_RNCNCNvXNtNtCs9kcl9mimtFg_12orchestrator4jobs11proving_jobNtB6_10ProvingJobNtB8_3Job11process_job00Ba_
FN:49,_RNCNCNvXNtNtCs9kcl9mimtFg_12orchestrator4jobs11proving_jobNtB6_10ProvingJobNtB8_3Job11process_job0s_0Ba_
FN:55,_RNvXNtNtCs9kcl9mimtFg_12orchestrator4jobs11proving_jobNtB2_10ProvingJobNtB4_3Job10verify_job
FN:55,_RNCNvXNtNtCs9kcl9mimtFg_12orchestrator4jobs11proving_jobNtB4_10ProvingJobNtB6_3Job10verify_job0B8_
FN:67,_RNvXNtNtCs9kcl9mimtFg_12orchestrator4jobs11proving_jobNtB2_10ProvingJobNtB4_3Job20max_process_attempts
FN:71,_RNvXNtNtCs9kcl9mimtFg_12orchestrator4jobs11proving_jobNtB2_10ProvingJobNtB4_3Job25max_verification_attempts
FN:75,_RNvXNtNtCs9kcl9mimtFg_12orchestrator4jobs11proving_jobNtB2_10ProvingJobNtB4_3Job34verification_polling_delay_seconds
FNDA:10,_RNvXNtNtCs9kcl9mimtFg_12orchestrator4jobs11proving_jobNtB2_10ProvingJobNtB4_3Job10create_job
FNDA:10,_RNCNvXNtNtCs9kcl9mimtFg_12orchestrator4jobs11proving_jobNtB4_10ProvingJobNtB6_3Job10create_job0B8_
FNDA:1,_RNvXNtNtCs9kcl9mimtFg_12orchestrator4jobs11proving_jobNtB2_10ProvingJobNtB4_3Job11process_job
FNDA:1,_RNCNvXNtNtCs9kcl9mimtFg_12orchestrator4jobs11proving_jobNtB4_10ProvingJobNtB6_3Job11process_job0B8_
FNDA:1,_RNCNCNvXNtNtCs9kcl9mimtFg_12orchestrator4jobs11proving_jobNtB6_10ProvingJobNtB8_3Job11process_job00Ba_
FNDA:0,_RNCNCNvXNtNtCs9kcl9mimtFg_12orchestrator4jobs11proving_jobNtB6_10ProvingJobNtB8_3Job11process_job0s_0Ba_
FNDA:1,_RNvXNtNtCs9kcl9mimtFg_12orchestrator4jobs11proving_jobNtB2_10ProvingJobNtB4_3Job10verify_job
FNDA:1,_RNCNvXNtNtCs9kcl9mimtFg_12orchestrator4jobs11proving_jobNtB4_10ProvingJobNtB6_3Job10verify_job0B8_
FNDA:0,_RNvXNtNtCs9kcl9mimtFg_12orchestrator4jobs11proving_jobNtB2_10ProvingJobNtB4_3Job20max_process_attempts
FNDA:0,_RNvXNtNtCs9kcl9mimtFg_12orchestrator4jobs11proving_jobNtB2_10ProvingJobNtB4_3Job25max_verification_attempts
FNDA:0,_RNvXNtNtCs9kcl9mimtFg_12orchestrator4jobs11proving_jobNtB2_10ProvingJobNtB4_3Job34verification_polling_delay_seconds
FNF:8
FNH:4
DA:28,10
DA:29,10
DA:30,10
DA:31,10
DA:32,10
DA:33,10
DA:34,10
DA:35,10
DA:36,10
DA:37,10
DA:38,10
DA:39,10
DA:40,10
DA:41,10
DA:43,1
DA:44,1
DA:45,1
DA:46,1
DA:47,1
DA:48,1
DA:49,1
DA:50,1
DA:51,1
DA:52,1
DA:53,1
DA:55,1
DA:56,1
DA:57,1
DA:58,1
DA:59,1
DA:60,1
DA:61,0
DA:62,1
DA:63,1
DA:64,1
DA:65,1
DA:67,0
DA:68,0
DA:69,0
DA:71,0
DA:72,0
DA:73,0
DA:75,0
DA:76,0
DA:77,0
BRF:0
BRH:0
LF:47
LH:37
end_of_record
SF:/Users/ocdbytes/Karnot/madara-orchestrator/crates/orchestrator/src/jobs/register_proof_job/mod.rs
FN:20,_RNvXNtNtCs9kcl9mimtFg_12orchestrator4jobs18register_proof_jobNtB2_16RegisterProofJobNtB4_3Job10create_job
FN:20,_RNCNvXNtNtCs9kcl9mimtFg_12orchestrator4jobs18register_proof_jobNtB4_16RegisterProofJobNtB6_3Job10create_job0B8_
FN:34,_RNvXNtNtCs9kcl9mimtFg_12orchestrator4jobs18register_proof_jobNtB2_16RegisterProofJobNtB4_3Job11process_job
FN:34,_RNCNvXNtNtCs9kcl9mimtFg_12orchestrator4jobs18register_proof_jobNtB4_16RegisterProofJobNtB6_3Job11process_job0B8_
FN:41,_RNvXNtNtCs9kcl9mimtFg_12orchestrator4jobs18register_proof_jobNtB2_16RegisterProofJobNtB4_3Job10verify_job
FN:41,_RNCNvXNtNtCs9kcl9mimtFg_12orchestrator4jobs18register_proof_jobNtB4_16RegisterProofJobNtB6_3Job10verify_job0B8_
FN:46,_RNvXNtNtCs9kcl9mimtFg_12orchestrator4jobs18register_proof_jobNtB2_16RegisterProofJobNtB4_3Job20max_process_attempts
FN:50,_RNvXNtNtCs9kcl9mimtFg_12orchestrator4jobs18register_proof_jobNtB2_16RegisterProofJobNtB4_3Job25max_verification_attempts
FN:54,_RNvXNtNtCs9kcl9mimtFg_12orchestrator4jobs18register_proof_jobNtB2_16RegisterProofJobNtB4_3Job34verification_polling_delay_seconds
FNDA:0,_RNvXNtNtCs9kcl9mimtFg_12orchestrator4jobs18register_proof_jobNtB2_16RegisterProofJobNtB4_3Job10create_job
FNDA:0,_RNCNvXNtNtCs9kcl9mimtFg_12orchestrator4jobs18register_proof_jobNtB4_16RegisterProofJobNtB6_3Job10create_job0B8_
FNDA:0,_RNvXNtNtCs9kcl9mimtFg_12orchestrator4jobs18register_proof_jobNtB2_16RegisterProofJobNtB4_3Job11process_job
FNDA:0,_RNCNvXNtNtCs9kcl9mimtFg_12orchestrator4jobs18register_proof_jobNtB4_16RegisterProofJobNtB6_3Job11process_job0B8_
FNDA:0,_RNvXNtNtCs9kcl9mimtFg_12orchestrator4jobs18register_proof_jobNtB2_16RegisterProofJobNtB4_3Job10verify_job
FNDA:0,_RNCNvXNtNtCs9kcl9mimtFg_12orchestrator4jobs18register_proof_jobNtB4_16RegisterProofJobNtB6_3Job10verify_job0B8_
FNDA:0,_RNvXNtNtCs9kcl9mimtFg_12orchestrator4jobs18register_proof_jobNtB2_16RegisterProofJobNtB4_3Job20max_process_attempts
FNDA:0,_RNvXNtNtCs9kcl9mimtFg_12orchestrator4jobs18register_proof_jobNtB2_16RegisterProofJobNtB4_3Job25max_verification_attempts
FNDA:0,_RNvXNtNtCs9kcl9mimtFg_12orchestrator4jobs18register_proof_jobNtB2_16RegisterProofJobNtB4_3Job34verification_polling_delay_seconds
FNF:6
FNH:0
DA:20,0
DA:21,0
DA:22,0
DA:23,0
DA:24,0
DA:25,0
DA:26,0
DA:27,0
DA:28,0
DA:29,0
DA:30,0
DA:31,0
DA:32,0
DA:34,0
DA:35,0
DA:36,0
DA:37,0
DA:38,0
DA:39,0
DA:41,0
DA:42,0
DA:43,0
DA:44,0
DA:46,0
DA:47,0
DA:50,0
DA:51,0
DA:54,0
DA:55,0
BRF:0
BRH:0
LF:29
LH:0
end_of_record
SF:/Users/ocdbytes/Karnot/madara-orchestrator/crates/orchestrator/src/jobs/snos_job/mod.rs
FN:20,_RNvXNtNtCs9kcl9mimtFg_12orchestrator4jobs8snos_jobNtB2_7SnosJobNtB4_3Job10create_job
FN:20,_RNCNvXNtNtCs9kcl9mimtFg_12orchestrator4jobs8snos_jobNtB4_7SnosJobNtB6_3Job10create_job0B8_
FN:32,_RNvXNtNtCs9kcl9mimtFg_12orchestrator4jobs8snos_jobNtB2_7SnosJobNtB4_3Job11process_job
FN:32,_RNCNvXNtNtCs9kcl9mimtFg_12orchestrator4jobs8snos_jobNtB4_7SnosJobNtB6_3Job11process_job0B8_
FN:39,_RNvXNtNtCs9kcl9mimtFg_12orchestrator4jobs8snos_jobNtB2_7SnosJobNtB4_3Job10verify_job
FN:39,_RNCNvXNtNtCs9kcl9mimtFg_12orchestrator4jobs8snos_jobNtB4_7SnosJobNtB6_3Job10verify_job0B8_
FN:45,_RNvXNtNtCs9kcl9mimtFg_12orchestrator4jobs8snos_jobNtB2_7SnosJobNtB4_3Job20max_process_attempts
FN:49,_RNvXNtNtCs9kcl9mimtFg_12orchestrator4jobs8snos_jobNtB2_7SnosJobNtB4_3Job25max_verification_attempts
FN:53,_RNvXNtNtCs9kcl9mimtFg_12orchestrator4jobs8snos_jobNtB2_7SnosJobNtB4_3Job34verification_polling_delay_seconds
FNDA:10,_RNvXNtNtCs9kcl9mimtFg_12orchestrator4jobs8snos_jobNtB2_7SnosJobNtB4_3Job10create_job
FNDA:10,_RNCNvXNtNtCs9kcl9mimtFg_12orchestrator4jobs8snos_jobNtB4_7SnosJobNtB6_3Job10create_job0B8_
FNDA:0,_RNvXNtNtCs9kcl9mimtFg_12orchestrator4jobs8snos_jobNtB2_7SnosJobNtB4_3Job11process_job
FNDA:0,_RNCNvXNtNtCs9kcl9mimtFg_12orchestrator4jobs8snos_jobNtB4_7SnosJobNtB6_3Job11process_job0B8_
FNDA:0,_RNvXNtNtCs9kcl9mimtFg_12orchestrator4jobs8snos_jobNtB2_7SnosJobNtB4_3Job10verify_job
FNDA:0,_RNCNvXNtNtCs9kcl9mimtFg_12orchestrator4jobs8snos_jobNtB4_7SnosJobNtB6_3Job10verify_job0B8_
FNDA:0,_RNvXNtNtCs9kcl9mimtFg_12orchestrator4jobs8snos_jobNtB2_7SnosJobNtB4_3Job20max_process_attempts
FNDA:0,_RNvXNtNtCs9kcl9mimtFg_12orchestrator4jobs8snos_jobNtB2_7SnosJobNtB4_3Job25max_verification_attempts
FNDA:0,_RNvXNtNtCs9kcl9mimtFg_12orchestrator4jobs8snos_jobNtB2_7SnosJobNtB4_3Job34verification_polling_delay_seconds
FNF:6
FNH:1
DA:20,10
DA:21,10
DA:22,10
DA:23,10
DA:24,10
DA:25,10
DA:26,10
DA:27,10
DA:28,10
DA:29,10
DA:30,10
DA:32,0
DA:33,0
DA:34,0
DA:35,0
DA:36,0
DA:37,0
DA:39,0
DA:40,0
DA:41,0
DA:42,0
DA:43,0
DA:45,0
DA:46,0
DA:49,0
DA:50,0
DA:53,0
DA:54,0
BRF:0
BRH:0
LF:28
LH:11
end_of_record
SF:/Users/ocdbytes/Karnot/madara-orchestrator/crates/orchestrator/src/jobs/state_update_job/mod.rs
FN:20,_RNvXNtNtCs9kcl9mimtFg_12orchestrator4jobs16state_update_jobNtB2_14StateUpdateJobNtB4_3Job10create_job
FN:20,_RNCNvXNtNtCs9kcl9mimtFg_12orchestrator4jobs16state_update_jobNtB4_14StateUpdateJobNtB6_3Job10create_job0B8_
FN:34,_RNvXNtNtCs9kcl9mimtFg_12orchestrator4jobs16state_update_jobNtB2_14StateUpdateJobNtB4_3Job11process_job
FN:34,_RNCNvXNtNtCs9kcl9mimtFg_12orchestrator4jobs16state_update_jobNtB4_14StateUpdateJobNtB6_3Job11process_job0B8_
FN:40,_RNvXNtNtCs9kcl9mimtFg_12orchestrator4jobs16state_update_jobNtB2_14StateUpdateJobNtB4_3Job10verify_job
FN:40,_RNCNvXNtNtCs9kcl9mimtFg_12orchestrator4jobs16state_update_jobNtB4_14StateUpdateJobNtB6_3Job10verify_job0B8_
FN:45,_RNvXNtNtCs9kcl9mimtFg_12orchestrator4jobs16state_update_jobNtB2_14StateUpdateJobNtB4_3Job20max_process_attempts
FN:49,_RNvXNtNtCs9kcl9mimtFg_12orchestrator4jobs16state_update_jobNtB2_14StateUpdateJobNtB4_3Job25max_verification_attempts
FN:53,_RNvXNtNtCs9kcl9mimtFg_12orchestrator4jobs16state_update_jobNtB2_14StateUpdateJobNtB4_3Job34verification_polling_delay_seconds
FNDA:0,_RNvXNtNtCs9kcl9mimtFg_12orchestrator4jobs16state_update_jobNtB2_14StateUpdateJobNtB4_3Job10create_job
FNDA:0,_RNCNvXNtNtCs9kcl9mimtFg_12orchestrator4jobs16state_update_jobNtB4_14StateUpdateJobNtB6_3Job10create_job0B8_
FNDA:0,_RNvXNtNtCs9kcl9mimtFg_12orchestrator4jobs16state_update_jobNtB2_14StateUpdateJobNtB4_3Job11process_job
FNDA:0,_RNCNvXNtNtCs9kcl9mimtFg_12orchestrator4jobs16state_update_jobNtB4_14StateUpdateJobNtB6_3Job11process_job0B8_
FNDA:0,_RNvXNtNtCs9kcl9mimtFg_12orchestrator4jobs16state_update_jobNtB2_14StateUpdateJobNtB4_3Job10verify_job
FNDA:0,_RNCNvXNtNtCs9kcl9mimtFg_12orchestrator4jobs16state_update_jobNtB4_14StateUpdateJobNtB6_3Job10verify_job0B8_
FNDA:0,_RNvXNtNtCs9kcl9mimtFg_12orchestrator4jobs16state_update_jobNtB2_14StateUpdateJobNtB4_3Job20max_process_attempts
FNDA:0,_RNvXNtNtCs9kcl9mimtFg_12orchestrator4jobs16state_update_jobNtB2_14StateUpdateJobNtB4_3Job25max_verification_attempts
FNDA:0,_RNvXNtNtCs9kcl9mimtFg_12orchestrator4jobs16state_update_jobNtB2_14StateUpdateJobNtB4_3Job34verification_polling_delay_seconds
FNF:6
FNH:0
DA:20,0
DA:21,0
DA:22,0
DA:23,0
DA:24,0
DA:25,0
DA:26,0
DA:27,0
DA:28,0
DA:29,0
DA:30,0
DA:31,0
DA:32,0
DA:34,0
DA:35,0
DA:36,0
DA:37,0
DA:38,0
DA:40,0
DA:41,0
DA:42,0
DA:43,0
DA:45,0
DA:46,0
DA:49,0
DA:50,0
DA:53,0
DA:54,0
BRF:0
BRH:0
LF:28
LH:0
end_of_record
SF:/Users/ocdbytes/Karnot/madara-orchestrator/crates/orchestrator/src/jobs/types.rs
FN:71,_RINvXs_NvXNvNtNtCs9kcl9mimtFg_12orchestrator4jobs5typess1_1__NtBa_7JobTypeNtNtCs6LpWrqowvw4_5serde2de11Deserialize11deserializeNtB5_7___FieldB1a_11deserializeNtNtNtCs84bRhzOpns3_4bson2de3raw23DocumentKeyDeserializerEBe_
FN:85,_RINvXs_NvXNvNtNtCs9kcl9mimtFg_12orchestrator4jobs5typess3_1__NtBa_9JobStatusNtNtCs6LpWrqowvw4_5serde2de11Deserialize11deserializeNtB5_7___FieldB1c_11deserializeNtNtNtCs84bRhzOpns3_4bson2de3raw23DocumentKeyDeserializerEBe_
FN:103,_RINvXs_NvXNvNtNtCs9kcl9mimtFg_12orchestrator4jobs5typess5_1__NtBa_7JobItemNtNtCs6LpWrqowvw4_5serde2de11Deserialize11deserializeNtB5_7___FieldB1a_11deserializeNtNtNtCs84bRhzOpns3_4bson2de3raw17FieldDeserializerEBe_
FN:103,_RINvXs_NvXNvNtNtCs9kcl9mimtFg_12orchestrator4jobs5typess5_1__NtBa_7JobItemNtNtCs6LpWrqowvw4_5serde2de11Deserialize11deserializeNtB5_7___FieldB1a_11deserializeNtNtNtCs84bRhzOpns3_4bson2de3raw23DocumentKeyDeserializerEBe_
FN:103,_RINvXs0_NvXNvNtNtCs9kcl9mimtFg_12orchestrator4jobs5typess5_1__NtBb_7JobItemNtNtCs6LpWrqowvw4_5serde2de11Deserialize11deserializeNtB6_9___VisitorNtB1d_7Visitor9visit_seqNtNtNtCs84bRhzOpns3_4bson2de3raw14DocumentAccessEBf_
FN:103,_RNCINvXs0_NvXNvNtNtCs9kcl9mimtFg_12orchestrator4jobs5typess5_1__NtBd_7JobItemNtNtCs6LpWrqowvw4_5serde2de11Deserialize11deserializeNtB8_9___VisitorNtB1f_7Visitor9visit_seqNtNtNtCs84bRhzOpns3_4bson2de3raw14DocumentAccessE0Bh_
FN:103,_RINvXs0_NvXNvNtNtCs9kcl9mimtFg_12orchestrator4jobs5typess5_1__NtBb_7JobItemNtNtCs6LpWrqowvw4_5serde2de11Deserialize11deserializeNtB6_9___VisitorNtB1d_7Visitor9visit_mapNtNtNtCs84bRhzOpns3_4bson2de3raw11RegexAccessEBf_
FN:103,_RINvXs0_NvXNvNtNtCs9kcl9mimtFg_12orchestrator4jobs5typess5_1__NtBb_7JobItemNtNtCs6LpWrqowvw4_5serde2de11Deserialize11deserializeNtB6_9___VisitorNtB1d_7Visitor9visit_mapNtNtNtCs84bRhzOpns3_4bson2de3raw12BinaryAccessEBf_
FN:103,_RINvXs0_NvXNvNtNtCs9kcl9mimtFg_12orchestrator4jobs5typess5_1__NtBb_7JobItemNtNtCs6LpWrqowvw4_5serde2de11Deserialize11deserializeNtB6_9___VisitorNtB1d_7Visitor9visit_mapNtNtNtCs84bRhzOpns3_4bson2de3raw13RawBsonAccessEBf_
FN:103,_RINvXs0_NvXNvNtNtCs9kcl9mimtFg_12orchestrator4jobs5typess5_1__NtBb_7JobItemNtNtCs6LpWrqowvw4_5serde2de11Deserialize11deserializeNtB6_9___VisitorNtB1d_7Visitor9visit_mapNtNtNtCs84bRhzOpns3_4bson2de3raw14DateTimeAccessEBf_
FN:103,_RINvXs0_NvXNvNtNtCs9kcl9mimtFg_12orchestrator4jobs5typess5_1__NtBb_7JobItemNtNtCs6LpWrqowvw4_5serde2de11Deserialize11deserializeNtB6_9___VisitorNtB1d_7Visitor9visit_mapNtNtNtCs84bRhzOpns3_4bson2de3raw14DocumentAccessEBf_
FN:103,_RINvXs0_NvXNvNtNtCs9kcl9mimtFg_12orchestrator4jobs5typess5_1__NtBb_7JobItemNtNtCs6LpWrqowvw4_5serde2de11Deserialize11deserializeNtB6_9___VisitorNtB1d_7Visitor9visit_mapNtNtNtCs84bRhzOpns3_4bson2de3raw14ObjectIdAccessEBf_
FN:103,_RINvXs0_NvXNvNtNtCs9kcl9mimtFg_12orchestrator4jobs5typess5_1__NtBb_7JobItemNtNtCs6LpWrqowvw4_5serde2de11Deserialize11deserializeNtB6_9___VisitorNtB1d_7Visitor9visit_mapNtNtNtCs84bRhzOpns3_4bson2de3raw15DbPointerAccessEBf_
FN:103,_RINvXs0_NvXNvNtNtCs9kcl9mimtFg_12orchestrator4jobs5typess5_1__NtBb_7JobItemNtNtCs6LpWrqowvw4_5serde2de11Deserialize11deserializeNtB6_9___VisitorNtB1d_7Visitor9visit_mapNtNtNtCs84bRhzOpns3_4bson2de3raw15TimestampAccessEBf_
FN:103,_RINvXs0_NvXNvNtNtCs9kcl9mimtFg_12orchestrator4jobs5typess5_1__NtBb_7JobItemNtNtCs6LpWrqowvw4_5serde2de11Deserialize11deserializeNtB6_9___VisitorNtB1d_7Visitor9visit_mapNtNtNtCs84bRhzOpns3_4bson2de3raw17RawDocumentAccessEBf_
FN:103,_RINvXs0_NvXNvNtNtCs9kcl9mimtFg_12orchestrator4jobs5typess5_1__NtBb_7JobItemNtNtCs6LpWrqowvw4_5serde2de11Deserialize11deserializeNtB6_9___VisitorNtB1d_7Visitor9visit_mapNtNtNtCs84bRhzOpns3_4bson2de3raw19CodeWithScopeAccessEBf_
FN:71,_RINvXs_NvXNvNtNtCs9kcl9mimtFg_12orchestrator4jobs5typess1_1__NtBa_7JobTypeNtNtCs6LpWrqowvw4_5serde2de11Deserialize11deserializeNtB5_7___FieldB1a_11deserializeINtNtB1c_5value18CowStrDeserializerNtNtNtCs84bRhzOpns3_4bson2de5error5ErrorEEBe_
FN:85,_RINvXs_NvXNvNtNtCs9kcl9mimtFg_12orchestrator4jobs5typess3_1__NtBa_9JobStatusNtNtCs6LpWrqowvw4_5serde2de11Deserialize11deserializeNtB5_7___FieldB1c_11deserializeINtNtB1e_5value18CowStrDeserializerNtNtNtCs84bRhzOpns3_4bson2de5error5ErrorEEBe_
FN:67,_RNvNtNtCs9kcl9mimtFg_12orchestrator4jobs5types25unwrap_external_id_failed
FN:71,_RNvXNvXNvNtNtCs9kcl9mimtFg_12orchestrator4jobs5typess1_1__NtB7_7JobTypeNtNtCs6LpWrqowvw4_5serde2de11Deserialize11deserializeNtB2_14___FieldVisitorNtB19_7Visitor9expecting
FN:71,_RINvXNvXNvNtNtCs9kcl9mimtFg_12orchestrator4jobs5typess1_1__NtB8_7JobTypeNtNtCs6LpWrqowvw4_5serde2de11Deserialize11deserializeNtB3_14___FieldVisitorNtB1a_7Visitor9visit_strNtNtCs7GeGMEtFxdc_10serde_json5error5ErrorEBc_
FN:71,_RINvXNvXNvNtNtCs9kcl9mimtFg_12orchestrator4jobs5typess1_1__NtB8_7JobTypeNtNtCs6LpWrqowvw4_5serde2de11Deserialize11deserializeNtB3_14___FieldVisitorNtB1a_7Visitor9visit_strNtNtNtCs84bRhzOpns3_4bson2de5error5ErrorEBc_
FN:71,_RINvXNvXNvNtNtCs9kcl9mimtFg_12orchestrator4jobs5typess1_1__NtB8_7JobTypeNtNtCs6LpWrqowvw4_5serde2de11Deserialize11deserializeNtB3_14___FieldVisitorNtB1a_7Visitor11visit_bytesNtNtNtCs84bRhzOpns3_4bson2de5error5ErrorEBc_
FN:71,_RNvXs0_NvXNvNtNtCs9kcl9mimtFg_12orchestrator4jobs5typess1_1__NtBa_7JobTypeNtNtCs6LpWrqowvw4_5serde2de11Deserialize11deserializeNtB5_9___VisitorNtB1c_7Visitor9expecting
FN:71,_RINvXs0_NvXNvNtNtCs9kcl9mimtFg_12orchestrator4jobs5typess1_1__NtBb_7JobTypeNtNtCs6LpWrqowvw4_5serde2de11Deserialize11deserializeNtB6_9___VisitorNtB1d_7Visitor10visit_enumINtNtB1d_5value18CowStrDeserializerNtNtNtCs84bRhzOpns3_4bson2de5error5ErrorEEBf_
FN:71,_RINvXs0_NvXNvNtNtCs9kcl9mimtFg_12orchestrator4jobs5typess1_1__NtBb_7JobTypeNtNtCs6LpWrqowvw4_5serde2de11Deserialize11deserializeNtB6_9___VisitorNtB1d_7Visitor10visit_enumINtNtCs6VgYWKnnD2x_19serde_path_to_error4wrap4WrapINtNtCs7GeGMEtFxdc_10serde_json2de13VariantAccessNtNtB3B_4read9SliceReadEEEBf_
FN:71,_RINvXs0_NvXNvNtNtCs9kcl9mimtFg_12orchestrator4jobs5typess1_1__NtBb_7JobTypeNtNtCs6LpWrqowvw4_5serde2de11Deserialize11deserializeNtB6_9___VisitorNtB1d_7Visitor10visit_enumINtNtCs6VgYWKnnD2x_19serde_path_to_error4wrap4WrapINtNtCs7GeGMEtFxdc_10serde_json2de17UnitVariantAccessNtNtB3B_4read9SliceReadEEEBf_
FN:71,_RINvXs0_NvXNvNtNtCs9kcl9mimtFg_12orchestrator4jobs5typess1_1__NtBb_7JobTypeNtNtCs6LpWrqowvw4_5serde2de11Deserialize11deserializeNtB6_9___VisitorNtB1d_7Visitor10visit_enumNtNtNtCs84bRhzOpns3_4bson2de3raw14DocumentAccessEBf_
FN:71,_RINvXs0_NvXNvNtNtCs9kcl9mimtFg_12orchestrator4jobs5typess1_1__NtBb_7JobTypeNtNtCs6LpWrqowvw4_5serde2de11Deserialize11deserializeNtB6_9___VisitorNtB1d_7Visitor10visit_enumNtNtNtCs84bRhzOpns3_4bson2de5serde16EnumDeserializerEBf_
FN:85,_RNvXNvXNvNtNtCs9kcl9mimtFg_12orchestrator4jobs5typess3_1__NtB7_9JobStatusNtNtCs6LpWrqowvw4_5serde2de11Deserialize11deserializeNtB2_14___FieldVisitorNtB1b_7Visitor9expecting
FN:85,_RINvXNvXNvNtNtCs9kcl9mimtFg_12orchestrator4jobs5typess3_1__NtB8_9JobStatusNtNtCs6LpWrqowvw4_5serde2de11Deserialize11deserializeNtB3_14___FieldVisitorNtB1c_7Visitor9visit_strNtNtNtCs84bRhzOpns3_4bson2de5error5ErrorEBc_
FN:85,_RINvXNvXNvNtNtCs9kcl9mimtFg_12orchestrator4jobs5typess3_1__NtB8_9JobStatusNtNtCs6LpWrqowvw4_5serde2de11Deserialize11deserializeNtB3_14___FieldVisitorNtB1c_7Visitor11visit_bytesNtNtNtCs84bRhzOpns3_4bson2de5error5ErrorEBc_
FN:85,_RNvXs0_NvXNvNtNtCs9kcl9mimtFg_12orchestrator4jobs5typess3_1__NtBa_9JobStatusNtNtCs6LpWrqowvw4_5serde2de11Deserialize11deserializeNtB5_9___VisitorNtB1e_7Visitor9expecting
FN:85,_RINvXs0_NvXNvNtNtCs9kcl9mimtFg_12orchestrator4jobs5typess3_1__NtBb_9JobStatusNtNtCs6LpWrqowvw4_5serde2de11Deserialize11deserializeNtB6_9___VisitorNtB1f_7Visitor10visit_enumINtNtB1f_5value18CowStrDeserializerNtNtNtCs84bRhzOpns3_4bson2de5error5ErrorEEBf_
FN:85,_RINvXs0_NvXNvNtNtCs9kcl9mimtFg_12orchestrator4jobs5typess3_1__NtBb_9JobStatusNtNtCs6LpWrqowvw4_5serde2de11Deserialize11deserializeNtB6_9___VisitorNtB1f_7Visitor10visit_enumNtNtNtCs84bRhzOpns3_4bson2de3raw14DocumentAccessEBf_
FN:85,_RINvXs0_NvXNvNtNtCs9kcl9mimtFg_12orchestrator4jobs5typess3_1__NtBb_9JobStatusNtNtCs6LpWrqowvw4_5serde2de11Deserialize11deserializeNtB6_9___VisitorNtB1f_7Visitor10visit_enumNtNtNtCs84bRhzOpns3_4bson2de5serde16EnumDeserializerEBf_
FN:103,_RINvXNvXNvNtNtCs9kcl9mimtFg_12orchestrator4jobs5typess4_1__NtB8_7JobItemNtNtCs6LpWrqowvw4_5serde3ser9Serialize9serializeNtB3_15___SerializeWithB18_9serializeNtNtNtCs84bRhzOpns3_4bson3ser5serde10SerializerEBc_
FN:103,_RINvXNvXNvNtNtCs9kcl9mimtFg_12orchestrator4jobs5typess4_1__NtB8_7JobItemNtNtCs6LpWrqowvw4_5serde3ser9Serialize9serializeNtB3_15___SerializeWithB18_9serializeQNtNtNtCs84bRhzOpns3_4bson3ser3raw10SerializerEBc_
FN:103,_RINvXNvXNvNtNtCs9kcl9mimtFg_12orchestrator4jobs5typess4_1__NtB8_7JobItemNtNtCs6LpWrqowvw4_5serde3ser9Serialize9serializeNtB3_15___SerializeWithB18_9serializeQNtNtNtNtCs84bRhzOpns3_4bson3ser3raw16value_serializer15ValueSerializerEBc_
FN:103,_RNvXNvXNvNtNtCs9kcl9mimtFg_12orchestrator4jobs5typess5_1__NtB7_7JobItemNtNtCs6LpWrqowvw4_5serde2de11Deserialize11deserializeNtB2_14___FieldVisitorNtB19_7Visitor9expecting
FN:103,_RINvXNvXNvNtNtCs9kcl9mimtFg_12orchestrator4jobs5typess5_1__NtB8_7JobItemNtNtCs6LpWrqowvw4_5serde2de11Deserialize11deserializeNtB3_14___FieldVisitorNtB1a_7Visitor9visit_strNtNtNtCs84bRhzOpns3_4bson2de5error5ErrorEBc_
FN:103,_RINvXNvXNvNtNtCs9kcl9mimtFg_12orchestrator4jobs5typess5_1__NtB8_7JobItemNtNtCs6LpWrqowvw4_5serde2de11Deserialize11deserializeNtB3_14___FieldVisitorNtB1a_7Visitor11visit_bytesNtNtNtCs84bRhzOpns3_4bson2de5error5ErrorEBc_
FN:103,_RNvXs0_NvXNvNtNtCs9kcl9mimtFg_12orchestrator4jobs5typess5_1__NtBa_7JobItemNtNtCs6LpWrqowvw4_5serde2de11Deserialize11deserializeNtB5_9___VisitorNtB1c_7Visitor9expecting
FN:103,_RINvXNvXs0_NvXNvNtNtCs9kcl9mimtFg_12orchestrator4jobs5typess5_1__NtBe_7JobItemNtNtCs6LpWrqowvw4_5serde2de11Deserialize11deserializeNtB9_9___VisitorNtB1g_7Visitor9visit_seqNtB3_17___DeserializeWithB1e_11deserializeNtNtNtCs84bRhzOpns3_4bson2de5serde12DeserializerEBi_
FN:103,_RINvXNvXs0_NvXNvNtNtCs9kcl9mimtFg_12orchestrator4jobs5typess5_1__NtBe_7JobItemNtNtCs6LpWrqowvw4_5serde2de11Deserialize11deserializeNtB9_9___VisitorNtB1g_7Visitor9visit_seqNtB3_17___DeserializeWithB1e_11deserializeQNtNtNtCs84bRhzOpns3_4bson2de3raw12DeserializerEBi_
FN:103,_RINvXNvXs0_NvXNvNtNtCs9kcl9mimtFg_12orchestrator4jobs5typess5_1__NtBe_7JobItemNtNtCs6LpWrqowvw4_5serde2de11Deserialize11deserializeNtB9_9___VisitorNtB1g_7Visitor9visit_mapNtB3_17___DeserializeWithB1e_11deserializeNtNtNtCs84bRhzOpns3_4bson2de3raw19RawBsonDeserializerEBi_
FN:103,_RINvXNvXs0_NvXNvNtNtCs9kcl9mimtFg_12orchestrator4jobs5typess5_1__NtBe_7JobItemNtNtCs6LpWrqowvw4_5serde2de11Deserialize11deserializeNtB9_9___VisitorNtB1g_7Visitor9visit_mapNtB3_17___DeserializeWithB1e_11deserializeNtNtNtCs84bRhzOpns3_4bson2de3raw20ObjectIdDeserializerEBi_
FN:103,_RINvXNvXs0_NvXNvNtNtCs9kcl9mimtFg_12orchestrator4jobs5typess5_1__NtBe_7JobItemNtNtCs6LpWrqowvw4_5serde2de11Deserialize11deserializeNtB9_9___VisitorNtB1g_7Visitor9visit_mapNtB3_17___DeserializeWithB1e_11deserializeNtNtNtCs84bRhzOpns3_4bson2de3raw22Decimal128DeserializerEBi_
FN:103,_RINvXNvXs0_NvXNvNtNtCs9kcl9mimtFg_12orchestrator4jobs5typess5_1__NtBe_7JobItemNtNtCs6LpWrqowvw4_5serde2de11Deserialize11deserializeNtB9_9___VisitorNtB1g_7Visitor9visit_mapNtB3_17___DeserializeWithB1e_11deserializeNtNtNtCs84bRhzOpns3_4bson2de3raw23RawDocumentDeserializerEBi_
FN:103,_RINvXNvXs0_NvXNvNtNtCs9kcl9mimtFg_12orchestrator4jobs5typess5_1__NtBe_7JobItemNtNtCs6LpWrqowvw4_5serde2de11Deserialize11deserializeNtB9_9___VisitorNtB1g_7Visitor9visit_mapNtB3_17___DeserializeWithB1e_11deserializeNtNtNtCs84bRhzOpns3_4bson2de5serde12DeserializerEBi_
FN:103,_RINvXNvXs0_NvXNvNtNtCs9kcl9mimtFg_12orchestrator4jobs5typess5_1__NtBe_7JobItemNtNtCs6LpWrqowvw4_5serde2de11Deserialize11deserializeNtB9_9___VisitorNtB1g_7Visitor9visit_mapNtB3_17___DeserializeWithB1e_11deserializeQNtNtNtCs84bRhzOpns3_4bson2de3raw12DeserializerEBi_
FN:103,_RINvXNvXs0_NvXNvNtNtCs9kcl9mimtFg_12orchestrator4jobs5typess5_1__NtBe_7JobItemNtNtCs6LpWrqowvw4_5serde2de11Deserialize11deserializeNtB9_9___VisitorNtB1g_7Visitor9visit_mapNtB3_17___DeserializeWithB1e_11deserializeQNtNtNtCs84bRhzOpns3_4bson2de3raw17RegexDeserializerEBi_
FN:103,_RINvXNvXs0_NvXNvNtNtCs9kcl9mimtFg_12orchestrator4jobs5typess5_1__NtBe_7JobItemNtNtCs6LpWrqowvw4_5serde2de11Deserialize11deserializeNtB9_9___VisitorNtB1g_7Visitor9visit_mapNtB3_17___DeserializeWithB1e_11deserializeQNtNtNtCs84bRhzOpns3_4bson2de3raw18BinaryDeserializerEBi_
FN:103,_RINvXNvXs0_NvXNvNtNtCs9kcl9mimtFg_12orchestrator4jobs5typess5_1__NtBe_7JobItemNtNtCs6LpWrqowvw4_5serde2de11Deserialize11deserializeNtB9_9___VisitorNtB1g_7Visitor9visit_mapNtB3_17___DeserializeWithB1e_11deserializeQNtNtNtCs84bRhzOpns3_4bson2de3raw20DateTimeDeserializerEBi_
FN:103,_RINvXNvXs0_NvXNvNtNtCs9kcl9mimtFg_12orchestrator4jobs5typess5_1__NtBe_7JobItemNtNtCs6LpWrqowvw4_5serde2de11Deserialize11deserializeNtB9_9___VisitorNtB1g_7Visitor9visit_mapNtB3_17___DeserializeWithB1e_11deserializeQNtNtNtCs84bRhzOpns3_4bson2de3raw21DbPointerDeserializerEBi_
FN:103,_RINvXNvXs0_NvXNvNtNtCs9kcl9mimtFg_12orchestrator4jobs5typess5_1__NtBe_7JobItemNtNtCs6LpWrqowvw4_5serde2de11Deserialize11deserializeNtB9_9___VisitorNtB1g_7Visitor9visit_mapNtB3_17___DeserializeWithB1e_11deserializeQNtNtNtCs84bRhzOpns3_4bson2de3raw21TimestampDeserializerEBi_
FN:103,_RINvXNvXs0_NvXNvNtNtCs9kcl9mimtFg_12orchestrator4jobs5typess5_1__NtBe_7JobItemNtNtCs6LpWrqowvw4_5serde2de11Deserialize11deserializeNtB9_9___VisitorNtB1g_7Visitor9visit_mapNtB3_17___DeserializeWithB1e_11deserializeQNtNtNtCs84bRhzOpns3_4bson2de3raw25CodeWithScopeDeserializerEBi_
FN:71,_RINvXs_NvXNvNtNtCs9kcl9mimtFg_12orchestrator4jobs5typess1_1__NtBa_7JobTypeNtNtCs6LpWrqowvw4_5serde2de11Deserialize11deserializeNtB5_7___FieldB1a_11deserializeINtNtCs6VgYWKnnD2x_19serde_path_to_error2de10CaptureKeyQINtNtCs7GeGMEtFxdc_10serde_json2de12DeserializerNtNtB3v_4read9SliceReadEEEBe_
FN:30,_RNvXs_NtNtCs9kcl9mimtFg_12orchestrator4jobs5typesNtB4_10ExternalIdINtNtCsl82brYPINY5_4core7convert4FromjE4from
FN:58,_RNvMs0_NtNtCs9kcl9mimtFg_12orchestrator4jobs5typesNtB5_10ExternalId13unwrap_number
FN:71,_RINvXNvXNvNtNtCs9kcl9mimtFg_12orchestrator4jobs5typess1_1__NtB8_7JobTypeNtNtCs6LpWrqowvw4_5serde2de11Deserialize11deserializeNtB3_14___FieldVisitorNtB1a_7Visitor9visit_u64pEBc_
FN:85,_RINvXNvXNvNtNtCs9kcl9mimtFg_12orchestrator4jobs5typess3_1__NtB8_9JobStatusNtNtCs6LpWrqowvw4_5serde2de11Deserialize11deserializeNtB3_14___FieldVisitorNtB1c_7Visitor9visit_u64pEBc_
FN:103,_RINvXNvXNvNtNtCs9kcl9mimtFg_12orchestrator4jobs5typess5_1__NtB8_7JobItemNtNtCs6LpWrqowvw4_5serde2de11Deserialize11deserializeNtB3_14___FieldVisitorNtB1a_7Visitor9visit_u64pEBc_
FN:134,_RNvXs1_NtNtCs9kcl9mimtFg_12orchestrator4jobs5typesNtB5_21JobVerificationStatusINtNtCsl82brYPINY5_4core7convert4FromNtCs9dA0Hzxrugg_19da_client_interface20DaVerificationStatusE4from
FN:43,_RNvMs0_NtNtCs9kcl9mimtFg_12orchestrator4jobs5typesNtB5_10ExternalId13unwrap_string
FN:71,_RINvXs_NvXNvNtNtCs9kcl9mimtFg_12orchestrator4jobs5typess1_1__NtBa_7JobTypeNtNtCs6LpWrqowvw4_5serde2de11Deserialize11deserializeNtB5_7___FieldB1a_11deserializeNtNtNtCs84bRhzOpns3_4bson2de5serde12DeserializerEBe_
FN:85,_RINvXs_NvXNvNtNtCs9kcl9mimtFg_12orchestrator4jobs5typess3_1__NtBa_9JobStatusNtNtCs6LpWrqowvw4_5serde2de11Deserialize11deserializeNtB5_7___FieldB1c_11deserializeNtNtNtCs84bRhzOpns3_4bson2de5serde12DeserializerEBe_
FN:103,_RINvXs_NvXNvNtNtCs9kcl9mimtFg_12orchestrator4jobs5typess5_1__NtBa_7JobItemNtNtCs6LpWrqowvw4_5serde2de11Deserialize11deserializeNtB5_7___FieldB1a_11deserializeNtNtNtCs84bRhzOpns3_4bson2de5serde12DeserializerEBe_
FN:103,_RINvXs0_NvXNvNtNtCs9kcl9mimtFg_12orchestrator4jobs5typess5_1__NtBb_7JobItemNtNtCs6LpWrqowvw4_5serde2de11Deserialize11deserializeNtB6_9___VisitorNtB1d_7Visitor9visit_seqNtNtNtCs84bRhzOpns3_4bson2de5serde15SeqDeserializerEBf_
FN:103,_RNCINvXs0_NvXNvNtNtCs9kcl9mimtFg_12orchestrator4jobs5typess5_1__NtBd_7JobItemNtNtCs6LpWrqowvw4_5serde2de11Deserialize11deserializeNtB8_9___VisitorNtB1f_7Visitor9visit_seqNtNtNtCs84bRhzOpns3_4bson2de5serde15SeqDeserializerE0Bh_
FN:103,_RINvXs0_NvXNvNtNtCs9kcl9mimtFg_12orchestrator4jobs5typess5_1__NtBb_7JobItemNtNtCs6LpWrqowvw4_5serde2de11Deserialize11deserializeNtB6_9___VisitorNtB1d_7Visitor9visit_mapNtNtNtCs84bRhzOpns3_4bson2de3raw16Decimal128AccessEBf_
FN:103,_RINvXs0_NvXNvNtNtCs9kcl9mimtFg_12orchestrator4jobs5typess5_1__NtBb_7JobItemNtNtCs6LpWrqowvw4_5serde2de11Deserialize11deserializeNtB6_9___VisitorNtB1d_7Visitor9visit_mapNtNtNtCs84bRhzOpns3_4bson2de5serde15MapDeserializerEBf_
FN:23,_RNvXNtNtCs9kcl9mimtFg_12orchestrator4jobs5typesNtB2_10ExternalIdINtNtCsl82brYPINY5_4core7convert4FromNtNtCshB4XevuvN1H_5alloc6string6StringE4from
FNDA:0,_RINvXs_NvXNvNtNtCs9kcl9mimtFg_12orchestrator4jobs5typess1_1__NtBa_7JobTypeNtNtCs6LpWrqowvw4_5serde2de11Deserialize11deserializeNtB5_7___FieldB1a_11deserializeNtNtNtCs84bRhzOpns3_4bson2de3raw23DocumentKeyDeserializerEBe_
FNDA:0,_RINvXs_NvXNvNtNtCs9kcl9mimtFg_12orchestrator4jobs5typess3_1__NtBa_9JobStatusNtNtCs6LpWrqowvw4_5serde2de11Deserialize11deserializeNtB5_7___FieldB1c_11deserializeNtNtNtCs84bRhzOpns3_4bson2de3raw23DocumentKeyDeserializerEBe_
FNDA:0,_RINvXs_NvXNvNtNtCs9kcl9mimtFg_12orchestrator4jobs5typess5_1__NtBa_7JobItemNtNtCs6LpWrqowvw4_5serde2de11Deserialize11deserializeNtB5_7___FieldB1a_11deserializeNtNtNtCs84bRhzOpns3_4bson2de3raw17FieldDeserializerEBe_
FNDA:0,_RINvXs_NvXNvNtNtCs9kcl9mimtFg_12orchestrator4jobs5typess5_1__NtBa_7JobItemNtNtCs6LpWrqowvw4_5serde2de11Deserialize11deserializeNtB5_7___FieldB1a_11deserializeNtNtNtCs84bRhzOpns3_4bson2de3raw23DocumentKeyDeserializerEBe_
FNDA:0,_RINvXs0_NvXNvNtNtCs9kcl9mimtFg_12orchestrator4jobs5typess5_1__NtBb_7JobItemNtNtCs6LpWrqowvw4_5serde2de11Deserialize11deserializeNtB6_9___VisitorNtB1d_7Visitor9visit_seqNtNtNtCs84bRhzOpns3_4bson2de3raw14DocumentAccessEBf_
FNDA:0,_RNCINvXs0_NvXNvNtNtCs9kcl9mimtFg_12orchestrator4jobs5typess5_1__NtBd_7JobItemNtNtCs6LpWrqowvw4_5serde2de11Deserialize11deserializeNtB8_9___VisitorNtB1f_7Visitor9visit_seqNtNtNtCs84bRhzOpns3_4bson2de3raw14DocumentAccessE0Bh_
FNDA:0,_RINvXs0_NvXNvNtNtCs9kcl9mimtFg_12orchestrator4jobs5typess5_1__NtBb_7JobItemNtNtCs6LpWrqowvw4_5serde2de11Deserialize11deserializeNtB6_9___VisitorNtB1d_7Visitor9visit_mapNtNtNtCs84bRhzOpns3_4bson2de3raw11RegexAccessEBf_
FNDA:0,_RINvXs0_NvXNvNtNtCs9kcl9mimtFg_12orchestrator4jobs5typess5_1__NtBb_7JobItemNtNtCs6LpWrqowvw4_5serde2de11Deserialize11deserializeNtB6_9___VisitorNtB1d_7Visitor9visit_mapNtNtNtCs84bRhzOpns3_4bson2de3raw12BinaryAccessEBf_
FNDA:0,_RINvXs0_NvXNvNtNtCs9kcl9mimtFg_12orchestrator4jobs5typess5_1__NtBb_7JobItemNtNtCs6LpWrqowvw4_5serde2de11Deserialize11deserializeNtB6_9___VisitorNtB1d_7Visitor9visit_mapNtNtNtCs84bRhzOpns3_4bson2de3raw13RawBsonAccessEBf_
FNDA:0,_RINvXs0_NvXNvNtNtCs9kcl9mimtFg_12orchestrator4jobs5typess5_1__NtBb_7JobItemNtNtCs6LpWrqowvw4_5serde2de11Deserialize11deserializeNtB6_9___VisitorNtB1d_7Visitor9visit_mapNtNtNtCs84bRhzOpns3_4bson2de3raw14DateTimeAccessEBf_
FNDA:0,_RINvXs0_NvXNvNtNtCs9kcl9mimtFg_12orchestrator4jobs5typess5_1__NtBb_7JobItemNtNtCs6LpWrqowvw4_5serde2de11Deserialize11deserializeNtB6_9___VisitorNtB1d_7Visitor9visit_mapNtNtNtCs84bRhzOpns3_4bson2de3raw14DocumentAccessEBf_
FNDA:0,_RINvXs0_NvXNvNtNtCs9kcl9mimtFg_12orchestrator4jobs5typess5_1__NtBb_7JobItemNtNtCs6LpWrqowvw4_5serde2de11Deserialize11deserializeNtB6_9___VisitorNtB1d_7Visitor9visit_mapNtNtNtCs84bRhzOpns3_4bson2de3raw14ObjectIdAccessEBf_
FNDA:0,_RINvXs0_NvXNvNtNtCs9kcl9mimtFg_12orchestrator4jobs5typess5_1__NtBb_7JobItemNtNtCs6LpWrqowvw4_5serde2de11Deserialize11deserializeNtB6_9___VisitorNtB1d_7Visitor9visit_mapNtNtNtCs84bRhzOpns3_4bson2de3raw15DbPointerAccessEBf_
FNDA:0,_RINvXs0_NvXNvNtNtCs9kcl9mimtFg_12orchestrator4jobs5typess5_1__NtBb_7JobItemNtNtCs6LpWrqowvw4_5serde2de11Deserialize11deserializeNtB6_9___VisitorNtB1d_7Visitor9visit_mapNtNtNtCs84bRhzOpns3_4bson2de3raw15TimestampAccessEBf_
FNDA:0,_RINvXs0_NvXNvNtNtCs9kcl9mimtFg_12orchestrator4jobs5typess5_1__NtBb_7JobItemNtNtCs6LpWrqowvw4_5serde2de11Deserialize11deserializeNtB6_9___VisitorNtB1d_7Visitor9visit_mapNtNtNtCs84bRhzOpns3_4bson2de3raw17RawDocumentAccessEBf_
FNDA:0,_RINvXs0_NvXNvNtNtCs9kcl9mimtFg_12orchestrator4jobs5typess5_1__NtBb_7JobItemNtNtCs6LpWrqowvw4_5serde2de11Deserialize11deserializeNtB6_9___VisitorNtB1d_7Visitor9visit_mapNtNtNtCs84bRhzOpns3_4bson2de3raw19CodeWithScopeAccessEBf_
FNDA:0,_RINvXs_NvXNvNtNtCs9kcl9mimtFg_12orchestrator4jobs5typess1_1__NtBa_7JobTypeNtNtCs6LpWrqowvw4_5serde2de11Deserialize11deserializeNtB5_7___FieldB1a_11deserializeINtNtB1c_5value18CowStrDeserializerNtNtNtCs84bRhzOpns3_4bson2de5error5ErrorEEBe_
FNDA:0,_RINvXs_NvXNvNtNtCs9kcl9mimtFg_12orchestrator4jobs5typess3_1__NtBa_9JobStatusNtNtCs6LpWrqowvw4_5serde2de11Deserialize11deserializeNtB5_7___FieldB1c_11deserializeINtNtB1e_5value18CowStrDeserializerNtNtNtCs84bRhzOpns3_4bson2de5error5ErrorEEBe_
FNDA:0,_RNvNtNtCs9kcl9mimtFg_12orchestrator4jobs5types25unwrap_external_id_failed
FNDA:0,_RNvXNvXNvNtNtCs9kcl9mimtFg_12orchestrator4jobs5typess1_1__NtB7_7JobTypeNtNtCs6LpWrqowvw4_5serde2de11Deserialize11deserializeNtB2_14___FieldVisitorNtB19_7Visitor9expecting
FNDA:0,_RINvXNvXNvNtNtCs9kcl9mimtFg_12orchestrator4jobs5typess1_1__NtB8_7JobTypeNtNtCs6LpWrqowvw4_5serde2de11Deserialize11deserializeNtB3_14___FieldVisitorNtB1a_7Visitor9visit_strNtNtCs7GeGMEtFxdc_10serde_json5error5ErrorEBc_
FNDA:0,_RINvXNvXNvNtNtCs9kcl9mimtFg_12orchestrator4jobs5typess1_1__NtB8_7JobTypeNtNtCs6LpWrqowvw4_5serde2de11Deserialize11deserializeNtB3_14___FieldVisitorNtB1a_7Visitor9visit_strNtNtNtCs84bRhzOpns3_4bson2de5error5ErrorEBc_
FNDA:0,_RINvXNvXNvNtNtCs9kcl9mimtFg_12orchestrator4jobs5typess1_1__NtB8_7JobTypeNtNtCs6LpWrqowvw4_5serde2de11Deserialize11deserializeNtB3_14___FieldVisitorNtB1a_7Visitor11visit_bytesNtNtNtCs84bRhzOpns3_4bson2de5error5ErrorEBc_
FNDA:0,_RNvXs0_NvXNvNtNtCs9kcl9mimtFg_12orchestrator4jobs5typess1_1__NtBa_7JobTypeNtNtCs6LpWrqowvw4_5serde2de11Deserialize11deserializeNtB5_9___VisitorNtB1c_7Visitor9expecting
FNDA:0,_RINvXs0_NvXNvNtNtCs9kcl9mimtFg_12orchestrator4jobs5typess1_1__NtBb_7JobTypeNtNtCs6LpWrqowvw4_5serde2de11Deserialize11deserializeNtB6_9___VisitorNtB1d_7Visitor10visit_enumINtNtB1d_5value18CowStrDeserializerNtNtNtCs84bRhzOpns3_4bson2de5error5ErrorEEBf_
FNDA:0,_RINvXs0_NvXNvNtNtCs9kcl9mimtFg_12orchestrator4jobs5typess1_1__NtBb_7JobTypeNtNtCs6LpWrqowvw4_5serde2de11Deserialize11deserializeNtB6_9___VisitorNtB1d_7Visitor10visit_enumINtNtCs6VgYWKnnD2x_19serde_path_to_error4wrap4WrapINtNtCs7GeGMEtFxdc_10serde_json2de13VariantAccessNtNtB3B_4read9SliceReadEEEBf_
FNDA:0,_RINvXs0_NvXNvNtNtCs9kcl9mimtFg_12orchestrator4jobs5typess1_1__NtBb_7JobTypeNtNtCs6LpWrqowvw4_5serde2de11Deserialize11deserializeNtB6_9___VisitorNtB1d_7Visitor10visit_enumINtNtCs6VgYWKnnD2x_19serde_path_to_error4wrap4WrapINtNtCs7GeGMEtFxdc_10serde_json2de17UnitVariantAccessNtNtB3B_4read9SliceReadEEEBf_
FNDA:0,_RINvXs0_NvXNvNtNtCs9kcl9mimtFg_12orchestrator4jobs5typess1_1__NtBb_7JobTypeNtNtCs6LpWrqowvw4_5serde2de11Deserialize11deserializeNtB6_9___VisitorNtB1d_7Visitor10visit_enumNtNtNtCs84bRhzOpns3_4bson2de3raw14DocumentAccessEBf_
FNDA:0,_RINvXs0_NvXNvNtNtCs9kcl9mimtFg_12orchestrator4jobs5typess1_1__NtBb_7JobTypeNtNtCs6LpWrqowvw4_5serde2de11Deserialize11deserializeNtB6_9___VisitorNtB1d_7Visitor10visit_enumNtNtNtCs84bRhzOpns3_4bson2de5serde16EnumDeserializerEBf_
FNDA:0,_RNvXNvXNvNtNtCs9kcl9mimtFg_12orchestrator4jobs5typess3_1__NtB7_9JobStatusNtNtCs6LpWrqowvw4_5serde2de11Deserialize11deserializeNtB2_14___FieldVisitorNtB1b_7Visitor9expecting
FNDA:0,_RINvXNvXNvNtNtCs9kcl9mimtFg_12orchestrator4jobs5typess3_1__NtB8_9JobStatusNtNtCs6LpWrqowvw4_5serde2de11Deserialize11deserializeNtB3_14___FieldVisitorNtB1c_7Visitor9visit_strNtNtNtCs84bRhzOpns3_4bson2de5error5ErrorEBc_
FNDA:0,_RINvXNvXNvNtNtCs9kcl9mimtFg_12orchestrator4jobs5typess3_1__NtB8_9JobStatusNtNtCs6LpWrqowvw4_5serde2de11Deserialize11deserializeNtB3_14___FieldVisitorNtB1c_7Visitor11visit_bytesNtNtNtCs84bRhzOpns3_4bson2de5error5ErrorEBc_
FNDA:0,_RNvXs0_NvXNvNtNtCs9kcl9mimtFg_12orchestrator4jobs5typess3_1__NtBa_9JobStatusNtNtCs6LpWrqowvw4_5serde2de11Deserialize11deserializeNtB5_9___VisitorNtB1e_7Visitor9expecting
FNDA:0,_RINvXs0_NvXNvNtNtCs9kcl9mimtFg_12orchestrator4jobs5typess3_1__NtBb_9JobStatusNtNtCs6LpWrqowvw4_5serde2de11Deserialize11deserializeNtB6_9___VisitorNtB1f_7Visitor10visit_enumINtNtB1f_5value18CowStrDeserializerNtNtNtCs84bRhzOpns3_4bson2de5error5ErrorEEBf_
FNDA:0,_RINvXs0_NvXNvNtNtCs9kcl9mimtFg_12orchestrator4jobs5typess3_1__NtBb_9JobStatusNtNtCs6LpWrqowvw4_5serde2de11Deserialize11deserializeNtB6_9___VisitorNtB1f_7Visitor10visit_enumNtNtNtCs84bRhzOpns3_4bson2de3raw14DocumentAccessEBf_
FNDA:0,_RINvXs0_NvXNvNtNtCs9kcl9mimtFg_12orchestrator4jobs5typess3_1__NtBb_9JobStatusNtNtCs6LpWrqowvw4_5serde2de11Deserialize11deserializeNtB6_9___VisitorNtB1f_7Visitor10visit_enumNtNtNtCs84bRhzOpns3_4bson2de5serde16EnumDeserializerEBf_
FNDA:0,_RINvXNvXNvNtNtCs9kcl9mimtFg_12orchestrator4jobs5typess4_1__NtB8_7JobItemNtNtCs6LpWrqowvw4_5serde3ser9Serialize9serializeNtB3_15___SerializeWithB18_9serializeNtNtNtCs84bRhzOpns3_4bson3ser5serde10SerializerEBc_
FNDA:0,_RINvXNvXNvNtNtCs9kcl9mimtFg_12orchestrator4jobs5typess4_1__NtB8_7JobItemNtNtCs6LpWrqowvw4_5serde3ser9Serialize9serializeNtB3_15___SerializeWithB18_9serializeQNtNtNtCs84bRhzOpns3_4bson3ser3raw10SerializerEBc_
FNDA:0,_RINvXNvXNvNtNtCs9kcl9mimtFg_12orchestrator4jobs5typess4_1__NtB8_7JobItemNtNtCs6LpWrqowvw4_5serde3ser9Serialize9serializeNtB3_15___SerializeWithB18_9serializeQNtNtNtNtCs84bRhzOpns3_4bson3ser3raw16value_serializer15ValueSerializerEBc_
FNDA:0,_RNvXNvXNvNtNtCs9kcl9mimtFg_12orchestrator4jobs5typess5_1__NtB7_7JobItemNtNtCs6LpWrqowvw4_5serde2de11Deserialize11deserializeNtB2_14___FieldVisitorNtB19_7Visitor9expecting
FNDA:0,_RINvXNvXNvNtNtCs9kcl9mimtFg_12orchestrator4jobs5typess5_1__NtB8_7JobItemNtNtCs6LpWrqowvw4_5serde2de11Deserialize11deserializeNtB3_14___FieldVisitorNtB1a_7Visitor9visit_strNtNtNtCs84bRhzOpns3_4bson2de5error5ErrorEBc_
FNDA:0,_RINvXNvXNvNtNtCs9kcl9mimtFg_12orchestrator4jobs5typess5_1__NtB8_7JobItemNtNtCs6LpWrqowvw4_5serde2de11Deserialize11deserializeNtB3_14___FieldVisitorNtB1a_7Visitor11visit_bytesNtNtNtCs84bRhzOpns3_4bson2de5error5ErrorEBc_
FNDA:0,_RNvXs0_NvXNvNtNtCs9kcl9mimtFg_12orchestrator4jobs5typess5_1__NtBa_7JobItemNtNtCs6LpWrqowvw4_5serde2de11Deserialize11deserializeNtB5_9___VisitorNtB1c_7Visitor9expecting
FNDA:0,_RINvXNvXs0_NvXNvNtNtCs9kcl9mimtFg_12orchestrator4jobs5typess5_1__NtBe_7JobItemNtNtCs6LpWrqowvw4_5serde2de11Deserialize11deserializeNtB9_9___VisitorNtB1g_7Visitor9visit_seqNtB3_17___DeserializeWithB1e_11deserializeNtNtNtCs84bRhzOpns3_4bson2de5serde12DeserializerEBi_
FNDA:0,_RINvXNvXs0_NvXNvNtNtCs9kcl9mimtFg_12orchestrator4jobs5typess5_1__NtBe_7JobItemNtNtCs6LpWrqowvw4_5serde2de11Deserialize11deserializeNtB9_9___VisitorNtB1g_7Visitor9visit_seqNtB3_17___DeserializeWithB1e_11deserializeQNtNtNtCs84bRhzOpns3_4bson2de3raw12DeserializerEBi_
FNDA:0,_RINvXNvXs0_NvXNvNtNtCs9kcl9mimtFg_12orchestrator4jobs5typess5_1__NtBe_7JobItemNtNtCs6LpWrqowvw4_5serde2de11Deserialize11deserializeNtB9_9___VisitorNtB1g_7Visitor9visit_mapNtB3_17___DeserializeWithB1e_11deserializeNtNtNtCs84bRhzOpns3_4bson2de3raw19RawBsonDeserializerEBi_
FNDA:0,_RINvXNvXs0_NvXNvNtNtCs9kcl9mimtFg_12orchestrator4jobs5typess5_1__NtBe_7JobItemNtNtCs6LpWrqowvw4_5serde2de11Deserialize11deserializeNtB9_9___VisitorNtB1g_7Visitor9visit_mapNtB3_17___DeserializeWithB1e_11deserializeNtNtNtCs84bRhzOpns3_4bson2de3raw20ObjectIdDeserializerEBi_
FNDA:0,_RINvXNvXs0_NvXNvNtNtCs9kcl9mimtFg_12orchestrator4jobs5typess5_1__NtBe_7JobItemNtNtCs6LpWrqowvw4_5serde2de11Deserialize11deserializeNtB9_9___VisitorNtB1g_7Visitor9visit_mapNtB3_17___DeserializeWithB1e_11deserializeNtNtNtCs84bRhzOpns3_4bson2de3raw22Decimal128DeserializerEBi_
FNDA:0,_RINvXNvXs0_NvXNvNtNtCs9kcl9mimtFg_12orchestrator4jobs5typess5_1__NtBe_7JobItemNtNtCs6LpWrqowvw4_5serde2de11Deserialize11deserializeNtB9_9___VisitorNtB1g_7Visitor9visit_mapNtB3_17___DeserializeWithB1e_11deserializeNtNtNtCs84bRhzOpns3_4bson2de3raw23RawDocumentDeserializerEBi_
FNDA:0,_RINvXNvXs0_NvXNvNtNtCs9kcl9mimtFg_12orchestrator4jobs5typess5_1__NtBe_7JobItemNtNtCs6LpWrqowvw4_5serde2de11Deserialize11deserializeNtB9_9___VisitorNtB1g_7Visitor9visit_mapNtB3_17___DeserializeWithB1e_11deserializeNtNtNtCs84bRhzOpns3_4bson2de5serde12DeserializerEBi_
FNDA:0,_RINvXNvXs0_NvXNvNtNtCs9kcl9mimtFg_12orchestrator4jobs5typess5_1__NtBe_7JobItemNtNtCs6LpWrqowvw4_5serde2de11Deserialize11deserializeNtB9_9___VisitorNtB1g_7Visitor9visit_mapNtB3_17___DeserializeWithB1e_11deserializeQNtNtNtCs84bRhzOpns3_4bson2de3raw12DeserializerEBi_
FNDA:0,_RINvXNvXs0_NvXNvNtNtCs9kcl9mimtFg_12orchestrator4jobs5typess5_1__NtBe_7JobItemNtNtCs6LpWrqowvw4_5serde2de11Deserialize11deserializeNtB9_9___VisitorNtB1g_7Visitor9visit_mapNtB3_17___DeserializeWithB1e_11deserializeQNtNtNtCs84bRhzOpns3_4bson2de3raw17RegexDeserializerEBi_
FNDA:0,_RINvXNvXs0_NvXNvNtNtCs9kcl9mimtFg_12orchestrator4jobs5typess5_1__NtBe_7JobItemNtNtCs6LpWrqowvw4_5serde2de11Deserialize11deserializeNtB9_9___VisitorNtB1g_7Visitor9visit_mapNtB3_17___DeserializeWithB1e_11deserializeQNtNtNtCs84bRhzOpns3_4bson2de3raw18BinaryDeserializerEBi_
FNDA:0,_RINvXNvXs0_NvXNvNtNtCs9kcl9mimtFg_12orchestrator4jobs5typess5_1__NtBe_7JobItemNtNtCs6LpWrqowvw4_5serde2de11Deserialize11deserializeNtB9_9___VisitorNtB1g_7Visitor9visit_mapNtB3_17___DeserializeWithB1e_11deserializeQNtNtNtCs84bRhzOpns3_4bson2de3raw20DateTimeDeserializerEBi_
FNDA:0,_RINvXNvXs0_NvXNvNtNtCs9kcl9mimtFg_12orchestrator4jobs5typess5_1__NtBe_7JobItemNtNtCs6LpWrqowvw4_5serde2de11Deserialize11deserializeNtB9_9___VisitorNtB1g_7Visitor9visit_mapNtB3_17___DeserializeWithB1e_11deserializeQNtNtNtCs84bRhzOpns3_4bson2de3raw21DbPointerDeserializerEBi_
FNDA:0,_RINvXNvXs0_NvXNvNtNtCs9kcl9mimtFg_12orchestrator4jobs5typess5_1__NtBe_7JobItemNtNtCs6LpWrqowvw4_5serde2de11Deserialize11deserializeNtB9_9___VisitorNtB1g_7Visitor9visit_mapNtB3_17___DeserializeWithB1e_11deserializeQNtNtNtCs84bRhzOpns3_4bson2de3raw21TimestampDeserializerEBi_
FNDA:0,_RINvXNvXs0_NvXNvNtNtCs9kcl9mimtFg_12orchestrator4jobs5typess5_1__NtBe_7JobItemNtNtCs6LpWrqowvw4_5serde2de11Deserialize11deserializeNtB9_9___VisitorNtB1g_7Visitor9visit_mapNtB3_17___DeserializeWithB1e_11deserializeQNtNtNtCs84bRhzOpns3_4bson2de3raw25CodeWithScopeDeserializerEBi_
FNDA:0,_RINvXs_NvXNvNtNtCs9kcl9mimtFg_12orchestrator4jobs5typess1_1__NtBa_7JobTypeNtNtCs6LpWrqowvw4_5serde2de11Deserialize11deserializeNtB5_7___FieldB1a_11deserializeINtNtCs6VgYWKnnD2x_19serde_path_to_error2de10CaptureKeyQINtNtCs7GeGMEtFxdc_10serde_json2de12DeserializerNtNtB3v_4read9SliceReadEEEBe_
FNDA:0,_RNvXs_NtNtCs9kcl9mimtFg_12orchestrator4jobs5typesNtB4_10ExternalIdINtNtCsl82brYPINY5_4core7convert4FromjE4from
FNDA:0,_RNvMs0_NtNtCs9kcl9mimtFg_12orchestrator4jobs5typesNtB5_10ExternalId13unwrap_number
FNDA:0,_RINvXNvXNvNtNtCs9kcl9mimtFg_12orchestrator4jobs5typess1_1__NtB8_7JobTypeNtNtCs6LpWrqowvw4_5serde2de11Deserialize11deserializeNtB3_14___FieldVisitorNtB1a_7Visitor9visit_u64pEBc_
FNDA:0,_RINvXNvXNvNtNtCs9kcl9mimtFg_12orchestrator4jobs5typess3_1__NtB8_9JobStatusNtNtCs6LpWrqowvw4_5serde2de11Deserialize11deserializeNtB3_14___FieldVisitorNtB1c_7Visitor9visit_u64pEBc_
FNDA:0,_RINvXNvXNvNtNtCs9kcl9mimtFg_12orchestrator4jobs5typess5_1__NtB8_7JobItemNtNtCs6LpWrqowvw4_5serde2de11Deserialize11deserializeNtB3_14___FieldVisitorNtB1a_7Visitor9visit_u64pEBc_
FNDA:1,_RNvXs1_NtNtCs9kcl9mimtFg_12orchestrator4jobs5typesNtB5_21JobVerificationStatusINtNtCsl82brYPINY5_4core7convert4FromNtCs9dA0Hzxrugg_19da_client_interface20DaVerificationStatusE4from
FNDA:4,_RNvMs0_NtNtCs9kcl9mimtFg_12orchestrator4jobs5typesNtB5_10ExternalId13unwrap_string
FNDA:0,_RINvXs_NvXNvNtNtCs9kcl9mimtFg_12orchestrator4jobs5typess1_1__NtBa_7JobTypeNtNtCs6LpWrqowvw4_5serde2de11Deserialize11deserializeNtB5_7___FieldB1a_11deserializeNtNtNtCs84bRhzOpns3_4bson2de5serde12DeserializerEBe_
FNDA:0,_RINvXs_NvXNvNtNtCs9kcl9mimtFg_12orchestrator4jobs5typess3_1__NtBa_9JobStatusNtNtCs6LpWrqowvw4_5serde2de11Deserialize11deserializeNtB5_7___FieldB1c_11deserializeNtNtNtCs84bRhzOpns3_4bson2de5serde12DeserializerEBe_
FNDA:0,_RINvXs_NvXNvNtNtCs9kcl9mimtFg_12orchestrator4jobs5typess5_1__NtBa_7JobItemNtNtCs6LpWrqowvw4_5serde2de11Deserialize11deserializeNtB5_7___FieldB1a_11deserializeNtNtNtCs84bRhzOpns3_4bson2de5serde12DeserializerEBe_
FNDA:0,_RINvXs0_NvXNvNtNtCs9kcl9mimtFg_12orchestrator4jobs5typess5_1__NtBb_7JobItemNtNtCs6LpWrqowvw4_5serde2de11Deserialize11deserializeNtB6_9___VisitorNtB1d_7Visitor9visit_seqNtNtNtCs84bRhzOpns3_4bson2de5serde15SeqDeserializerEBf_
FNDA:0,_RNCINvXs0_NvXNvNtNtCs9kcl9mimtFg_12orchestrator4jobs5typess5_1__NtBd_7JobItemNtNtCs6LpWrqowvw4_5serde2de11Deserialize11deserializeNtB8_9___VisitorNtB1f_7Visitor9visit_seqNtNtNtCs84bRhzOpns3_4bson2de5serde15SeqDeserializerE0Bh_
FNDA:0,_RINvXs0_NvXNvNtNtCs9kcl9mimtFg_12orchestrator4jobs5typess5_1__NtBb_7JobItemNtNtCs6LpWrqowvw4_5serde2de11Deserialize11deserializeNtB6_9___VisitorNtB1d_7Visitor9visit_mapNtNtNtCs84bRhzOpns3_4bson2de3raw16Decimal128AccessEBf_
FNDA:0,_RINvXs0_NvXNvNtNtCs9kcl9mimtFg_12orchestrator4jobs5typess5_1__NtBb_7JobItemNtNtCs6LpWrqowvw4_5serde2de11Deserialize11deserializeNtB6_9___VisitorNtB1d_7Visitor9visit_mapNtNtNtCs84bRhzOpns3_4bson2de5serde15MapDeserializerEBf_
FNDA:22,_RNvXNtNtCs9kcl9mimtFg_12orchestrator4jobs5typesNtB2_10ExternalIdINtNtCsl82brYPINY5_4core7convert4FromNtNtCshB4XevuvN1H_5alloc6string6StringE4from
FNF:10
FNH:3
DA:23,22
DA:24,22
DA:25,22
DA:30,0
DA:31,0
DA:32,0
DA:43,4
DA:44,4
DA:45,4
DA:46,0
DA:48,4
DA:58,0
DA:59,0
DA:60,0
DA:61,0
DA:63,0
DA:67,0
DA:68,0
DA:69,0
DA:71,0
DA:85,0
DA:103,0
DA:134,1
DA:135,1
DA:136,0
DA:137,1
DA:138,0
DA:140,1
BRF:0
BRH:0
LF:29
LH:11
end_of_record
SF:/Users/ocdbytes/Karnot/madara-orchestrator/crates/orchestrator/src/main.rs
FN:14,_RNvCs8IoMyrmt9Kc_12orchestrator4main
FN:14,_RNCNvCs8IoMyrmt9Kc_12orchestrator4main0B3_
FN:41,_RNvCs8IoMyrmt9Kc_12orchestrator10start_cron
FN:41,_RNCNvCs8IoMyrmt9Kc_12orchestrator10start_cron0B3_
FNDA:0,_RNvCs8IoMyrmt9Kc_12orchestrator4main
FNDA:0,_RNCNvCs8IoMyrmt9Kc_12orchestrator4main0B3_
FNDA:0,_RNvCs8IoMyrmt9Kc_12orchestrator10start_cron
FNDA:0,_RNCNvCs8IoMyrmt9Kc_12orchestrator10start_cron0B3_
FNF:4
FNH:0
DA:14,0
DA:15,0
DA:16,0
DA:17,0
DA:18,0
DA:19,0
DA:20,0
DA:21,0
DA:22,0
DA:23,0
DA:24,0
DA:25,0
DA:26,0
DA:27,0
DA:28,0
DA:29,0
DA:30,0
DA:31,0
DA:32,0
DA:33,0
DA:34,0
DA:35,0
DA:36,0
DA:37,0
DA:38,0
DA:39,0
DA:41,0
DA:43,0
DA:44,0
BRF:0
BRH:0
LF:55
LH:0
end_of_record
SF:/Users/ocdbytes/Karnot/madara-orchestrator/crates/orchestrator/src/queue/job_queue.rs
FN:18,_RNvXNvXNvNtNtCs9kcl9mimtFg_12orchestrator5queue9job_queues_1__NtB7_15JobQueueMessageNtNtCs6LpWrqowvw4_5serde2de11Deserialize11deserializeNtB2_14___FieldVisitorNtB1m_7Visitor9expecting
FN:18,_RINvXNvXNvNtNtCs9kcl9mimtFg_12orchestrator5queue9job_queues_1__NtB8_15JobQueueMessageNtNtCs6LpWrqowvw4_5serde2de11Deserialize11deserializeNtB3_14___FieldVisitorNtB1n_7Visitor9visit_u64pEBc_
FN:18,_RINvXNvXNvNtNtCs9kcl9mimtFg_12orchestrator5queue9job_queues_1__NtB8_15JobQueueMessageNtNtCs6LpWrqowvw4_5serde2de11Deserialize11deserializeNtB3_14___FieldVisitorNtB1n_7Visitor11visit_bytespEBc_
FN:23,_RNvNtNtCs9kcl9mimtFg_12orchestrator5queue9job_queue24add_job_to_process_queue
FN:23,_RNCNvNtNtCs9kcl9mimtFg_12orchestrator5queue9job_queue24add_job_to_process_queue0B7_
FN:28,_RNvNtNtCs9kcl9mimtFg_12orchestrator5queue9job_queue29add_job_to_verification_queue
FN:28,_RNCNvNtNtCs9kcl9mimtFg_12orchestrator5queue9job_queue29add_job_to_verification_queue0B7_
FN:33,_RINvNtNtCs9kcl9mimtFg_12orchestrator5queue9job_queue22consume_job_from_queueNvNtB6_4jobs10verify_jobNCB1c_0EB6_
FN:33,_RINvNtNtCs9kcl9mimtFg_12orchestrator5queue9job_queue22consume_job_from_queueNvNtB6_4jobs11process_jobNCB1c_0EB6_
FN:37,_RNCINvNtNtCs9kcl9mimtFg_12orchestrator5queue9job_queue22consume_job_from_queueNvNtB8_4jobs10verify_jobNCB1e_0E0B8_
FN:37,_RNCINvNtNtCs9kcl9mimtFg_12orchestrator5queue9job_queue22consume_job_from_queueNvNtB8_4jobs11process_jobNCB1e_0E0B8_
FN:55,_RNCNCINvNtNtCs9kcl9mimtFg_12orchestrator5queue9job_queue22consume_job_from_queueNvNtBa_4jobs10verify_jobNCB1g_0E00Ba_
FN:55,_RNCNCINvNtNtCs9kcl9mimtFg_12orchestrator5queue9job_queue22consume_job_from_queueNvNtBa_4jobs11process_jobNCB1g_0E00Ba_
FN:61,_RNCNCINvNtNtCs9kcl9mimtFg_12orchestrator5queue9job_queue22consume_job_from_queueNvNtBa_4jobs10verify_jobNCB1g_0E0s_0Ba_
FN:61,_RNCNCINvNtNtCs9kcl9mimtFg_12orchestrator5queue9job_queue22consume_job_from_queueNvNtBa_4jobs11process_jobNCB1g_0E0s_0Ba_
FN:73,_RNCNCNvNtNtCs9kcl9mimtFg_12orchestrator5queue9job_queue14init_consumers00B9_
FN:82,_RNCNCNvNtNtCs9kcl9mimtFg_12orchestrator5queue9job_queue14init_consumers0s_0B9_
FN:94,_RNvNtNtCs9kcl9mimtFg_12orchestrator5queue9job_queue16add_job_to_queue
FN:94,_RNCNvNtNtCs9kcl9mimtFg_12orchestrator5queue9job_queue16add_job_to_queue0B7_
FN:71,_RNvNtNtCs9kcl9mimtFg_12orchestrator5queue9job_queue14init_consumers
FN:71,_RNCNvNtNtCs9kcl9mimtFg_12orchestrator5queue9job_queue14init_consumers0B7_
FN:18,_RINvXNvXNvNtNtCs9kcl9mimtFg_12orchestrator5queue9job_queues_1__NtB8_15JobQueueMessageNtNtCs6LpWrqowvw4_5serde2de11Deserialize11deserializeNtB3_14___FieldVisitorNtB1n_7Visitor9visit_strNtNtCs7GeGMEtFxdc_10serde_json5error5ErrorEBc_
FN:18,_RINvXs_NvXNvNtNtCs9kcl9mimtFg_12orchestrator5queue9job_queues_1__NtBa_15JobQueueMessageNtNtCs6LpWrqowvw4_5serde2de11Deserialize11deserializeNtB5_7___FieldB1n_11deserializeINtNtCs7GeGMEtFxdc_10serde_json2de6MapKeyNtNtB2O_4read9SliceReadEEBe_
FN:18,_RNvXs0_NvXNvNtNtCs9kcl9mimtFg_12orchestrator5queue9job_queues_1__NtBa_15JobQueueMessageNtNtCs6LpWrqowvw4_5serde2de11Deserialize11deserializeNtB5_9___VisitorNtB1p_7Visitor9expecting
FN:18,_RINvXs0_NvXNvNtNtCs9kcl9mimtFg_12orchestrator5queue9job_queues_1__NtBb_15JobQueueMessageNtNtCs6LpWrqowvw4_5serde2de11Deserialize11deserializeNtB6_9___VisitorNtB1q_7Visitor9visit_seqINtNtCs7GeGMEtFxdc_10serde_json2de9SeqAccessNtNtB2Y_4read9SliceReadEEBf_
FN:18,_RINvXs0_NvXNvNtNtCs9kcl9mimtFg_12orchestrator5queue9job_queues_1__NtBb_15JobQueueMessageNtNtCs6LpWrqowvw4_5serde2de11Deserialize11deserializeNtB6_9___VisitorNtB1q_7Visitor9visit_mapINtNtCs7GeGMEtFxdc_10serde_json2de9MapAccessNtNtB2Y_4read9SliceReadEEBf_
FNDA:0,_RNvXNvXNvNtNtCs9kcl9mimtFg_12orchestrator5queue9job_queues_1__NtB7_15JobQueueMessageNtNtCs6LpWrqowvw4_5serde2de11Deserialize11deserializeNtB2_14___FieldVisitorNtB1m_7Visitor9expecting
FNDA:0,_RINvXNvXNvNtNtCs9kcl9mimtFg_12orchestrator5queue9job_queues_1__NtB8_15JobQueueMessageNtNtCs6LpWrqowvw4_5serde2de11Deserialize11deserializeNtB3_14___FieldVisitorNtB1n_7Visitor9visit_u64pEBc_
FNDA:0,_RINvXNvXNvNtNtCs9kcl9mimtFg_12orchestrator5queue9job_queues_1__NtB8_15JobQueueMessageNtNtCs6LpWrqowvw4_5serde2de11Deserialize11deserializeNtB3_14___FieldVisitorNtB1n_7Visitor11visit_bytespEBc_
FNDA:19,_RNvNtNtCs9kcl9mimtFg_12orchestrator5queue9job_queue24add_job_to_process_queue
FNDA:19,_RNCNvNtNtCs9kcl9mimtFg_12orchestrator5queue9job_queue24add_job_to_process_queue0B7_
FNDA:0,_RNvNtNtCs9kcl9mimtFg_12orchestrator5queue9job_queue29add_job_to_verification_queue
FNDA:0,_RNCNvNtNtCs9kcl9mimtFg_12orchestrator5queue9job_queue29add_job_to_verification_queue0B7_
FNDA:0,_RINvNtNtCs9kcl9mimtFg_12orchestrator5queue9job_queue22consume_job_from_queueNvNtB6_4jobs10verify_jobNCB1c_0EB6_
FNDA:0,_RINvNtNtCs9kcl9mimtFg_12orchestrator5queue9job_queue22consume_job_from_queueNvNtB6_4jobs11process_jobNCB1c_0EB6_
FNDA:0,_RNCINvNtNtCs9kcl9mimtFg_12orchestrator5queue9job_queue22consume_job_from_queueNvNtB8_4jobs10verify_jobNCB1e_0E0B8_
FNDA:0,_RNCINvNtNtCs9kcl9mimtFg_12orchestrator5queue9job_queue22consume_job_from_queueNvNtB8_4jobs11process_jobNCB1e_0E0B8_
FNDA:0,_RNCNCINvNtNtCs9kcl9mimtFg_12orchestrator5queue9job_queue22consume_job_from_queueNvNtBa_4jobs10verify_jobNCB1g_0E00Ba_
FNDA:0,_RNCNCINvNtNtCs9kcl9mimtFg_12orchestrator5queue9job_queue22consume_job_from_queueNvNtBa_4jobs11process_jobNCB1g_0E00Ba_
FNDA:0,_RNCNCINvNtNtCs9kcl9mimtFg_12orchestrator5queue9job_queue22consume_job_from_queueNvNtBa_4jobs10verify_jobNCB1g_0E0s_0Ba_
FNDA:0,_RNCNCINvNtNtCs9kcl9mimtFg_12orchestrator5queue9job_queue22consume_job_from_queueNvNtBa_4jobs11process_jobNCB1g_0E0s_0Ba_
FNDA:0,_RNCNCNvNtNtCs9kcl9mimtFg_12orchestrator5queue9job_queue14init_consumers00B9_
FNDA:0,_RNCNCNvNtNtCs9kcl9mimtFg_12orchestrator5queue9job_queue14init_consumers0s_0B9_
FNDA:19,_RNvNtNtCs9kcl9mimtFg_12orchestrator5queue9job_queue16add_job_to_queue
FNDA:19,_RNCNvNtNtCs9kcl9mimtFg_12orchestrator5queue9job_queue16add_job_to_queue0B7_
FNDA:1,_RNvNtNtCs9kcl9mimtFg_12orchestrator5queue9job_queue14init_consumers
FNDA:1,_RNCNvNtNtCs9kcl9mimtFg_12orchestrator5queue9job_queue14init_consumers0B7_
FNDA:0,_RINvXNvXNvNtNtCs9kcl9mimtFg_12orchestrator5queue9job_queues_1__NtB8_15JobQueueMessageNtNtCs6LpWrqowvw4_5serde2de11Deserialize11deserializeNtB3_14___FieldVisitorNtB1n_7Visitor9visit_strNtNtCs7GeGMEtFxdc_10serde_json5error5ErrorEBc_
FNDA:0,_RINvXs_NvXNvNtNtCs9kcl9mimtFg_12orchestrator5queue9job_queues_1__NtBa_15JobQueueMessageNtNtCs6LpWrqowvw4_5serde2de11Deserialize11deserializeNtB5_7___FieldB1n_11deserializeINtNtCs7GeGMEtFxdc_10serde_json2de6MapKeyNtNtB2O_4read9SliceReadEEBe_
FNDA:0,_RNvXs0_NvXNvNtNtCs9kcl9mimtFg_12orchestrator5queue9job_queues_1__NtBa_15JobQueueMessageNtNtCs6LpWrqowvw4_5serde2de11Deserialize11deserializeNtB5_9___VisitorNtB1p_7Visitor9expecting
FNDA:0,_RINvXs0_NvXNvNtNtCs9kcl9mimtFg_12orchestrator5queue9job_queues_1__NtBb_15JobQueueMessageNtNtCs6LpWrqowvw4_5serde2de11Deserialize11deserializeNtB6_9___VisitorNtB1q_7Visitor9visit_seqINtNtCs7GeGMEtFxdc_10serde_json2de9SeqAccessNtNtB2Y_4read9SliceReadEEBf_
FNDA:0,_RINvXs0_NvXNvNtNtCs9kcl9mimtFg_12orchestrator5queue9job_queues_1__NtBb_15JobQueueMessageNtNtCs6LpWrqowvw4_5serde2de11Deserialize11deserializeNtB6_9___VisitorNtB1q_7Visitor9visit_mapINtNtCs7GeGMEtFxdc_10serde_json2de9MapAccessNtNtB2Y_4read9SliceReadEEBf_
FNF:15
FNH:6
DA:18,0
DA:23,19
DA:24,19
DA:25,19
DA:26,19
DA:28,0
DA:29,0
DA:30,0
DA:31,0
DA:33,0
DA:34,0
DA:35,0
DA:36,0
DA:37,0
DA:38,0
DA:39,0
DA:40,0
DA:41,0
DA:43,0
DA:45,0
DA:46,0
DA:49,0
DA:51,0
DA:52,0
DA:53,0
DA:54,0
DA:55,0
DA:56,0
DA:57,0
DA:61,0
DA:65,0
DA:68,0
DA:69,0
DA:71,1
DA:72,1
DA:73,1
DA:75,0
DA:76,0
DA:77,0
DA:79,0
DA:81,1
DA:82,1
DA:84,0
DA:85,0
DA:86,0
DA:88,0
DA:90,1
DA:91,1
DA:92,1
DA:94,19
DA:95,19
DA:96,19
DA:97,19
DA:98,19
DA:99,19
BRF:0
BRH:0
LF:64
LH:21
end_of_record
SF:/Users/ocdbytes/Karnot/madara-orchestrator/crates/orchestrator/src/queue/mod.rs
FN:14,_RNvMNtNtNtCs9kcl9mimtFg_12orchestrator5queue38___mock_MockQueueProvider_QueueProvider28___consume_message_from_queueNtB2_5Rfunc8call_mut
FN:14,_RNvMs0_NtNtNtCs9kcl9mimtFg_12orchestrator5queue38___mock_MockQueueProvider_QueueProvider28___consume_message_from_queueNtB5_7Matcher7matches
FN:14,_RNCNvMs0_NtNtNtCs9kcl9mimtFg_12orchestrator5queue38___mock_MockQueueProvider_QueueProvider28___consume_message_from_queueNtB7_7Matcher7matches0Bd_
FN:14,_RNvXs2_NtNtNtCs9kcl9mimtFg_12orchestrator5queue38___mock_MockQueueProvider_QueueProvider28___consume_message_from_queueNtB5_7MatcherNtNtCsl82brYPINY5_4core3fmt7Display3fmt
FN:14,_RNvMs4_NtNtNtCs9kcl9mimtFg_12orchestrator5queue38___mock_MockQueueProvider_QueueProvider28___consume_message_from_queueNtB5_6Common4call
FN:14,_RNvMs4_NtNtNtCs9kcl9mimtFg_12orchestrator5queue38___mock_MockQueueProvider_QueueProvider28___consume_message_from_queueNtB5_6Common7is_done
FN:14,_RNvMs4_NtNtNtCs9kcl9mimtFg_12orchestrator5queue38___mock_MockQueueProvider_QueueProvider28___consume_message_from_queueNtB5_6Common7matches
FN:14,_RNvMs4_NtNtNtCs9kcl9mimtFg_12orchestrator5queue38___mock_MockQueueProvider_QueueProvider28___consume_message_from_queueNtB5_6Common16satisfy_sequence
FN:14,_RNvMs4_NtNtNtCs9kcl9mimtFg_12orchestrator5queue38___mock_MockQueueProvider_QueueProvider28___consume_message_from_queueNtB5_6Common15verify_sequence
FN:14,_RNvXs5_NtNtNtCs9kcl9mimtFg_12orchestrator5queue38___mock_MockQueueProvider_QueueProvider28___consume_message_from_queueNtB5_6CommonNtNtNtCsl82brYPINY5_4core3ops4drop4Drop4drop
FN:14,_RNvMs6_NtNtNtCs9kcl9mimtFg_12orchestrator5queue38___mock_MockQueueProvider_QueueProvider28___consume_message_from_queueNtB5_11Expectation4call
FN:14,_RNvMs6_NtNtNtCs9kcl9mimtFg_12orchestrator5queue38___mock_MockQueueProvider_QueueProvider28___consume_message_from_queueNtB5_11Expectation7is_done
FN:14,_RNvMs6_NtNtNtCs9kcl9mimtFg_12orchestrator5queue38___mock_MockQueueProvider_QueueProvider28___consume_message_from_queueNtB5_11Expectation7matches
FN:14,_RNvMsa_NtNtNtCs9kcl9mimtFg_12orchestrator5queue38___mock_MockQueueProvider_QueueProvider28___consume_message_from_queueNtB5_12Expectations4call
FN:14,_RNCNvMsa_NtNtNtCs9kcl9mimtFg_12orchestrator5queue38___mock_MockQueueProvider_QueueProvider28___consume_message_from_queueNtB7_12Expectations4calls_0Bd_
FN:14,_RNCNvMsa_NtNtNtCs9kcl9mimtFg_12orchestrator5queue38___mock_MockQueueProvider_QueueProvider28___consume_message_from_queueNtB7_12Expectations4call0Bd_
FN:14,_RNvMNtNtNtCs9kcl9mimtFg_12orchestrator5queue38___mock_MockQueueProvider_QueueProvider23___send_message_to_queueNtB2_5Rfunc8call_mut
FN:14,_RNvMs0_NtNtNtCs9kcl9mimtFg_12orchestrator5queue38___mock_MockQueueProvider_QueueProvider23___send_message_to_queueNtB5_7Matcher7matches
FN:14,_RNCNvMs0_NtNtNtCs9kcl9mimtFg_12orchestrator5queue38___mock_MockQueueProvider_QueueProvider23___send_message_to_queueNtB7_7Matcher7matches0Bd_
FN:14,_RNvXs2_NtNtNtCs9kcl9mimtFg_12orchestrator5queue38___mock_MockQueueProvider_QueueProvider23___send_message_to_queueNtB5_7MatcherNtNtCsl82brYPINY5_4core3fmt7Display3fmt
FN:14,_RNvMs4_NtNtNtCs9kcl9mimtFg_12orchestrator5queue38___mock_MockQueueProvider_QueueProvider23___send_message_to_queueNtB5_6Common4call
FN:14,_RNvMs4_NtNtNtCs9kcl9mimtFg_12orchestrator5queue38___mock_MockQueueProvider_QueueProvider23___send_message_to_queueNtB5_6Common7is_done
FN:14,_RNvMs4_NtNtNtCs9kcl9mimtFg_12orchestrator5queue38___mock_MockQueueProvider_QueueProvider23___send_message_to_queueNtB5_6Common7matches
FN:14,_RNvMs4_NtNtNtCs9kcl9mimtFg_12orchestrator5queue38___mock_MockQueueProvider_QueueProvider23___send_message_to_queueNtB5_6Common16satisfy_sequence
FN:14,_RINvMs4_NtNtNtCs9kcl9mimtFg_12orchestrator5queue38___mock_MockQueueProvider_QueueProvider23___send_message_to_queueNtB6_6Common5withfNCNCNvNtNtNtBc_5tests7workers4snos16test_snos_worker0s4_0EBc_
FN:14,_RINvMs4_NtNtNtCs9kcl9mimtFg_12orchestrator5queue38___mock_MockQueueProvider_QueueProvider23___send_message_to_queueNtB6_6Common5withfNCNCNvNtNtNtBc_5tests7workers7proving19test_proving_worker0s3_0EBc_
FN:14,_RINvMs4_NtNtNtCs9kcl9mimtFg_12orchestrator5queue38___mock_MockQueueProvider_QueueProvider23___send_message_to_queueNtB6_6Common5withfNCNCNvNtNtNtBc_5tests7workers7proving19test_proving_worker0s8_0EBc_
FN:14,_RNvMs4_NtNtNtCs9kcl9mimtFg_12orchestrator5queue38___mock_MockQueueProvider_QueueProvider23___send_message_to_queueNtB5_6Common15verify_sequence
FN:14,_RNvXs5_NtNtNtCs9kcl9mimtFg_12orchestrator5queue38___mock_MockQueueProvider_QueueProvider23___send_message_to_queueNtB5_6CommonNtNtNtCsl82brYPINY5_4core3ops4drop4Drop4drop
FN:14,_RNvMs6_NtNtNtCs9kcl9mimtFg_12orchestrator5queue38___mock_MockQueueProvider_QueueProvider23___send_message_to_queueNtB5_11Expectation4call
FN:14,_RINvMs6_NtNtNtCs9kcl9mimtFg_12orchestrator5queue38___mock_MockQueueProvider_QueueProvider23___send_message_to_queueNtB6_11Expectation9returningNCNCNvNtNtNtBc_5tests7workers4snos16test_snos_worker0s3_0EBc_
FN:14,_RINvMs6_NtNtNtCs9kcl9mimtFg_12orchestrator5queue38___mock_MockQueueProvider_QueueProvider23___send_message_to_queueNtB6_11Expectation9returningNCNCNvNtNtNtBc_5tests7workers7proving19test_proving_worker0s2_0EBc_
FN:14,_RINvMs6_NtNtNtCs9kcl9mimtFg_12orchestrator5queue38___mock_MockQueueProvider_QueueProvider23___send_message_to_queueNtB6_11Expectation9returningNCNCNvNtNtNtBc_5tests7workers7proving19test_proving_worker0s7_0EBc_
FN:14,_RNvMs6_NtNtNtCs9kcl9mimtFg_12orchestrator5queue38___mock_MockQueueProvider_QueueProvider23___send_message_to_queueNtB5_11Expectation7is_done
FN:14,_RNvMs6_NtNtNtCs9kcl9mimtFg_12orchestrator5queue38___mock_MockQueueProvider_QueueProvider23___send_message_to_queueNtB5_11Expectation7matches
FN:14,_RINvMs6_NtNtNtCs9kcl9mimtFg_12orchestrator5queue38___mock_MockQueueProvider_QueueProvider23___send_message_to_queueNtB6_11Expectation5timesjEBc_
FN:14,_RINvMs4_NtNtNtCs9kcl9mimtFg_12orchestrator5queue38___mock_MockQueueProvider_QueueProvider23___send_message_to_queueNtB6_6Common5timesjEBc_
FN:14,_RINvMs6_NtNtNtCs9kcl9mimtFg_12orchestrator5queue38___mock_MockQueueProvider_QueueProvider23___send_message_to_queueNtB6_11Expectation5withfNCNCNvNtNtNtBc_5tests7workers4snos16test_snos_worker0s4_0EBc_
FN:14,_RINvMs6_NtNtNtCs9kcl9mimtFg_12orchestrator5queue38___mock_MockQueueProvider_QueueProvider23___send_message_to_queueNtB6_11Expectation5withfNCNCNvNtNtNtBc_5tests7workers7proving19test_proving_worker0s3_0EBc_
FN:14,_RINvMs6_NtNtNtCs9kcl9mimtFg_12orchestrator5queue38___mock_MockQueueProvider_QueueProvider23___send_message_to_queueNtB6_11Expectation5withfNCNCNvNtNtNtBc_5tests7workers7proving19test_proving_worker0s8_0EBc_
FN:14,_RNvXs7_NtNtNtCs9kcl9mimtFg_12orchestrator5queue38___mock_MockQueueProvider_QueueProvider23___send_message_to_queueNtB5_11ExpectationNtNtCsl82brYPINY5_4core7default7Default7default
FN:14,_RNvXs3_NtNtNtCs9kcl9mimtFg_12orchestrator5queue38___mock_MockQueueProvider_QueueProvider23___send_message_to_queueNtB5_6CommonNtNtCsl82brYPINY5_4core7default7Default7default
FN:14,_RNvXs1_NtNtNtCs9kcl9mimtFg_12orchestrator5queue38___mock_MockQueueProvider_QueueProvider23___send_message_to_queueNtB5_7MatcherNtNtCsl82brYPINY5_4core7default7Default7default
FN:14,_RNvXs_NtNtNtCs9kcl9mimtFg_12orchestrator5queue38___mock_MockQueueProvider_QueueProvider23___send_message_to_queueNtB4_5RfuncNtNtCsl82brYPINY5_4core7default7Default7default
FN:14,_RNvMs8_NtNtNtCs9kcl9mimtFg_12orchestrator5queue38___mock_MockQueueProvider_QueueProvider23___send_message_to_queueNtB5_12Expectations6expect
FN:14,_RNvMsa_NtNtNtCs9kcl9mimtFg_12orchestrator5queue38___mock_MockQueueProvider_QueueProvider23___send_message_to_queueNtB5_12Expectations4call
FN:14,_RNCNvMsa_NtNtNtCs9kcl9mimtFg_12orchestrator5queue38___mock_MockQueueProvider_QueueProvider23___send_message_to_queueNtB7_12Expectations4calls_0Bd_
FN:14,_RNCNvMsa_NtNtNtCs9kcl9mimtFg_12orchestrator5queue38___mock_MockQueueProvider_QueueProvider23___send_message_to_queueNtB7_12Expectations4call0Bd_
FN:14,_RNvMs3_NtCs9kcl9mimtFg_12orchestrator5queueNtB5_17MockQueueProvider28expect_send_message_to_queue
FN:14,_RNvXs4_NtCs9kcl9mimtFg_12orchestrator5queueNtB5_17MockQueueProviderNtB5_13QueueProvider21send_message_to_queue
FN:14,_RNCNvXs4_NtCs9kcl9mimtFg_12orchestrator5queueNtB7_17MockQueueProviderNtB7_13QueueProvider21send_message_to_queue0B9_
FN:14,_RNvXs4_NtCs9kcl9mimtFg_12orchestrator5queueNtB5_17MockQueueProviderNtB5_13QueueProvider26consume_message_from_queue
FN:14,_RNCNvXs4_NtCs9kcl9mimtFg_12orchestrator5queueNtB7_17MockQueueProviderNtB7_13QueueProvider26consume_message_from_queue0B9_
FN:14,_RNvXNtCs9kcl9mimtFg_12orchestrator5queueNtB2_17MockQueueProviderNtNtCsl82brYPINY5_4core3fmt5Debug3fmt
FN:14,_RNvMs4_NtNtNtCs9kcl9mimtFg_12orchestrator5queue38___mock_MockQueueProvider_QueueProvider23___send_message_to_queueNtB5_6Common11in_sequence
FN:14,_RNvMs4_NtNtNtCs9kcl9mimtFg_12orchestrator5queue38___mock_MockQueueProvider_QueueProvider23___send_message_to_queueNtB5_6Common5never
FN:14,_RINvMs4_NtNtNtCs9kcl9mimtFg_12orchestrator5queue38___mock_MockQueueProvider_QueueProvider23___send_message_to_queueNtB6_6Common4withpppEBc_
FN:14,_RINvMs4_NtNtNtCs9kcl9mimtFg_12orchestrator5queue38___mock_MockQueueProvider_QueueProvider23___send_message_to_queueNtB6_6Common8withf_stpEBc_
FN:14,_RINvMs6_NtNtNtCs9kcl9mimtFg_12orchestrator5queue38___mock_MockQueueProvider_QueueProvider23___send_message_to_queueNtB6_11Expectation12return_constpEBc_
FN:14,_RNCINvMs6_NtNtNtCs9kcl9mimtFg_12orchestrator5queue38___mock_MockQueueProvider_QueueProvider23___send_message_to_queueNtB8_11Expectation12return_constpE0Be_
FN:14,_RINvMs6_NtNtNtCs9kcl9mimtFg_12orchestrator5queue38___mock_MockQueueProvider_QueueProvider23___send_message_to_queueNtB6_11Expectation15return_const_stpEBc_
FN:14,_RNCINvMs6_NtNtNtCs9kcl9mimtFg_12orchestrator5queue38___mock_MockQueueProvider_QueueProvider23___send_message_to_queueNtB8_11Expectation15return_const_stpE0Be_
FN:14,_RINvMs6_NtNtNtCs9kcl9mimtFg_12orchestrator5queue38___mock_MockQueueProvider_QueueProvider23___send_message_to_queueNtB6_11Expectation11return_oncepEBc_
FN:14,_RINvMs6_NtNtNtCs9kcl9mimtFg_12orchestrator5queue38___mock_MockQueueProvider_QueueProvider23___send_message_to_queueNtB6_11Expectation14return_once_stpEBc_
FN:14,_RINvMs6_NtNtNtCs9kcl9mimtFg_12orchestrator5queue38___mock_MockQueueProvider_QueueProvider23___send_message_to_queueNtB6_11Expectation12returning_stpEBc_
FN:14,_RNvMs6_NtNtNtCs9kcl9mimtFg_12orchestrator5queue38___mock_MockQueueProvider_QueueProvider23___send_message_to_queueNtB5_11Expectation11in_sequence
FN:14,_RNvMs6_NtNtNtCs9kcl9mimtFg_12orchestrator5queue38___mock_MockQueueProvider_QueueProvider23___send_message_to_queueNtB5_11Expectation5never
FN:14,_RNvMs6_NtNtNtCs9kcl9mimtFg_12orchestrator5queue38___mock_MockQueueProvider_QueueProvider23___send_message_to_queueNtB5_11Expectation3new
FN:14,_RNvMs6_NtNtNtCs9kcl9mimtFg_12orchestrator5queue38___mock_MockQueueProvider_QueueProvider23___send_message_to_queueNtB5_11Expectation4once
FN:14,_RINvMs6_NtNtNtCs9kcl9mimtFg_12orchestrator5queue38___mock_MockQueueProvider_QueueProvider23___send_message_to_queueNtB6_11Expectation4withpppEBc_
FN:14,_RINvMs6_NtNtNtCs9kcl9mimtFg_12orchestrator5queue38___mock_MockQueueProvider_QueueProvider23___send_message_to_queueNtB6_11Expectation8withf_stpEBc_
FN:14,_RNvMs8_NtNtNtCs9kcl9mimtFg_12orchestrator5queue38___mock_MockQueueProvider_QueueProvider23___send_message_to_queueNtB5_12Expectations10checkpoint
FN:14,_RNvMs8_NtNtNtCs9kcl9mimtFg_12orchestrator5queue38___mock_MockQueueProvider_QueueProvider23___send_message_to_queueNtB5_12Expectations3new
FN:14,_RNvXs_NtNtNtCs9kcl9mimtFg_12orchestrator5queue38___mock_MockQueueProvider_QueueProvider28___consume_message_from_queueNtB4_5RfuncNtNtCsl82brYPINY5_4core7default7Default7default
FN:14,_RNvXs1_NtNtNtCs9kcl9mimtFg_12orchestrator5queue38___mock_MockQueueProvider_QueueProvider28___consume_message_from_queueNtB5_7MatcherNtNtCsl82brYPINY5_4core7default7Default7default
FN:14,_RNvXs3_NtNtNtCs9kcl9mimtFg_12orchestrator5queue38___mock_MockQueueProvider_QueueProvider28___consume_message_from_queueNtB5_6CommonNtNtCsl82brYPINY5_4core7default7Default7default
FN:14,_RNvMs4_NtNtNtCs9kcl9mimtFg_12orchestrator5queue38___mock_MockQueueProvider_QueueProvider28___consume_message_from_queueNtB5_6Common11in_sequence
FN:14,_RNvMs4_NtNtNtCs9kcl9mimtFg_12orchestrator5queue38___mock_MockQueueProvider_QueueProvider28___consume_message_from_queueNtB5_6Common5never
FN:14,_RINvMs4_NtNtNtCs9kcl9mimtFg_12orchestrator5queue38___mock_MockQueueProvider_QueueProvider28___consume_message_from_queueNtB6_6Common5timespEBc_
FN:14,_RINvMs4_NtNtNtCs9kcl9mimtFg_12orchestrator5queue38___mock_MockQueueProvider_QueueProvider28___consume_message_from_queueNtB6_6Common4withpEBc_
FN:14,_RINvMs4_NtNtNtCs9kcl9mimtFg_12orchestrator5queue38___mock_MockQueueProvider_QueueProvider28___consume_message_from_queueNtB6_6Common5withfpEBc_
FN:14,_RINvMs4_NtNtNtCs9kcl9mimtFg_12orchestrator5queue38___mock_MockQueueProvider_QueueProvider28___consume_message_from_queueNtB6_6Common8withf_stpEBc_
FN:14,_RINvMs6_NtNtNtCs9kcl9mimtFg_12orchestrator5queue38___mock_MockQueueProvider_QueueProvider28___consume_message_from_queueNtB6_11Expectation12return_constpEBc_
FN:14,_RNCINvMs6_NtNtNtCs9kcl9mimtFg_12orchestrator5queue38___mock_MockQueueProvider_QueueProvider28___consume_message_from_queueNtB8_11Expectation12return_constpE0Be_
FN:14,_RINvMs6_NtNtNtCs9kcl9mimtFg_12orchestrator5queue38___mock_MockQueueProvider_QueueProvider28___consume_message_from_queueNtB6_11Expectation15return_const_stpEBc_
FN:14,_RNCINvMs6_NtNtNtCs9kcl9mimtFg_12orchestrator5queue38___mock_MockQueueProvider_QueueProvider28___consume_message_from_queueNtB8_11Expectation15return_const_stpE0Be_
FN:14,_RINvMs6_NtNtNtCs9kcl9mimtFg_12orchestrator5queue38___mock_MockQueueProvider_QueueProvider28___consume_message_from_queueNtB6_11Expectation11return_oncepEBc_
FN:14,_RINvMs6_NtNtNtCs9kcl9mimtFg_12orchestrator5queue38___mock_MockQueueProvider_QueueProvider28___consume_message_from_queueNtB6_11Expectation14return_once_stpEBc_
FN:14,_RINvMs6_NtNtNtCs9kcl9mimtFg_12orchestrator5queue38___mock_MockQueueProvider_QueueProvider28___consume_message_from_queueNtB6_11Expectation9returningpEBc_
FN:14,_RINvMs6_NtNtNtCs9kcl9mimtFg_12orchestrator5queue38___mock_MockQueueProvider_QueueProvider28___consume_message_from_queueNtB6_11Expectation12returning_stpEBc_
FN:14,_RNvMs6_NtNtNtCs9kcl9mimtFg_12orchestrator5queue38___mock_MockQueueProvider_QueueProvider28___consume_message_from_queueNtB5_11Expectation11in_sequence
FN:14,_RNvMs6_NtNtNtCs9kcl9mimtFg_12orchestrator5queue38___mock_MockQueueProvider_QueueProvider28___consume_message_from_queueNtB5_11Expectation5never
FN:14,_RNvMs6_NtNtNtCs9kcl9mimtFg_12orchestrator5queue38___mock_MockQueueProvider_QueueProvider28___consume_message_from_queueNtB5_11Expectation3new
FN:14,_RNvMs6_NtNtNtCs9kcl9mimtFg_12orchestrator5queue38___mock_MockQueueProvider_QueueProvider28___consume_message_from_queueNtB5_11Expectation4once
FN:14,_RINvMs6_NtNtNtCs9kcl9mimtFg_12orchestrator5queue38___mock_MockQueueProvider_QueueProvider28___consume_message_from_queueNtB6_11Expectation5timespEBc_
FN:14,_RINvMs6_NtNtNtCs9kcl9mimtFg_12orchestrator5queue38___mock_MockQueueProvider_QueueProvider28___consume_message_from_queueNtB6_11Expectation4withpEBc_
FN:14,_RINvMs6_NtNtNtCs9kcl9mimtFg_12orchestrator5queue38___mock_MockQueueProvider_QueueProvider28___consume_message_from_queueNtB6_11Expectation5withfpEBc_
FN:14,_RINvMs6_NtNtNtCs9kcl9mimtFg_12orchestrator5queue38___mock_MockQueueProvider_QueueProvider28___consume_message_from_queueNtB6_11Expectation8withf_stpEBc_
FN:14,_RNvXs7_NtNtNtCs9kcl9mimtFg_12orchestrator5queue38___mock_MockQueueProvider_QueueProvider28___consume_message_from_queueNtB5_11ExpectationNtNtCsl82brYPINY5_4core7default7Default7default
FN:14,_RNvMs8_NtNtNtCs9kcl9mimtFg_12orchestrator5queue38___mock_MockQueueProvider_QueueProvider28___consume_message_from_queueNtB5_12Expectations10checkpoint
FN:14,_RNvMs8_NtNtNtCs9kcl9mimtFg_12orchestrator5queue38___mock_MockQueueProvider_QueueProvider28___consume_message_from_queueNtB5_12Expectations6expect
FN:14,_RNvMs8_NtNtNtCs9kcl9mimtFg_12orchestrator5queue38___mock_MockQueueProvider_QueueProvider28___consume_message_from_queueNtB5_12Expectations3new
FN:14,_RNvMs1_NtCs9kcl9mimtFg_12orchestrator5queueNtB5_31MockQueueProvider_QueueProvider10checkpoint
FN:14,_RNvMs2_NtCs9kcl9mimtFg_12orchestrator5queueNtB5_17MockQueueProvider10checkpoint
FN:14,_RNvMs3_NtCs9kcl9mimtFg_12orchestrator5queueNtB5_17MockQueueProvider33expect_consume_message_from_queue
FN:21,_RNvNtCs9kcl9mimtFg_12orchestrator5queue14init_consumers
FN:21,_RNCNvNtCs9kcl9mimtFg_12orchestrator5queue14init_consumers0B5_
FN:14,_RNvXs_NtCs9kcl9mimtFg_12orchestrator5queueNtB4_17MockQueueProviderNtNtCsl82brYPINY5_4core7default7Default7default
FN:14,_RNvXs0_NtCs9kcl9mimtFg_12orchestrator5queueNtB5_31MockQueueProvider_QueueProviderNtNtCsl82brYPINY5_4core7default7Default7default
FN:14,_RNvXs9_NtNtNtCs9kcl9mimtFg_12orchestrator5queue38___mock_MockQueueProvider_QueueProvider23___send_message_to_queueNtB5_12ExpectationsNtNtCsl82brYPINY5_4core7default7Default7default
FN:14,_RNvXs9_NtNtNtCs9kcl9mimtFg_12orchestrator5queue38___mock_MockQueueProvider_QueueProvider28___consume_message_from_queueNtB5_12ExpectationsNtNtCsl82brYPINY5_4core7default7Default7default
FN:14,_RNvMs2_NtCs9kcl9mimtFg_12orchestrator5queueNtB5_17MockQueueProvider3new
FNDA:0,_RNvMNtNtNtCs9kcl9mimtFg_12orchestrator5queue38___mock_MockQueueProvider_QueueProvider28___consume_message_from_queueNtB2_5Rfunc8call_mut
FNDA:0,_RNvMs0_NtNtNtCs9kcl9mimtFg_12orchestrator5queue38___mock_MockQueueProvider_QueueProvider28___consume_message_from_queueNtB5_7Matcher7matches
FNDA:0,_RNCNvMs0_NtNtNtCs9kcl9mimtFg_12orchestrator5queue38___mock_MockQueueProvider_QueueProvider28___consume_message_from_queueNtB7_7Matcher7matches0Bd_
FNDA:0,_RNvXs2_NtNtNtCs9kcl9mimtFg_12orchestrator5queue38___mock_MockQueueProvider_QueueProvider28___consume_message_from_queueNtB5_7MatcherNtNtCsl82brYPINY5_4core3fmt7Display3fmt
FNDA:0,_RNvMs4_NtNtNtCs9kcl9mimtFg_12orchestrator5queue38___mock_MockQueueProvider_QueueProvider28___consume_message_from_queueNtB5_6Common4call
FNDA:0,_RNvMs4_NtNtNtCs9kcl9mimtFg_12orchestrator5queue38___mock_MockQueueProvider_QueueProvider28___consume_message_from_queueNtB5_6Common7is_done
FNDA:0,_RNvMs4_NtNtNtCs9kcl9mimtFg_12orchestrator5queue38___mock_MockQueueProvider_QueueProvider28___consume_message_from_queueNtB5_6Common7matches
FNDA:0,_RNvMs4_NtNtNtCs9kcl9mimtFg_12orchestrator5queue38___mock_MockQueueProvider_QueueProvider28___consume_message_from_queueNtB5_6Common16satisfy_sequence
FNDA:0,_RNvMs4_NtNtNtCs9kcl9mimtFg_12orchestrator5queue38___mock_MockQueueProvider_QueueProvider28___consume_message_from_queueNtB5_6Common15verify_sequence
FNDA:0,_RNvXs5_NtNtNtCs9kcl9mimtFg_12orchestrator5queue38___mock_MockQueueProvider_QueueProvider28___consume_message_from_queueNtB5_6CommonNtNtNtCsl82brYPINY5_4core3ops4drop4Drop4drop
FNDA:0,_RNvMs6_NtNtNtCs9kcl9mimtFg_12orchestrator5queue38___mock_MockQueueProvider_QueueProvider28___consume_message_from_queueNtB5_11Expectation4call
FNDA:0,_RNvMs6_NtNtNtCs9kcl9mimtFg_12orchestrator5queue38___mock_MockQueueProvider_QueueProvider28___consume_message_from_queueNtB5_11Expectation7is_done
FNDA:0,_RNvMs6_NtNtNtCs9kcl9mimtFg_12orchestrator5queue38___mock_MockQueueProvider_QueueProvider28___consume_message_from_queueNtB5_11Expectation7matches
FNDA:0,_RNvMsa_NtNtNtCs9kcl9mimtFg_12orchestrator5queue38___mock_MockQueueProvider_QueueProvider28___consume_message_from_queueNtB5_12Expectations4call
FNDA:0,_RNCNvMsa_NtNtNtCs9kcl9mimtFg_12orchestrator5queue38___mock_MockQueueProvider_QueueProvider28___consume_message_from_queueNtB7_12Expectations4calls_0Bd_
FNDA:0,_RNCNvMsa_NtNtNtCs9kcl9mimtFg_12orchestrator5queue38___mock_MockQueueProvider_QueueProvider28___consume_message_from_queueNtB7_12Expectations4call0Bd_
FNDA:19,_RNvMNtNtNtCs9kcl9mimtFg_12orchestrator5queue38___mock_MockQueueProvider_QueueProvider23___send_message_to_queueNtB2_5Rfunc8call_mut
FNDA:19,_RNvMs0_NtNtNtCs9kcl9mimtFg_12orchestrator5queue38___mock_MockQueueProvider_QueueProvider23___send_message_to_queueNtB5_7Matcher7matches
FNDA:0,_RNCNvMs0_NtNtNtCs9kcl9mimtFg_12orchestrator5queue38___mock_MockQueueProvider_QueueProvider23___send_message_to_queueNtB7_7Matcher7matches0Bd_
FNDA:0,_RNvXs2_NtNtNtCs9kcl9mimtFg_12orchestrator5queue38___mock_MockQueueProvider_QueueProvider23___send_message_to_queueNtB5_7MatcherNtNtCsl82brYPINY5_4core3fmt7Display3fmt
FNDA:19,_RNvMs4_NtNtNtCs9kcl9mimtFg_12orchestrator5queue38___mock_MockQueueProvider_QueueProvider23___send_message_to_queueNtB5_6Common4call
FNDA:19,_RNvMs4_NtNtNtCs9kcl9mimtFg_12orchestrator5queue38___mock_MockQueueProvider_QueueProvider23___send_message_to_queueNtB5_6Common7is_done
FNDA:19,_RNvMs4_NtNtNtCs9kcl9mimtFg_12orchestrator5queue38___mock_MockQueueProvider_QueueProvider23___send_message_to_queueNtB5_6Common7matches
FNDA:12,_RNvMs4_NtNtNtCs9kcl9mimtFg_12orchestrator5queue38___mock_MockQueueProvider_QueueProvider23___send_message_to_queueNtB5_6Common16satisfy_sequence
FNDA:2,_RINvMs4_NtNtNtCs9kcl9mimtFg_12orchestrator5queue38___mock_MockQueueProvider_QueueProvider23___send_message_to_queueNtB6_6Common5withfNCNCNvNtNtNtBc_5tests7workers4snos16test_snos_worker0s4_0EBc_
FNDA:1,_RINvMs4_NtNtNtCs9kcl9mimtFg_12orchestrator5queue38___mock_MockQueueProvider_QueueProvider23___send_message_to_queueNtB6_6Common5withfNCNCNvNtNtNtBc_5tests7workers7proving19test_proving_worker0s3_0EBc_
FNDA:1,_RINvMs4_NtNtNtCs9kcl9mimtFg_12orchestrator5queue38___mock_MockQueueProvider_QueueProvider23___send_message_to_queueNtB6_6Common5withfNCNCNvNtNtNtBc_5tests7workers7proving19test_proving_worker0s8_0EBc_
FNDA:19,_RNvMs4_NtNtNtCs9kcl9mimtFg_12orchestrator5queue38___mock_MockQueueProvider_QueueProvider23___send_message_to_queueNtB5_6Common15verify_sequence
FNDA:0,_RNvXs5_NtNtNtCs9kcl9mimtFg_12orchestrator5queue38___mock_MockQueueProvider_QueueProvider23___send_message_to_queueNtB5_6CommonNtNtNtCsl82brYPINY5_4core3ops4drop4Drop4drop
FNDA:19,_RNvMs6_NtNtNtCs9kcl9mimtFg_12orchestrator5queue38___mock_MockQueueProvider_QueueProvider23___send_message_to_queueNtB5_11Expectation4call
FNDA:2,_RINvMs6_NtNtNtCs9kcl9mimtFg_12orchestrator5queue38___mock_MockQueueProvider_QueueProvider23___send_message_to_queueNtB6_11Expectation9returningNCNCNvNtNtNtBc_5tests7workers4snos16test_snos_worker0s3_0EBc_
FNDA:1,_RINvMs6_NtNtNtCs9kcl9mimtFg_12orchestrator5queue38___mock_MockQueueProvider_QueueProvider23___send_message_to_queueNtB6_11Expectation9returningNCNCNvNtNtNtBc_5tests7workers7proving19test_proving_worker0s2_0EBc_
FNDA:1,_RINvMs6_NtNtNtCs9kcl9mimtFg_12orchestrator5queue38___mock_MockQueueProvider_QueueProvider23___send_message_to_queueNtB6_11Expectation9returningNCNCNvNtNtNtBc_5tests7workers7proving19test_proving_worker0s7_0EBc_
FNDA:19,_RNvMs6_NtNtNtCs9kcl9mimtFg_12orchestrator5queue38___mock_MockQueueProvider_QueueProvider23___send_message_to_queueNtB5_11Expectation7is_done
FNDA:19,_RNvMs6_NtNtNtCs9kcl9mimtFg_12orchestrator5queue38___mock_MockQueueProvider_QueueProvider23___send_message_to_queueNtB5_11Expectation7matches
FNDA:2,_RINvMs6_NtNtNtCs9kcl9mimtFg_12orchestrator5queue38___mock_MockQueueProvider_QueueProvider23___send_message_to_queueNtB6_11Expectation5timesjEBc_
FNDA:2,_RINvMs4_NtNtNtCs9kcl9mimtFg_12orchestrator5queue38___mock_MockQueueProvider_QueueProvider23___send_message_to_queueNtB6_6Common5timesjEBc_
FNDA:2,_RINvMs6_NtNtNtCs9kcl9mimtFg_12orchestrator5queue38___mock_MockQueueProvider_QueueProvider23___send_message_to_queueNtB6_11Expectation5withfNCNCNvNtNtNtBc_5tests7workers4snos16test_snos_worker0s4_0EBc_
FNDA:1,_RINvMs6_NtNtNtCs9kcl9mimtFg_12orchestrator5queue38___mock_MockQueueProvider_QueueProvider23___send_message_to_queueNtB6_11Expectation5withfNCNCNvNtNtNtBc_5tests7workers7proving19test_proving_worker0s3_0EBc_
FNDA:1,_RINvMs6_NtNtNtCs9kcl9mimtFg_12orchestrator5queue38___mock_MockQueueProvider_QueueProvider23___send_message_to_queueNtB6_11Expectation5withfNCNCNvNtNtNtBc_5tests7workers7proving19test_proving_worker0s8_0EBc_
FNDA:4,_RNvXs7_NtNtNtCs9kcl9mimtFg_12orchestrator5queue38___mock_MockQueueProvider_QueueProvider23___send_message_to_queueNtB5_11ExpectationNtNtCsl82brYPINY5_4core7default7Default7default
FNDA:4,_RNvXs3_NtNtNtCs9kcl9mimtFg_12orchestrator5queue38___mock_MockQueueProvider_QueueProvider23___send_message_to_queueNtB5_6CommonNtNtCsl82brYPINY5_4core7default7Default7default
FNDA:4,_RNvXs1_NtNtNtCs9kcl9mimtFg_12orchestrator5queue38___mock_MockQueueProvider_QueueProvider23___send_message_to_queueNtB5_7MatcherNtNtCsl82brYPINY5_4core7default7Default7default
FNDA:4,_RNvXs_NtNtNtCs9kcl9mimtFg_12orchestrator5queue38___mock_MockQueueProvider_QueueProvider23___send_message_to_queueNtB4_5RfuncNtNtCsl82brYPINY5_4core7default7Default7default
FNDA:4,_RNvMs8_NtNtNtCs9kcl9mimtFg_12orchestrator5queue38___mock_MockQueueProvider_QueueProvider23___send_message_to_queueNtB5_12Expectations6expect
FNDA:19,_RNvMsa_NtNtNtCs9kcl9mimtFg_12orchestrator5queue38___mock_MockQueueProvider_QueueProvider23___send_message_to_queueNtB5_12Expectations4call
FNDA:19,_RNCNvMsa_NtNtNtCs9kcl9mimtFg_12orchestrator5queue38___mock_MockQueueProvider_QueueProvider23___send_message_to_queueNtB7_12Expectations4calls_0Bd_
FNDA:19,_RNCNvMsa_NtNtNtCs9kcl9mimtFg_12orchestrator5queue38___mock_MockQueueProvider_QueueProvider23___send_message_to_queueNtB7_12Expectations4call0Bd_
FNDA:4,_RNvMs3_NtCs9kcl9mimtFg_12orchestrator5queueNtB5_17MockQueueProvider28expect_send_message_to_queue
FNDA:19,_RNvXs4_NtCs9kcl9mimtFg_12orchestrator5queueNtB5_17MockQueueProviderNtB5_13QueueProvider21send_message_to_queue
FNDA:19,_RNCNvXs4_NtCs9kcl9mimtFg_12orchestrator5queueNtB7_17MockQueueProviderNtB7_13QueueProvider21send_message_to_queue0B9_
FNDA:0,_RNvXs4_NtCs9kcl9mimtFg_12orchestrator5queueNtB5_17MockQueueProviderNtB5_13QueueProvider26consume_message_from_queue
FNDA:0,_RNCNvXs4_NtCs9kcl9mimtFg_12orchestrator5queueNtB7_17MockQueueProviderNtB7_13QueueProvider26consume_message_from_queue0B9_
FNDA:0,_RNvXNtCs9kcl9mimtFg_12orchestrator5queueNtB2_17MockQueueProviderNtNtCsl82brYPINY5_4core3fmt5Debug3fmt
FNDA:0,_RNvMs4_NtNtNtCs9kcl9mimtFg_12orchestrator5queue38___mock_MockQueueProvider_QueueProvider23___send_message_to_queueNtB5_6Common11in_sequence
FNDA:0,_RNvMs4_NtNtNtCs9kcl9mimtFg_12orchestrator5queue38___mock_MockQueueProvider_QueueProvider23___send_message_to_queueNtB5_6Common5never
FNDA:0,_RINvMs4_NtNtNtCs9kcl9mimtFg_12orchestrator5queue38___mock_MockQueueProvider_QueueProvider23___send_message_to_queueNtB6_6Common4withpppEBc_
FNDA:0,_RINvMs4_NtNtNtCs9kcl9mimtFg_12orchestrator5queue38___mock_MockQueueProvider_QueueProvider23___send_message_to_queueNtB6_6Common8withf_stpEBc_
FNDA:0,_RINvMs6_NtNtNtCs9kcl9mimtFg_12orchestrator5queue38___mock_MockQueueProvider_QueueProvider23___send_message_to_queueNtB6_11Expectation12return_constpEBc_
FNDA:0,_RNCINvMs6_NtNtNtCs9kcl9mimtFg_12orchestrator5queue38___mock_MockQueueProvider_QueueProvider23___send_message_to_queueNtB8_11Expectation12return_constpE0Be_
FNDA:0,_RINvMs6_NtNtNtCs9kcl9mimtFg_12orchestrator5queue38___mock_MockQueueProvider_QueueProvider23___send_message_to_queueNtB6_11Expectation15return_const_stpEBc_
FNDA:0,_RNCINvMs6_NtNtNtCs9kcl9mimtFg_12orchestrator5queue38___mock_MockQueueProvider_QueueProvider23___send_message_to_queueNtB8_11Expectation15return_const_stpE0Be_
FNDA:0,_RINvMs6_NtNtNtCs9kcl9mimtFg_12orchestrator5queue38___mock_MockQueueProvider_QueueProvider23___send_message_to_queueNtB6_11Expectation11return_oncepEBc_
FNDA:0,_RINvMs6_NtNtNtCs9kcl9mimtFg_12orchestrator5queue38___mock_MockQueueProvider_QueueProvider23___send_message_to_queueNtB6_11Expectation14return_once_stpEBc_
FNDA:0,_RINvMs6_NtNtNtCs9kcl9mimtFg_12orchestrator5queue38___mock_MockQueueProvider_QueueProvider23___send_message_to_queueNtB6_11Expectation12returning_stpEBc_
FNDA:0,_RNvMs6_NtNtNtCs9kcl9mimtFg_12orchestrator5queue38___mock_MockQueueProvider_QueueProvider23___send_message_to_queueNtB5_11Expectation11in_sequence
FNDA:0,_RNvMs6_NtNtNtCs9kcl9mimtFg_12orchestrator5queue38___mock_MockQueueProvider_QueueProvider23___send_message_to_queueNtB5_11Expectation5never
FNDA:0,_RNvMs6_NtNtNtCs9kcl9mimtFg_12orchestrator5queue38___mock_MockQueueProvider_QueueProvider23___send_message_to_queueNtB5_11Expectation3new
FNDA:0,_RNvMs6_NtNtNtCs9kcl9mimtFg_12orchestrator5queue38___mock_MockQueueProvider_QueueProvider23___send_message_to_queueNtB5_11Expectation4once
FNDA:0,_RINvMs6_NtNtNtCs9kcl9mimtFg_12orchestrator5queue38___mock_MockQueueProvider_QueueProvider23___send_message_to_queueNtB6_11Expectation4withpppEBc_
FNDA:0,_RINvMs6_NtNtNtCs9kcl9mimtFg_12orchestrator5queue38___mock_MockQueueProvider_QueueProvider23___send_message_to_queueNtB6_11Expectation8withf_stpEBc_
FNDA:0,_RNvMs8_NtNtNtCs9kcl9mimtFg_12orchestrator5queue38___mock_MockQueueProvider_QueueProvider23___send_message_to_queueNtB5_12Expectations10checkpoint
FNDA:0,_RNvMs8_NtNtNtCs9kcl9mimtFg_12orchestrator5queue38___mock_MockQueueProvider_QueueProvider23___send_message_to_queueNtB5_12Expectations3new
FNDA:0,_RNvXs_NtNtNtCs9kcl9mimtFg_12orchestrator5queue38___mock_MockQueueProvider_QueueProvider28___consume_message_from_queueNtB4_5RfuncNtNtCsl82brYPINY5_4core7default7Default7default
FNDA:0,_RNvXs1_NtNtNtCs9kcl9mimtFg_12orchestrator5queue38___mock_MockQueueProvider_QueueProvider28___consume_message_from_queueNtB5_7MatcherNtNtCsl82brYPINY5_4core7default7Default7default
FNDA:0,_RNvXs3_NtNtNtCs9kcl9mimtFg_12orchestrator5queue38___mock_MockQueueProvider_QueueProvider28___consume_message_from_queueNtB5_6CommonNtNtCsl82brYPINY5_4core7default7Default7default
FNDA:0,_RNvMs4_NtNtNtCs9kcl9mimtFg_12orchestrator5queue38___mock_MockQueueProvider_QueueProvider28___consume_message_from_queueNtB5_6Common11in_sequence
FNDA:0,_RNvMs4_NtNtNtCs9kcl9mimtFg_12orchestrator5queue38___mock_MockQueueProvider_QueueProvider28___consume_message_from_queueNtB5_6Common5never
FNDA:0,_RINvMs4_NtNtNtCs9kcl9mimtFg_12orchestrator5queue38___mock_MockQueueProvider_QueueProvider28___consume_message_from_queueNtB6_6Common5timespEBc_
FNDA:0,_RINvMs4_NtNtNtCs9kcl9mimtFg_12orchestrator5queue38___mock_MockQueueProvider_QueueProvider28___consume_message_from_queueNtB6_6Common4withpEBc_
FNDA:0,_RINvMs4_NtNtNtCs9kcl9mimtFg_12orchestrator5queue38___mock_MockQueueProvider_QueueProvider28___consume_message_from_queueNtB6_6Common5withfpEBc_
FNDA:0,_RINvMs4_NtNtNtCs9kcl9mimtFg_12orchestrator5queue38___mock_MockQueueProvider_QueueProvider28___consume_message_from_queueNtB6_6Common8withf_stpEBc_
FNDA:0,_RINvMs6_NtNtNtCs9kcl9mimtFg_12orchestrator5queue38___mock_MockQueueProvider_QueueProvider28___consume_message_from_queueNtB6_11Expectation12return_constpEBc_
FNDA:0,_RNCINvMs6_NtNtNtCs9kcl9mimtFg_12orchestrator5queue38___mock_MockQueueProvider_QueueProvider28___consume_message_from_queueNtB8_11Expectation12return_constpE0Be_
FNDA:0,_RINvMs6_NtNtNtCs9kcl9mimtFg_12orchestrator5queue38___mock_MockQueueProvider_QueueProvider28___consume_message_from_queueNtB6_11Expectation15return_const_stpEBc_
FNDA:0,_RNCINvMs6_NtNtNtCs9kcl9mimtFg_12orchestrator5queue38___mock_MockQueueProvider_QueueProvider28___consume_message_from_queueNtB8_11Expectation15return_const_stpE0Be_
FNDA:0,_RINvMs6_NtNtNtCs9kcl9mimtFg_12orchestrator5queue38___mock_MockQueueProvider_QueueProvider28___consume_message_from_queueNtB6_11Expectation11return_oncepEBc_
FNDA:0,_RINvMs6_NtNtNtCs9kcl9mimtFg_12orchestrator5queue38___mock_MockQueueProvider_QueueProvider28___consume_message_from_queueNtB6_11Expectation14return_once_stpEBc_
FNDA:0,_RINvMs6_NtNtNtCs9kcl9mimtFg_12orchestrator5queue38___mock_MockQueueProvider_QueueProvider28___consume_message_from_queueNtB6_11Expectation9returningpEBc_
FNDA:0,_RINvMs6_NtNtNtCs9kcl9mimtFg_12orchestrator5queue38___mock_MockQueueProvider_QueueProvider28___consume_message_from_queueNtB6_11Expectation12returning_stpEBc_
FNDA:0,_RNvMs6_NtNtNtCs9kcl9mimtFg_12orchestrator5queue38___mock_MockQueueProvider_QueueProvider28___consume_message_from_queueNtB5_11Expectation11in_sequence
FNDA:0,_RNvMs6_NtNtNtCs9kcl9mimtFg_12orchestrator5queue38___mock_MockQueueProvider_QueueProvider28___consume_message_from_queueNtB5_11Expectation5never
FNDA:0,_RNvMs6_NtNtNtCs9kcl9mimtFg_12orchestrator5queue38___mock_MockQueueProvider_QueueProvider28___consume_message_from_queueNtB5_11Expectation3new
FNDA:0,_RNvMs6_NtNtNtCs9kcl9mimtFg_12orchestrator5queue38___mock_MockQueueProvider_QueueProvider28___consume_message_from_queueNtB5_11Expectation4once
FNDA:0,_RINvMs6_NtNtNtCs9kcl9mimtFg_12orchestrator5queue38___mock_MockQueueProvider_QueueProvider28___consume_message_from_queueNtB6_11Expectation5timespEBc_
FNDA:0,_RINvMs6_NtNtNtCs9kcl9mimtFg_12orchestrator5queue38___mock_MockQueueProvider_QueueProvider28___consume_message_from_queueNtB6_11Expectation4withpEBc_
FNDA:0,_RINvMs6_NtNtNtCs9kcl9mimtFg_12orchestrator5queue38___mock_MockQueueProvider_QueueProvider28___consume_message_from_queueNtB6_11Expectation5withfpEBc_
FNDA:0,_RINvMs6_NtNtNtCs9kcl9mimtFg_12orchestrator5queue38___mock_MockQueueProvider_QueueProvider28___consume_message_from_queueNtB6_11Expectation8withf_stpEBc_
FNDA:0,_RNvXs7_NtNtNtCs9kcl9mimtFg_12orchestrator5queue38___mock_MockQueueProvider_QueueProvider28___consume_message_from_queueNtB5_11ExpectationNtNtCsl82brYPINY5_4core7default7Default7default
FNDA:0,_RNvMs8_NtNtNtCs9kcl9mimtFg_12orchestrator5queue38___mock_MockQueueProvider_QueueProvider28___consume_message_from_queueNtB5_12Expectations10checkpoint
FNDA:0,_RNvMs8_NtNtNtCs9kcl9mimtFg_12orchestrator5queue38___mock_MockQueueProvider_QueueProvider28___consume_message_from_queueNtB5_12Expectations6expect
FNDA:0,_RNvMs8_NtNtNtCs9kcl9mimtFg_12orchestrator5queue38___mock_MockQueueProvider_QueueProvider28___consume_message_from_queueNtB5_12Expectations3new
FNDA:0,_RNvMs1_NtCs9kcl9mimtFg_12orchestrator5queueNtB5_31MockQueueProvider_QueueProvider10checkpoint
FNDA:0,_RNvMs2_NtCs9kcl9mimtFg_12orchestrator5queueNtB5_17MockQueueProvider10checkpoint
FNDA:0,_RNvMs3_NtCs9kcl9mimtFg_12orchestrator5queueNtB5_17MockQueueProvider33expect_consume_message_from_queue
FNDA:1,_RNvNtCs9kcl9mimtFg_12orchestrator5queue14init_consumers
FNDA:1,_RNCNvNtCs9kcl9mimtFg_12orchestrator5queue14init_consumers0B5_
FNDA:14,_RNvXs_NtCs9kcl9mimtFg_12orchestrator5queueNtB4_17MockQueueProviderNtNtCsl82brYPINY5_4core7default7Default7default
FNDA:14,_RNvXs0_NtCs9kcl9mimtFg_12orchestrator5queueNtB5_31MockQueueProvider_QueueProviderNtNtCsl82brYPINY5_4core7default7Default7default
FNDA:14,_RNvXs9_NtNtNtCs9kcl9mimtFg_12orchestrator5queue38___mock_MockQueueProvider_QueueProvider23___send_message_to_queueNtB5_12ExpectationsNtNtCsl82brYPINY5_4core7default7Default7default
FNDA:14,_RNvXs9_NtNtNtCs9kcl9mimtFg_12orchestrator5queue38___mock_MockQueueProvider_QueueProvider28___consume_message_from_queueNtB5_12ExpectationsNtNtCsl82brYPINY5_4core7default7Default7default
FNDA:4,_RNvMs2_NtCs9kcl9mimtFg_12orchestrator5queueNtB5_17MockQueueProvider3new
FNF:3
FNH:3
DA:14,126
DA:21,1
DA:22,1
DA:23,1
BRF:0
BRH:0
LF:5
LH:5
end_of_record
SF:/Users/ocdbytes/Karnot/madara-orchestrator/crates/orchestrator/src/queue/sqs/mod.rs
FN:31,_RNvNtNtCs9kcl9mimtFg_12orchestrator5queue3sqs12get_producer
FN:31,_RNCNvNtNtCs9kcl9mimtFg_12orchestrator5queue3sqs12get_producer0B7_
FN:37,_RNvNtNtCs9kcl9mimtFg_12orchestrator5queue3sqs12get_consumer
FN:37,_RNCNvNtNtCs9kcl9mimtFg_12orchestrator5queue3sqs12get_consumer0B7_
FN:13,_RNvXNtNtCs9kcl9mimtFg_12orchestrator5queue3sqsNtB2_8SqsQueueNtB4_13QueueProvider21send_message_to_queue
FN:13,_RNCNvXNtNtCs9kcl9mimtFg_12orchestrator5queue3sqsNtB4_8SqsQueueNtB6_13QueueProvider21send_message_to_queue0B8_
FN:24,_RNvXNtNtCs9kcl9mimtFg_12orchestrator5queue3sqsNtB2_8SqsQueueNtB4_13QueueProvider26consume_message_from_queue
FN:24,_RNCNvXNtNtCs9kcl9mimtFg_12orchestrator5queue3sqsNtB4_8SqsQueueNtB6_13QueueProvider26consume_message_from_queue0B8_
FNDA:0,_RNvNtNtCs9kcl9mimtFg_12orchestrator5queue3sqs12get_producer
FNDA:0,_RNCNvNtNtCs9kcl9mimtFg_12orchestrator5queue3sqs12get_producer0B7_
FNDA:0,_RNvNtNtCs9kcl9mimtFg_12orchestrator5queue3sqs12get_consumer
FNDA:0,_RNCNvNtNtCs9kcl9mimtFg_12orchestrator5queue3sqs12get_consumer0B7_
FNDA:0,_RNvXNtNtCs9kcl9mimtFg_12orchestrator5queue3sqsNtB2_8SqsQueueNtB4_13QueueProvider21send_message_to_queue
FNDA:0,_RNCNvXNtNtCs9kcl9mimtFg_12orchestrator5queue3sqsNtB4_8SqsQueueNtB6_13QueueProvider21send_message_to_queue0B8_
FNDA:0,_RNvXNtNtCs9kcl9mimtFg_12orchestrator5queue3sqsNtB2_8SqsQueueNtB4_13QueueProvider26consume_message_from_queue
FNDA:0,_RNCNvXNtNtCs9kcl9mimtFg_12orchestrator5queue3sqsNtB4_8SqsQueueNtB6_13QueueProvider26consume_message_from_queue0B8_
FNF:6
FNH:0
DA:13,0
DA:14,0
DA:15,0
DA:16,0
DA:17,0
DA:18,0
DA:19,0
DA:20,0
DA:21,0
DA:22,0
DA:24,0
DA:25,0
DA:26,0
DA:27,0
DA:31,0
DA:32,0
DA:33,0
DA:34,0
DA:35,0
DA:37,0
DA:38,0
DA:39,0
DA:40,0
DA:41,0
BRF:0
BRH:0
LF:26
LH:0
end_of_record
SF:/Users/ocdbytes/Karnot/madara-orchestrator/crates/orchestrator/src/routes.rs
FN:8,_RNvNtCs9kcl9mimtFg_12orchestrator6routes10app_router
FN:16,_RNvNtCs9kcl9mimtFg_12orchestrator6routes4root
FN:16,_RNCNvNtCs9kcl9mimtFg_12orchestrator6routes4root0B5_
FN:20,_RNvNtCs9kcl9mimtFg_12orchestrator6routes11handler_404
FN:20,_RNCNvNtCs9kcl9mimtFg_12orchestrator6routes11handler_4040B5_
FN:24,_RNvNtCs9kcl9mimtFg_12orchestrator6routes10job_routes
FN:28,_RNvNtCs9kcl9mimtFg_12orchestrator6routes10dev_routes
FNDA:1,_RNvNtCs9kcl9mimtFg_12orchestrator6routes10app_router
FNDA:1,_RNvNtCs9kcl9mimtFg_12orchestrator6routes4root
FNDA:1,_RNCNvNtCs9kcl9mimtFg_12orchestrator6routes4root0B5_
FNDA:0,_RNvNtCs9kcl9mimtFg_12orchestrator6routes11handler_404
FNDA:0,_RNCNvNtCs9kcl9mimtFg_12orchestrator6routes11handler_4040B5_
FNDA:1,_RNvNtCs9kcl9mimtFg_12orchestrator6routes10job_routes
FNDA:1,_RNvNtCs9kcl9mimtFg_12orchestrator6routes10dev_routes
FNF:7
FNH:5
DA:8,1
DA:9,1
DA:10,1
DA:11,1
DA:12,1
DA:13,1
DA:14,1
DA:16,1
DA:17,1
DA:18,1
DA:20,0
DA:21,0
DA:22,0
DA:24,1
DA:25,1
DA:26,1
DA:28,1
DA:29,1
DA:30,1
BRF:0
BRH:0
LF:21
LH:17
end_of_record
SF:/Users/ocdbytes/Karnot/madara-orchestrator/crates/orchestrator/src/workers/proof_registration.rs
FN:14,_RNvXNtNtCs9kcl9mimtFg_12orchestrator7workers18proof_registrationNtB2_23ProofRegistrationWorkerNtB4_6Worker10run_worker
FN:14,_RNCNvXNtNtCs9kcl9mimtFg_12orchestrator7workers18proof_registrationNtB4_23ProofRegistrationWorkerNtB6_6Worker10run_worker0B8_
FNDA:0,_RNvXNtNtCs9kcl9mimtFg_12orchestrator7workers18proof_registrationNtB2_23ProofRegistrationWorkerNtB4_6Worker10run_worker
FNDA:0,_RNCNvXNtNtCs9kcl9mimtFg_12orchestrator7workers18proof_registrationNtB4_23ProofRegistrationWorkerNtB6_6Worker10run_worker0B8_
FNF:1
FNH:0
DA:14,0
DA:15,0
DA:16,0
BRF:0
BRH:0
LF:3
LH:0
end_of_record
SF:/Users/ocdbytes/Karnot/madara-orchestrator/crates/orchestrator/src/workers/proving.rs
FN:14,_RNvXNtNtCs9kcl9mimtFg_12orchestrator7workers7provingNtB2_13ProvingWorkerNtB4_6Worker10run_worker
FN:14,_RNCNvXNtNtCs9kcl9mimtFg_12orchestrator7workers7provingNtB4_13ProvingWorkerNtB6_6Worker10run_worker0B8_
FNDA:2,_RNvXNtNtCs9kcl9mimtFg_12orchestrator7workers7provingNtB2_13ProvingWorkerNtB4_6Worker10run_worker
FNDA:2,_RNCNvXNtNtCs9kcl9mimtFg_12orchestrator7workers7provingNtB4_13ProvingWorkerNtB6_6Worker10run_worker0B8_
FNF:1
FNH:1
DA:14,2
DA:15,2
DA:16,2
DA:17,2
DA:18,2
DA:19,2
DA:20,2
DA:21,11
DA:22,9
DA:23,2
DA:24,2
DA:25,2
DA:26,2
BRF:0
BRH:0
LF:13
LH:13
end_of_record
SF:/Users/ocdbytes/Karnot/madara-orchestrator/crates/orchestrator/src/workers/snos.rs
FN:19,_RNvXNtNtCs9kcl9mimtFg_12orchestrator7workers4snosNtB2_10SnosWorkerNtB4_6Worker10run_worker
FN:19,_RNCNvXNtNtCs9kcl9mimtFg_12orchestrator7workers4snosNtB4_10SnosWorkerNtB6_6Worker10run_worker0B8_
FN:28,_RNCNCNvXNtNtCs9kcl9mimtFg_12orchestrator7workers4snosNtB6_10SnosWorkerNtB8_6Worker10run_worker00Ba_
FNDA:2,_RNvXNtNtCs9kcl9mimtFg_12orchestrator7workers4snosNtB2_10SnosWorkerNtB4_6Worker10run_worker
FNDA:2,_RNCNvXNtNtCs9kcl9mimtFg_12orchestrator7workers4snosNtB4_10SnosWorkerNtB6_6Worker10run_worker0B8_
FNDA:1,_RNCNCNvXNtNtCs9kcl9mimtFg_12orchestrator7workers4snosNtB6_10SnosWorkerNtB8_6Worker10run_worker00Ba_
FNF:2
FNH:2
DA:19,2
DA:20,2
DA:21,2
DA:22,10
DA:23,2
DA:24,2
DA:25,2
DA:26,2
DA:27,2
DA:28,2
DA:29,2
DA:30,2
DA:31,2
DA:32,2
DA:33,2
DA:34,2
DA:35,2
DA:36,2
DA:37,2
DA:38,2
DA:39,2
DA:40,10
DA:41,10
DA:42,2
DA:43,2
DA:44,2
DA:45,2
BRF:0
BRH:0
LF:28
LH:28
end_of_record
SF:/Users/ocdbytes/Karnot/madara-orchestrator/crates/orchestrator/src/workers/update_state.rs
FN:14,_RNvXNtNtCs9kcl9mimtFg_12orchestrator7workers12update_stateNtB2_17UpdateStateWorkerNtB4_6Worker10run_worker
FN:14,_RNCNvXNtNtCs9kcl9mimtFg_12orchestrator7workers12update_stateNtB4_17UpdateStateWorkerNtB6_6Worker10run_worker0B8_
FNDA:0,_RNvXNtNtCs9kcl9mimtFg_12orchestrator7workers12update_stateNtB2_17UpdateStateWorkerNtB4_6Worker10run_worker
FNDA:0,_RNCNvXNtNtCs9kcl9mimtFg_12orchestrator7workers12update_stateNtB4_17UpdateStateWorkerNtB6_6Worker10run_worker0B8_
FNF:1
FNH:0
DA:14,0
DA:15,0
DA:16,0
BRF:0
BRH:0
LF:3
LH:0
end_of_record
SF:/Users/ocdbytes/Karnot/madara-orchestrator/crates/prover-services/gps-fact-checker/src/error.rs
FN:3,_RNvXs1_NtCscm982D8lJxL_16gps_fact_checker5errorNtB5_16FactCheckerErrorINtNtCsl82brYPINY5_4core7convert4FromNtNtCsdFmR6CfwYAt_8cairo_vm12program_hash16ProgramHashErrorE4from
FN:3,_RNvXs_NtCscm982D8lJxL_16gps_fact_checker5errorNtB4_16FactCheckerErrorNtNtCsl82brYPINY5_4core5error5Error6source
FN:3,_RNvXs0_NtCscm982D8lJxL_16gps_fact_checker5errorNtB5_16FactCheckerErrorNtNtCsl82brYPINY5_4core3fmt7Display3fmt
FN:3,_RNvXs_NtCs7gucwVAkqjE_16gps_fact_checker5errorNtB4_16FactCheckerErrorNtNtCsl82brYPINY5_4core5error5Error6source
FN:3,_RNvXs1_NtCs7gucwVAkqjE_16gps_fact_checker5errorNtB5_16FactCheckerErrorINtNtCsl82brYPINY5_4core7convert4FromNtNtCsdFmR6CfwYAt_8cairo_vm12program_hash16ProgramHashErrorE4from
FN:3,_RNvXs0_NtCs7gucwVAkqjE_16gps_fact_checker5errorNtB5_16FactCheckerErrorNtNtCsl82brYPINY5_4core3fmt7Display3fmt
FNDA:0,_RNvXs1_NtCscm982D8lJxL_16gps_fact_checker5errorNtB5_16FactCheckerErrorINtNtCsl82brYPINY5_4core7convert4FromNtNtCsdFmR6CfwYAt_8cairo_vm12program_hash16ProgramHashErrorE4from
FNDA:0,_RNvXs_NtCscm982D8lJxL_16gps_fact_checker5errorNtB4_16FactCheckerErrorNtNtCsl82brYPINY5_4core5error5Error6source
FNDA:0,_RNvXs0_NtCscm982D8lJxL_16gps_fact_checker5errorNtB5_16FactCheckerErrorNtNtCsl82brYPINY5_4core3fmt7Display3fmt
FNDA:0,_RNvXs_NtCs7gucwVAkqjE_16gps_fact_checker5errorNtB4_16FactCheckerErrorNtNtCsl82brYPINY5_4core5error5Error6source
FNDA:0,_RNvXs1_NtCs7gucwVAkqjE_16gps_fact_checker5errorNtB5_16FactCheckerErrorINtNtCsl82brYPINY5_4core7convert4FromNtNtCsdFmR6CfwYAt_8cairo_vm12program_hash16ProgramHashErrorE4from
FNDA:0,_RNvXs0_NtCs7gucwVAkqjE_16gps_fact_checker5errorNtB5_16FactCheckerErrorNtNtCsl82brYPINY5_4core3fmt7Display3fmt
FNF:1
FNH:0
DA:3,0
BRF:0
BRH:0
LF:1
LH:0
end_of_record
SF:/Users/ocdbytes/Karnot/madara-orchestrator/crates/prover-services/gps-fact-checker/src/fact_info.rs
FN:29,_RNvNtCscm982D8lJxL_16gps_fact_checker9fact_info13get_fact_info
FN:41,_RNvNtCscm982D8lJxL_16gps_fact_checker9fact_info18get_program_output
FN:53,_RNCNvNtCscm982D8lJxL_16gps_fact_checker9fact_info18get_program_output0B5_
FN:89,_RNvNtNtCscm982D8lJxL_16gps_fact_checker9fact_info5testss_14test_fact_info
FN:29,_RNvNtCs7gucwVAkqjE_16gps_fact_checker9fact_info13get_fact_info
FN:41,_RNvNtCs7gucwVAkqjE_16gps_fact_checker9fact_info18get_program_output
FN:53,_RNCNvNtCs7gucwVAkqjE_16gps_fact_checker9fact_info18get_program_output0B5_
FNDA:1,_RNvNtCscm982D8lJxL_16gps_fact_checker9fact_info13get_fact_info
FNDA:1,_RNvNtCscm982D8lJxL_16gps_fact_checker9fact_info18get_program_output
FNDA:90,_RNCNvNtCscm982D8lJxL_16gps_fact_checker9fact_info18get_program_output0B5_
FNDA:1,_RNvNtNtCscm982D8lJxL_16gps_fact_checker9fact_info5testss_14test_fact_info
FNDA:0,_RNvNtCs7gucwVAkqjE_16gps_fact_checker9fact_info13get_fact_info
FNDA:0,_RNvNtCs7gucwVAkqjE_16gps_fact_checker9fact_info18get_program_output
FNDA:0,_RNCNvNtCs7gucwVAkqjE_16gps_fact_checker9fact_info18get_program_output0B5_
FNF:4
FNH:4
DA:29,1
DA:30,1
DA:31,1
DA:32,1
DA:33,0
DA:34,1
DA:36,1
DA:37,1
DA:38,1
DA:39,1
DA:41,1
DA:42,1
DA:43,1
DA:44,1
DA:45,1
DA:46,1
DA:48,1
DA:49,1
DA:50,1
DA:51,1
DA:52,1
DA:53,90
DA:54,1
DA:56,1
DA:57,1
DA:60,1
DA:61,1
DA:63,1
DA:64,1
DA:65,0
DA:67,1
DA:68,1
DA:70,0
DA:74,1
DA:77,1
DA:78,1
DA:89,1
DA:90,1
DA:91,1
DA:92,1
DA:93,1
DA:94,1
DA:95,1
DA:96,1
DA:97,1
BRF:0
BRH:0
LF:46
LH:43
end_of_record
SF:/Users/ocdbytes/Karnot/madara-orchestrator/crates/prover-services/gps-fact-checker/src/fact_node.rs
FN:69,_RNCNvNtCscm982D8lJxL_16gps_fact_checker9fact_node20generate_merkle_root0B5_
FN:49,_RNvNtCscm982D8lJxL_16gps_fact_checker9fact_node20generate_merkle_root
FN:49,_RNvNtCs7gucwVAkqjE_16gps_fact_checker9fact_node20generate_merkle_root
FN:69,_RNCNvNtCs7gucwVAkqjE_16gps_fact_checker9fact_node20generate_merkle_root0B5_
FNDA:1,_RNCNvNtCscm982D8lJxL_16gps_fact_checker9fact_node20generate_merkle_root0B5_
FNDA:1,_RNvNtCscm982D8lJxL_16gps_fact_checker9fact_node20generate_merkle_root
FNDA:0,_RNvNtCs7gucwVAkqjE_16gps_fact_checker9fact_node20generate_merkle_root
FNDA:0,_RNCNvNtCs7gucwVAkqjE_16gps_fact_checker9fact_node20generate_merkle_root0B5_
FNF:2
FNH:2
DA:49,1
DA:50,1
DA:51,1
DA:52,1
DA:53,1
DA:54,1
DA:55,1
DA:56,1
DA:57,1
DA:59,1
DA:60,1
DA:61,1
DA:62,0
DA:66,1
DA:67,1
DA:68,1
DA:69,1
DA:70,1
DA:71,1
DA:72,1
DA:73,1
DA:76,1
DA:77,1
DA:78,0
DA:81,1
DA:83,0
DA:84,0
DA:85,0
DA:86,0
DA:88,0
DA:89,0
DA:90,0
DA:91,0
DA:92,0
DA:93,0
DA:94,0
DA:96,0
DA:97,0
DA:98,0
DA:99,0
DA:100,0
DA:101,0
DA:102,1
DA:104,1
DA:105,1
DA:106,1
DA:107,1
DA:108,0
DA:110,1
DA:111,1
DA:112,0
DA:116,1
DA:117,1
BRF:0
BRH:0
LF:54
LH:33
end_of_record
SF:/Users/ocdbytes/Karnot/madara-orchestrator/crates/prover-services/gps-fact-checker/src/fact_topology.rs
FN:25,_RNvNtCscm982D8lJxL_16gps_fact_checker13fact_topology17get_fact_topology
FN:50,_RNvNtCscm982D8lJxL_16gps_fact_checker13fact_topology14get_page_sizes
FN:55,_RNCNvNtCscm982D8lJxL_16gps_fact_checker13fact_topology14get_page_sizes0B5_
FN:33,_RNCNvNtCscm982D8lJxL_16gps_fact_checker13fact_topology17get_fact_topology0B5_
FN:25,_RNvNtCs7gucwVAkqjE_16gps_fact_checker13fact_topology17get_fact_topology
FN:50,_RNvNtCs7gucwVAkqjE_16gps_fact_checker13fact_topology14get_page_sizes
FN:55,_RNCNvNtCs7gucwVAkqjE_16gps_fact_checker13fact_topology14get_page_sizes0B5_
FN:33,_RNCNvNtCs7gucwVAkqjE_16gps_fact_checker13fact_topology17get_fact_topology0B5_
FNDA:1,_RNvNtCscm982D8lJxL_16gps_fact_checker13fact_topology17get_fact_topology
FNDA:1,_RNvNtCscm982D8lJxL_16gps_fact_checker13fact_topology14get_page_sizes
FNDA:0,_RNCNvNtCscm982D8lJxL_16gps_fact_checker13fact_topology14get_page_sizes0B5_
FNDA:0,_RNCNvNtCscm982D8lJxL_16gps_fact_checker13fact_topology17get_fact_topology0B5_
FNDA:0,_RNvNtCs7gucwVAkqjE_16gps_fact_checker13fact_topology17get_fact_topology
FNDA:0,_RNvNtCs7gucwVAkqjE_16gps_fact_checker13fact_topology14get_page_sizes
FNDA:0,_RNCNvNtCs7gucwVAkqjE_16gps_fact_checker13fact_topology14get_page_sizes0B5_
FNDA:0,_RNCNvNtCs7gucwVAkqjE_16gps_fact_checker13fact_topology17get_fact_topology0B5_
FNF:4
FNH:2
DA:25,1
DA:26,1
DA:28,1
DA:29,0
DA:30,0
DA:31,0
DA:32,0
DA:33,0
DA:34,0
DA:37,1
DA:38,1
DA:41,1
DA:42,1
DA:44,0
DA:46,1
DA:50,1
DA:51,1
DA:52,1
DA:53,1
DA:54,1
DA:55,1
DA:56,1
DA:57,1
DA:58,1
DA:59,1
DA:60,1
DA:61,1
DA:62,1
DA:63,1
DA:64,1
DA:65,1
DA:67,1
DA:68,0
DA:70,0
DA:71,0
DA:72,0
DA:73,0
DA:75,0
DA:77,0
DA:78,0
DA:79,0
DA:80,0
DA:81,0
DA:82,0
DA:83,0
DA:87,0
DA:88,0
DA:89,0
DA:91,0
DA:92,0
DA:93,0
DA:94,0
DA:97,1
DA:98,1
DA:99,0
DA:101,1
DA:102,1
BRF:0
BRH:0
LF:59
LH:29
end_of_record
SF:/Users/ocdbytes/Karnot/madara-orchestrator/crates/prover-services/gps-fact-checker/src/lib.rs
FN:29,_RNvMCscm982D8lJxL_16gps_fact_checkerNtB2_11FactChecker3new
